SF:/Users/dan/dev/callisto/callisto/src/authentication.rs
FN:448,_RINvXNvXNvNtCskkwNnPUyuBS_8callisto14authentications4_1__NtB8_16GooglePublicKeysNtNtCs8pDKiTx8cJZ_5serde2de11Deserialize11deserializeNtB3_14___FieldVisitorNtB1i_7Visitor9visit_strNtNtCse3EK68OXEkC_10serde_json5error5ErrorECsj2r3Yn2CUPB_8callisto
FN:453,_RINvXNvXNvNtCskkwNnPUyuBS_8callisto14authentications5_1__NtB8_15GooglePublicKeyNtNtCs8pDKiTx8cJZ_5serde2de11Deserialize11deserializeNtB3_14___FieldVisitorNtB1h_7Visitor9visit_strNtNtCse3EK68OXEkC_10serde_json5error5ErrorECsj2r3Yn2CUPB_8callisto
FN:448,_RINvXs0_NvXNvNtCskkwNnPUyuBS_8callisto14authentications4_1__NtBb_16GooglePublicKeysNtNtCs8pDKiTx8cJZ_5serde2de11Deserialize11deserializeNtB6_9___VisitorNtB1l_7Visitor9visit_mapINtNtCse3EK68OXEkC_10serde_json2de9MapAccessNtNtB2T_4read7StrReadEECsj2r3Yn2CUPB_8callisto
FN:448,_RINvXs0_NvXNvNtCskkwNnPUyuBS_8callisto14authentications4_1__NtBb_16GooglePublicKeysNtNtCs8pDKiTx8cJZ_5serde2de11Deserialize11deserializeNtB6_9___VisitorNtB1l_7Visitor9visit_seqINtNtCse3EK68OXEkC_10serde_json2de9SeqAccessNtNtB2T_4read7StrReadEECsj2r3Yn2CUPB_8callisto
FN:453,_RINvXs0_NvXNvNtCskkwNnPUyuBS_8callisto14authentications5_1__NtBb_15GooglePublicKeyNtNtCs8pDKiTx8cJZ_5serde2de11Deserialize11deserializeNtB6_9___VisitorNtB1k_7Visitor9visit_mapINtNtCse3EK68OXEkC_10serde_json2de9MapAccessNtNtB2S_4read7StrReadEECsj2r3Yn2CUPB_8callisto
FN:453,_RINvXs0_NvXNvNtCskkwNnPUyuBS_8callisto14authentications5_1__NtBb_15GooglePublicKeyNtNtCs8pDKiTx8cJZ_5serde2de11Deserialize11deserializeNtB6_9___VisitorNtB1k_7Visitor9visit_seqINtNtCse3EK68OXEkC_10serde_json2de9SeqAccessNtNtB2S_4read7StrReadEECsj2r3Yn2CUPB_8callisto
FN:448,_RINvXs_NvXNvNtCskkwNnPUyuBS_8callisto14authentications4_1__NtBa_16GooglePublicKeysNtNtCs8pDKiTx8cJZ_5serde2de11Deserialize11deserializeNtB5_7___FieldB1i_11deserializeINtNtCse3EK68OXEkC_10serde_json2de6MapKeyNtNtB2J_4read7StrReadEECsj2r3Yn2CUPB_8callisto
FN:453,_RINvXs_NvXNvNtCskkwNnPUyuBS_8callisto14authentications5_1__NtBa_15GooglePublicKeyNtNtCs8pDKiTx8cJZ_5serde2de11Deserialize11deserializeNtB5_7___FieldB1h_11deserializeINtNtCse3EK68OXEkC_10serde_json2de6MapKeyNtNtB2I_4read7StrReadEECsj2r3Yn2CUPB_8callisto
FN:95,_RNCNCNvMNtCskkwNnPUyuBS_8callisto14authenticationNtB6_19GoogleAuthenticator24fetch_google_public_keys00Csj2r3Yn2CUPB_8callisto
FN:57,_RNCNCNvMNtCskkwNnPUyuBS_8callisto14authenticationNtB6_19GoogleAuthenticator3new00Csj2r3Yn2CUPB_8callisto
FN:315,_RNCNCNvNtCskkwNnPUyuBS_8callisto14authentication31load_authorized_users_from_file00Csj2r3Yn2CUPB_8callisto
FN:80,_RNCNvMNtCskkwNnPUyuBS_8callisto14authenticationNtB4_19GoogleAuthenticator24fetch_google_public_keys0Csj2r3Yn2CUPB_8callisto
FN:56,_RNCNvMNtCskkwNnPUyuBS_8callisto14authenticationNtB4_19GoogleAuthenticator3new0Csj2r3Yn2CUPB_8callisto
FN:325,_RNCNvMs_NtCskkwNnPUyuBS_8callisto14authenticationNtB6_17MockAuthenticator3new0Csj2r3Yn2CUPB_8callisto
FN:312,_RNCNvNtCskkwNnPUyuBS_8callisto14authentication31load_authorized_users_from_file0Csj2r3Yn2CUPB_8callisto
FN:56,_RNvMNtCskkwNnPUyuBS_8callisto14authenticationNtB2_19GoogleAuthenticator3new
FN:80,_RNvMNtCskkwNnPUyuBS_8callisto14authenticationNtB2_19GoogleAuthenticator24fetch_google_public_keys
FN:292,_RNvNtCskkwNnPUyuBS_8callisto14authentication33load_google_credentials_from_file
FN:310,_RNvNtCskkwNnPUyuBS_8callisto14authentication31load_authorized_users_from_file
FN:325,_RNvMs_NtCskkwNnPUyuBS_8callisto14authenticationNtB4_17MockAuthenticator3new
FN:389,_RNvXs1_NtCskkwNnPUyuBS_8callisto14authenticationNtB5_17TokenTimeoutErrorNtNtCs9f3LFPSIp77_4core3fmt7Display3fmt
FN:398,_RNvXs2_NtCskkwNnPUyuBS_8callisto14authenticationNtB5_15InvalidKeyErrorNtNtCs9f3LFPSIp77_4core3fmt7Display3fmt
FN:409,_RNvXs4_NtCskkwNnPUyuBS_8callisto14authenticationNtB5_21UnauthorizedUserErrorNtNtCs9f3LFPSIp77_4core3fmt7Display3fmt
FN:108,_RNvXs6_NtCskkwNnPUyuBS_8callisto14authenticationNtB5_19GoogleAuthenticatorNtB5_13Authenticator14get_web_server
FN:244,_RNvXs6_NtCskkwNnPUyuBS_8callisto14authenticationNtB5_19GoogleAuthenticatorNtB5_13Authenticator17authenticate_user
FN:250,_RNvXs6_NtCskkwNnPUyuBS_8callisto14authenticationNtB5_19GoogleAuthenticatorNtB5_13Authenticator20validate_session_key
FN:289,_RNvXs6_NtCskkwNnPUyuBS_8callisto14authenticationNtB5_19GoogleAuthenticatorNtB5_13Authenticator19check_authorization
FN:335,_RNvXs7_NtCskkwNnPUyuBS_8callisto14authenticationNtB5_17MockAuthenticatorNtB5_13Authenticator14get_web_server
FN:350,_RNvXs7_NtCskkwNnPUyuBS_8callisto14authenticationNtB5_17MockAuthenticatorNtB5_13Authenticator17authenticate_user
FN:352,_RNvXs7_NtCskkwNnPUyuBS_8callisto14authenticationNtB5_17MockAuthenticatorNtB5_13Authenticator20validate_session_key
FN:378,_RNvXs7_NtCskkwNnPUyuBS_8callisto14authenticationNtB5_17MockAuthenticatorNtB5_13Authenticator19check_authorization
FN:417,_RNvXNvXNvNtCskkwNnPUyuBS_8callisto14authentications_1__NtB7_12GoogleClaimsNtNtCs8pDKiTx8cJZ_5serde2de11Deserialize11deserializeNtB2_14___FieldVisitorNtB1c_7Visitor9expecting
FN:417,_RNvXs0_NvXNvNtCskkwNnPUyuBS_8callisto14authentications_1__NtBa_12GoogleClaimsNtNtCs8pDKiTx8cJZ_5serde2de11Deserialize11deserializeNtB5_9___VisitorNtB1f_7Visitor9expecting
FN:429,_RNvXNvXNvNtCskkwNnPUyuBS_8callisto14authentications1_1__NtB7_18GoogleTokenRequestNtNtCs8pDKiTx8cJZ_5serde2de11Deserialize11deserializeNtB2_14___FieldVisitorNtB1j_7Visitor9expecting
FN:429,_RNvXs0_NvXNvNtCskkwNnPUyuBS_8callisto14authentications1_1__NtBa_18GoogleTokenRequestNtNtCs8pDKiTx8cJZ_5serde2de11Deserialize11deserializeNtB5_9___VisitorNtB1m_7Visitor9expecting
FN:438,_RNvXNvXNvNtCskkwNnPUyuBS_8callisto14authentications3_1__NtB7_19GoogleTokenResponseNtNtCs8pDKiTx8cJZ_5serde2de11Deserialize11deserializeNtB2_14___FieldVisitorNtB1k_7Visitor9expecting
FN:438,_RNvXs0_NvXNvNtCskkwNnPUyuBS_8callisto14authentications3_1__NtBa_19GoogleTokenResponseNtNtCs8pDKiTx8cJZ_5serde2de11Deserialize11deserializeNtB5_9___VisitorNtB1n_7Visitor9expecting
FN:448,_RNvXNvXNvNtCskkwNnPUyuBS_8callisto14authentications4_1__NtB7_16GooglePublicKeysNtNtCs8pDKiTx8cJZ_5serde2de11Deserialize11deserializeNtB2_14___FieldVisitorNtB1h_7Visitor9expecting
FN:448,_RNvXs0_NvXNvNtCskkwNnPUyuBS_8callisto14authentications4_1__NtBa_16GooglePublicKeysNtNtCs8pDKiTx8cJZ_5serde2de11Deserialize11deserializeNtB5_9___VisitorNtB1k_7Visitor9expecting
FN:453,_RNvXNvXNvNtCskkwNnPUyuBS_8callisto14authentications5_1__NtB7_15GooglePublicKeyNtNtCs8pDKiTx8cJZ_5serde2de11Deserialize11deserializeNtB2_14___FieldVisitorNtB1g_7Visitor9expecting
FN:453,_RNvXs0_NvXNvNtCskkwNnPUyuBS_8callisto14authentications5_1__NtBa_15GooglePublicKeyNtNtCs8pDKiTx8cJZ_5serde2de11Deserialize11deserializeNtB5_9___VisitorNtB1j_7Visitor9expecting
FN:461,_RNvXNvXNvNtCskkwNnPUyuBS_8callisto14authentications6_1__NtB7_17GoogleCredentialsNtNtCs8pDKiTx8cJZ_5serde2de11Deserialize11deserializeNtB2_14___FieldVisitorNtB1i_7Visitor9expecting
FN:461,_RNvXs0_NvXNvNtCskkwNnPUyuBS_8callisto14authentications6_1__NtBa_17GoogleCredentialsNtNtCs8pDKiTx8cJZ_5serde2de11Deserialize11deserializeNtB5_9___VisitorNtB1l_7Visitor9expecting
FN:472,_RNvXNvXNvNtCskkwNnPUyuBS_8callisto14authentications7_1__NtB7_15GoogleCredsJsonNtNtCs8pDKiTx8cJZ_5serde2de11Deserialize11deserializeNtB2_14___FieldVisitorNtB1g_7Visitor9expecting
FN:472,_RNvXs0_NvXNvNtCskkwNnPUyuBS_8callisto14authentications7_1__NtBa_15GoogleCredsJsonNtNtCs8pDKiTx8cJZ_5serde2de11Deserialize11deserializeNtB5_9___VisitorNtB1j_7Visitor9expecting
FN:293,_RNCNvNtCskkwNnPUyuBS_8callisto14authentication33load_google_credentials_from_file0B5_
FN:300,_RNCNvNtCskkwNnPUyuBS_8callisto14authentication33load_google_credentials_from_files_0B5_
FN:115,_RNCNvXs6_NtCskkwNnPUyuBS_8callisto14authenticationNtB7_19GoogleAuthenticatorNtB7_13Authenticator17authenticate_user0B9_
FN:150,_RNCNCNvXs6_NtCskkwNnPUyuBS_8callisto14authenticationNtB9_19GoogleAuthenticatorNtB9_13Authenticator17authenticate_user00Bb_
FN:158,_RNCNCNvXs6_NtCskkwNnPUyuBS_8callisto14authenticationNtB9_19GoogleAuthenticatorNtB9_13Authenticator17authenticate_user0s_0Bb_
FN:168,_RNCNCNvXs6_NtCskkwNnPUyuBS_8callisto14authenticationNtB9_19GoogleAuthenticatorNtB9_13Authenticator17authenticate_user0s0_0Bb_
FN:174,_RNCNCNvXs6_NtCskkwNnPUyuBS_8callisto14authenticationNtB9_19GoogleAuthenticatorNtB9_13Authenticator17authenticate_user0s1_0Bb_
FN:185,_RNCNCNvXs6_NtCskkwNnPUyuBS_8callisto14authenticationNtB9_19GoogleAuthenticatorNtB9_13Authenticator17authenticate_user0s2_0Bb_
FN:261,_RNCNvXs6_NtCskkwNnPUyuBS_8callisto14authenticationNtB7_19GoogleAuthenticatorNtB7_13Authenticator19check_authorization0B9_
FN:270,_RNCNCNvXs6_NtCskkwNnPUyuBS_8callisto14authenticationNtB9_19GoogleAuthenticatorNtB9_13Authenticator19check_authorization00Bb_
FN:342,_RNCNvXs7_NtCskkwNnPUyuBS_8callisto14authenticationNtB7_17MockAuthenticatorNtB7_13Authenticator17authenticate_user0B9_
FN:369,_RNCNvXs7_NtCskkwNnPUyuBS_8callisto14authenticationNtB7_17MockAuthenticatorNtB7_13Authenticator19check_authorization0B9_
FN:374,_RNCNCNvXs7_NtCskkwNnPUyuBS_8callisto14authenticationNtB9_17MockAuthenticatorNtB9_13Authenticator19check_authorization00Bb_
FN:417,_RINvXNvXNvNtCskkwNnPUyuBS_8callisto14authentications_1__NtB8_12GoogleClaimsNtNtCs8pDKiTx8cJZ_5serde2de11Deserialize11deserializeNtB3_14___FieldVisitorNtB1d_7Visitor9visit_strNtNtCse3EK68OXEkC_10serde_json5error5ErrorEBa_
FN:417,_RINvXs_NvXNvNtCskkwNnPUyuBS_8callisto14authentications_1__NtBa_12GoogleClaimsNtNtCs8pDKiTx8cJZ_5serde2de11Deserialize11deserializeNtB5_7___FieldB1d_11deserializeINtNtCse3EK68OXEkC_10serde_json2de6MapKeyNtNtB2E_4read9SliceReadEEBc_
FN:417,_RINvXs0_NvXNvNtCskkwNnPUyuBS_8callisto14authentications_1__NtBb_12GoogleClaimsNtNtCs8pDKiTx8cJZ_5serde2de11Deserialize11deserializeNtB6_9___VisitorNtB1g_7Visitor9visit_seqINtNtCse3EK68OXEkC_10serde_json2de9SeqAccessNtNtB2O_4read9SliceReadEEBd_
FN:417,_RINvXs0_NvXNvNtCskkwNnPUyuBS_8callisto14authentications_1__NtBb_12GoogleClaimsNtNtCs8pDKiTx8cJZ_5serde2de11Deserialize11deserializeNtB6_9___VisitorNtB1g_7Visitor9visit_mapINtNtCse3EK68OXEkC_10serde_json2de9MapAccessNtNtB2O_4read9SliceReadEEBd_
FN:438,_RINvXNvXNvNtCskkwNnPUyuBS_8callisto14authentications3_1__NtB8_19GoogleTokenResponseNtNtCs8pDKiTx8cJZ_5serde2de11Deserialize11deserializeNtB3_14___FieldVisitorNtB1l_7Visitor9visit_strNtNtCse3EK68OXEkC_10serde_json5error5ErrorEBa_
FN:438,_RINvXs_NvXNvNtCskkwNnPUyuBS_8callisto14authentications3_1__NtBa_19GoogleTokenResponseNtNtCs8pDKiTx8cJZ_5serde2de11Deserialize11deserializeNtB5_7___FieldB1l_11deserializeINtNtCse3EK68OXEkC_10serde_json2de6MapKeyNtNtB2M_4read7StrReadEEBc_
FN:438,_RINvXs0_NvXNvNtCskkwNnPUyuBS_8callisto14authentications3_1__NtBb_19GoogleTokenResponseNtNtCs8pDKiTx8cJZ_5serde2de11Deserialize11deserializeNtB6_9___VisitorNtB1o_7Visitor9visit_seqINtNtCse3EK68OXEkC_10serde_json2de9SeqAccessNtNtB2W_4read7StrReadEEBd_
FN:438,_RINvXs0_NvXNvNtCskkwNnPUyuBS_8callisto14authentications3_1__NtBb_19GoogleTokenResponseNtNtCs8pDKiTx8cJZ_5serde2de11Deserialize11deserializeNtB6_9___VisitorNtB1o_7Visitor9visit_mapINtNtCse3EK68OXEkC_10serde_json2de9MapAccessNtNtB2W_4read7StrReadEEBd_
FN:461,_RINvXNvXNvNtCskkwNnPUyuBS_8callisto14authentications6_1__NtB8_17GoogleCredentialsNtNtCs8pDKiTx8cJZ_5serde2de11Deserialize11deserializeNtB3_14___FieldVisitorNtB1j_7Visitor9visit_strNtNtCse3EK68OXEkC_10serde_json5error5ErrorEBa_
FN:461,_RINvXs_NvXNvNtCskkwNnPUyuBS_8callisto14authentications6_1__NtBa_17GoogleCredentialsNtNtCs8pDKiTx8cJZ_5serde2de11Deserialize11deserializeNtB5_7___FieldB1j_11deserializeINtNtCse3EK68OXEkC_10serde_json2de6MapKeyINtNtB2K_4read6IoReadINtNtNtNtCs27l1GJC5rMQ_3std2io8buffered9bufreader9BufReaderNtNtB3O_2fs4FileEEEEBc_
FN:461,_RINvXs0_NvXNvNtCskkwNnPUyuBS_8callisto14authentications6_1__NtBb_17GoogleCredentialsNtNtCs8pDKiTx8cJZ_5serde2de11Deserialize11deserializeNtB6_9___VisitorNtB1m_7Visitor9visit_seqINtNtCse3EK68OXEkC_10serde_json2de9SeqAccessINtNtB2U_4read6IoReadINtNtNtNtCs27l1GJC5rMQ_3std2io8buffered9bufreader9BufReaderNtNtB41_2fs4FileEEEEBd_
FN:461,_RINvXs0_NvXNvNtCskkwNnPUyuBS_8callisto14authentications6_1__NtBb_17GoogleCredentialsNtNtCs8pDKiTx8cJZ_5serde2de11Deserialize11deserializeNtB6_9___VisitorNtB1m_7Visitor9visit_mapINtNtCse3EK68OXEkC_10serde_json2de9MapAccessINtNtB2U_4read6IoReadINtNtNtNtCs27l1GJC5rMQ_3std2io8buffered9bufreader9BufReaderNtNtB41_2fs4FileEEEEBd_
FN:472,_RINvXNvXNvNtCskkwNnPUyuBS_8callisto14authentications7_1__NtB8_15GoogleCredsJsonNtNtCs8pDKiTx8cJZ_5serde2de11Deserialize11deserializeNtB3_14___FieldVisitorNtB1h_7Visitor9visit_strNtNtCse3EK68OXEkC_10serde_json5error5ErrorEBa_
FN:472,_RINvXs_NvXNvNtCskkwNnPUyuBS_8callisto14authentications7_1__NtBa_15GoogleCredsJsonNtNtCs8pDKiTx8cJZ_5serde2de11Deserialize11deserializeNtB5_7___FieldB1h_11deserializeINtNtCse3EK68OXEkC_10serde_json2de6MapKeyINtNtB2I_4read6IoReadINtNtNtNtCs27l1GJC5rMQ_3std2io8buffered9bufreader9BufReaderNtNtB3M_2fs4FileEEEEBc_
FN:472,_RINvXs0_NvXNvNtCskkwNnPUyuBS_8callisto14authentications7_1__NtBb_15GoogleCredsJsonNtNtCs8pDKiTx8cJZ_5serde2de11Deserialize11deserializeNtB6_9___VisitorNtB1k_7Visitor9visit_seqINtNtCse3EK68OXEkC_10serde_json2de9SeqAccessINtNtB2S_4read6IoReadINtNtNtNtCs27l1GJC5rMQ_3std2io8buffered9bufreader9BufReaderNtNtB3Z_2fs4FileEEEEBd_
FN:472,_RINvXs0_NvXNvNtCskkwNnPUyuBS_8callisto14authentications7_1__NtBb_15GoogleCredsJsonNtNtCs8pDKiTx8cJZ_5serde2de11Deserialize11deserializeNtB6_9___VisitorNtB1k_7Visitor9visit_mapINtNtCse3EK68OXEkC_10serde_json2de9MapAccessINtNtB2S_4read6IoReadINtNtNtNtCs27l1GJC5rMQ_3std2io8buffered9bufreader9BufReaderNtNtB3Z_2fs4FileEEEEBd_
FN:56,_RNCNvMNtCskkwNnPUyuBS_8callisto14authenticationNtB4_19GoogleAuthenticator3new0B6_
FN:57,_RNCNCNvMNtCskkwNnPUyuBS_8callisto14authenticationNtB6_19GoogleAuthenticator3new00B8_
FN:80,_RNCNvMNtCskkwNnPUyuBS_8callisto14authenticationNtB4_19GoogleAuthenticator24fetch_google_public_keys0B6_
FN:95,_RNCNCNvMNtCskkwNnPUyuBS_8callisto14authenticationNtB6_19GoogleAuthenticator24fetch_google_public_keys00B8_
FN:312,_RNCNvNtCskkwNnPUyuBS_8callisto14authentication31load_authorized_users_from_file0B5_
FN:315,_RNCNCNvNtCskkwNnPUyuBS_8callisto14authentication31load_authorized_users_from_file00B7_
FN:325,_RNCNvMs_NtCskkwNnPUyuBS_8callisto14authenticationNtB6_17MockAuthenticator3new0B8_
FN:417,_RINvXNvXNvNtCskkwNnPUyuBS_8callisto14authentications_1__NtB8_12GoogleClaimsNtNtCs8pDKiTx8cJZ_5serde2de11Deserialize11deserializeNtB3_14___FieldVisitorNtB1d_7Visitor9visit_u64pEBa_
FN:417,_RINvXNvXNvNtCskkwNnPUyuBS_8callisto14authentications_1__NtB8_12GoogleClaimsNtNtCs8pDKiTx8cJZ_5serde2de11Deserialize11deserializeNtB3_14___FieldVisitorNtB1d_7Visitor11visit_bytespEBa_
FN:429,_RINvXNvXNvNtCskkwNnPUyuBS_8callisto14authentications1_1__NtB8_18GoogleTokenRequestNtNtCs8pDKiTx8cJZ_5serde2de11Deserialize11deserializeNtB3_14___FieldVisitorNtB1k_7Visitor9visit_u64pEBa_
FN:429,_RINvXNvXNvNtCskkwNnPUyuBS_8callisto14authentications1_1__NtB8_18GoogleTokenRequestNtNtCs8pDKiTx8cJZ_5serde2de11Deserialize11deserializeNtB3_14___FieldVisitorNtB1k_7Visitor9visit_strpEBa_
FN:429,_RINvXNvXNvNtCskkwNnPUyuBS_8callisto14authentications1_1__NtB8_18GoogleTokenRequestNtNtCs8pDKiTx8cJZ_5serde2de11Deserialize11deserializeNtB3_14___FieldVisitorNtB1k_7Visitor11visit_bytespEBa_
FN:429,_RINvXs_NvXNvNtCskkwNnPUyuBS_8callisto14authentications1_1__NtBa_18GoogleTokenRequestNtNtCs8pDKiTx8cJZ_5serde2de11Deserialize11deserializeNtB5_7___FieldB1k_11deserializepEBc_
FN:429,_RINvXs0_NvXNvNtCskkwNnPUyuBS_8callisto14authentications1_1__NtBb_18GoogleTokenRequestNtNtCs8pDKiTx8cJZ_5serde2de11Deserialize11deserializeNtB6_9___VisitorNtB1n_7Visitor9visit_seqpEBd_
FN:429,_RINvXs0_NvXNvNtCskkwNnPUyuBS_8callisto14authentications1_1__NtBb_18GoogleTokenRequestNtNtCs8pDKiTx8cJZ_5serde2de11Deserialize11deserializeNtB6_9___VisitorNtB1n_7Visitor9visit_mappEBd_
FN:438,_RINvXNvXNvNtCskkwNnPUyuBS_8callisto14authentications3_1__NtB8_19GoogleTokenResponseNtNtCs8pDKiTx8cJZ_5serde2de11Deserialize11deserializeNtB3_14___FieldVisitorNtB1l_7Visitor9visit_u64pEBa_
FN:438,_RINvXNvXNvNtCskkwNnPUyuBS_8callisto14authentications3_1__NtB8_19GoogleTokenResponseNtNtCs8pDKiTx8cJZ_5serde2de11Deserialize11deserializeNtB3_14___FieldVisitorNtB1l_7Visitor11visit_bytespEBa_
FN:448,_RINvXNvXNvNtCskkwNnPUyuBS_8callisto14authentications4_1__NtB8_16GooglePublicKeysNtNtCs8pDKiTx8cJZ_5serde2de11Deserialize11deserializeNtB3_14___FieldVisitorNtB1i_7Visitor9visit_u64pEBa_
FN:448,_RINvXNvXNvNtCskkwNnPUyuBS_8callisto14authentications4_1__NtB8_16GooglePublicKeysNtNtCs8pDKiTx8cJZ_5serde2de11Deserialize11deserializeNtB3_14___FieldVisitorNtB1i_7Visitor9visit_strpEBa_
FN:448,_RINvXNvXNvNtCskkwNnPUyuBS_8callisto14authentications4_1__NtB8_16GooglePublicKeysNtNtCs8pDKiTx8cJZ_5serde2de11Deserialize11deserializeNtB3_14___FieldVisitorNtB1i_7Visitor11visit_bytespEBa_
FN:448,_RINvXs_NvXNvNtCskkwNnPUyuBS_8callisto14authentications4_1__NtBa_16GooglePublicKeysNtNtCs8pDKiTx8cJZ_5serde2de11Deserialize11deserializeNtB5_7___FieldB1i_11deserializepEBc_
FN:448,_RINvXs0_NvXNvNtCskkwNnPUyuBS_8callisto14authentications4_1__NtBb_16GooglePublicKeysNtNtCs8pDKiTx8cJZ_5serde2de11Deserialize11deserializeNtB6_9___VisitorNtB1l_7Visitor9visit_seqpEBd_
FN:448,_RINvXs0_NvXNvNtCskkwNnPUyuBS_8callisto14authentications4_1__NtBb_16GooglePublicKeysNtNtCs8pDKiTx8cJZ_5serde2de11Deserialize11deserializeNtB6_9___VisitorNtB1l_7Visitor9visit_mappEBd_
FN:453,_RINvXNvXNvNtCskkwNnPUyuBS_8callisto14authentications5_1__NtB8_15GooglePublicKeyNtNtCs8pDKiTx8cJZ_5serde2de11Deserialize11deserializeNtB3_14___FieldVisitorNtB1h_7Visitor9visit_u64pEBa_
FN:453,_RINvXNvXNvNtCskkwNnPUyuBS_8callisto14authentications5_1__NtB8_15GooglePublicKeyNtNtCs8pDKiTx8cJZ_5serde2de11Deserialize11deserializeNtB3_14___FieldVisitorNtB1h_7Visitor9visit_strpEBa_
FN:453,_RINvXNvXNvNtCskkwNnPUyuBS_8callisto14authentications5_1__NtB8_15GooglePublicKeyNtNtCs8pDKiTx8cJZ_5serde2de11Deserialize11deserializeNtB3_14___FieldVisitorNtB1h_7Visitor11visit_bytespEBa_
FN:453,_RINvXs_NvXNvNtCskkwNnPUyuBS_8callisto14authentications5_1__NtBa_15GooglePublicKeyNtNtCs8pDKiTx8cJZ_5serde2de11Deserialize11deserializeNtB5_7___FieldB1h_11deserializepEBc_
FN:453,_RINvXs0_NvXNvNtCskkwNnPUyuBS_8callisto14authentications5_1__NtBb_15GooglePublicKeyNtNtCs8pDKiTx8cJZ_5serde2de11Deserialize11deserializeNtB6_9___VisitorNtB1k_7Visitor9visit_seqpEBd_
FN:453,_RINvXs0_NvXNvNtCskkwNnPUyuBS_8callisto14authentications5_1__NtBb_15GooglePublicKeyNtNtCs8pDKiTx8cJZ_5serde2de11Deserialize11deserializeNtB6_9___VisitorNtB1k_7Visitor9visit_mappEBd_
FN:461,_RINvXNvXNvNtCskkwNnPUyuBS_8callisto14authentications6_1__NtB8_17GoogleCredentialsNtNtCs8pDKiTx8cJZ_5serde2de11Deserialize11deserializeNtB3_14___FieldVisitorNtB1j_7Visitor9visit_u64pEBa_
FN:461,_RINvXNvXNvNtCskkwNnPUyuBS_8callisto14authentications6_1__NtB8_17GoogleCredentialsNtNtCs8pDKiTx8cJZ_5serde2de11Deserialize11deserializeNtB3_14___FieldVisitorNtB1j_7Visitor11visit_bytespEBa_
FN:472,_RINvXNvXNvNtCskkwNnPUyuBS_8callisto14authentications7_1__NtB8_15GoogleCredsJsonNtNtCs8pDKiTx8cJZ_5serde2de11Deserialize11deserializeNtB3_14___FieldVisitorNtB1h_7Visitor9visit_u64pEBa_
FN:472,_RINvXNvXNvNtCskkwNnPUyuBS_8callisto14authentications7_1__NtB8_15GoogleCredsJsonNtNtCs8pDKiTx8cJZ_5serde2de11Deserialize11deserializeNtB3_14___FieldVisitorNtB1h_7Visitor11visit_bytespEBa_
FN:482,_RNCNvNtNtCscBGMVToPeRm_8callisto14authentication5testss_23test_mock_authenticator0B7_
FN:108,_RNvXs6_NtCscBGMVToPeRm_8callisto14authenticationNtB5_19GoogleAuthenticatorNtB5_13Authenticator14get_web_server
FN:244,_RNvXs6_NtCscBGMVToPeRm_8callisto14authenticationNtB5_19GoogleAuthenticatorNtB5_13Authenticator17authenticate_user
FN:115,_RNCNvXs6_NtCscBGMVToPeRm_8callisto14authenticationNtB7_19GoogleAuthenticatorNtB7_13Authenticator17authenticate_user0B9_
FN:150,_RNCNCNvXs6_NtCscBGMVToPeRm_8callisto14authenticationNtB9_19GoogleAuthenticatorNtB9_13Authenticator17authenticate_user00Bb_
FN:158,_RNCNCNvXs6_NtCscBGMVToPeRm_8callisto14authenticationNtB9_19GoogleAuthenticatorNtB9_13Authenticator17authenticate_user0s_0Bb_
FN:168,_RNCNCNvXs6_NtCscBGMVToPeRm_8callisto14authenticationNtB9_19GoogleAuthenticatorNtB9_13Authenticator17authenticate_user0s0_0Bb_
FN:174,_RNCNCNvXs6_NtCscBGMVToPeRm_8callisto14authenticationNtB9_19GoogleAuthenticatorNtB9_13Authenticator17authenticate_user0s1_0Bb_
FN:185,_RNCNCNvXs6_NtCscBGMVToPeRm_8callisto14authenticationNtB9_19GoogleAuthenticatorNtB9_13Authenticator17authenticate_user0s2_0Bb_
FN:250,_RNvXs6_NtCscBGMVToPeRm_8callisto14authenticationNtB5_19GoogleAuthenticatorNtB5_13Authenticator20validate_session_key
FN:289,_RNvXs6_NtCscBGMVToPeRm_8callisto14authenticationNtB5_19GoogleAuthenticatorNtB5_13Authenticator19check_authorization
FN:261,_RNCNvXs6_NtCscBGMVToPeRm_8callisto14authenticationNtB7_19GoogleAuthenticatorNtB7_13Authenticator19check_authorization0B9_
FN:270,_RNCNCNvXs6_NtCscBGMVToPeRm_8callisto14authenticationNtB9_19GoogleAuthenticatorNtB9_13Authenticator19check_authorization00Bb_
FN:389,_RNvXs1_NtCscBGMVToPeRm_8callisto14authenticationNtB5_17TokenTimeoutErrorNtNtCs9f3LFPSIp77_4core3fmt7Display3fmt
FN:398,_RNvXs2_NtCscBGMVToPeRm_8callisto14authenticationNtB5_15InvalidKeyErrorNtNtCs9f3LFPSIp77_4core3fmt7Display3fmt
FN:409,_RNvXs4_NtCscBGMVToPeRm_8callisto14authenticationNtB5_21UnauthorizedUserErrorNtNtCs9f3LFPSIp77_4core3fmt7Display3fmt
FN:417,_RNvXNvXNvNtCscBGMVToPeRm_8callisto14authentications_1__NtB7_12GoogleClaimsNtNtCs8pDKiTx8cJZ_5serde2de11Deserialize11deserializeNtB2_14___FieldVisitorNtB1c_7Visitor9expecting
FN:417,_RINvXNvXNvNtCscBGMVToPeRm_8callisto14authentications_1__NtB8_12GoogleClaimsNtNtCs8pDKiTx8cJZ_5serde2de11Deserialize11deserializeNtB3_14___FieldVisitorNtB1d_7Visitor9visit_u64pEBa_
FN:417,_RINvXNvXNvNtCscBGMVToPeRm_8callisto14authentications_1__NtB8_12GoogleClaimsNtNtCs8pDKiTx8cJZ_5serde2de11Deserialize11deserializeNtB3_14___FieldVisitorNtB1d_7Visitor9visit_strpEBa_
FN:417,_RINvXNvXNvNtCscBGMVToPeRm_8callisto14authentications_1__NtB8_12GoogleClaimsNtNtCs8pDKiTx8cJZ_5serde2de11Deserialize11deserializeNtB3_14___FieldVisitorNtB1d_7Visitor11visit_bytespEBa_
FN:417,_RINvXs_NvXNvNtCscBGMVToPeRm_8callisto14authentications_1__NtBa_12GoogleClaimsNtNtCs8pDKiTx8cJZ_5serde2de11Deserialize11deserializeNtB5_7___FieldB1d_11deserializepEBc_
FN:417,_RNvXs0_NvXNvNtCscBGMVToPeRm_8callisto14authentications_1__NtBa_12GoogleClaimsNtNtCs8pDKiTx8cJZ_5serde2de11Deserialize11deserializeNtB5_9___VisitorNtB1f_7Visitor9expecting
FN:417,_RINvXs0_NvXNvNtCscBGMVToPeRm_8callisto14authentications_1__NtBb_12GoogleClaimsNtNtCs8pDKiTx8cJZ_5serde2de11Deserialize11deserializeNtB6_9___VisitorNtB1g_7Visitor9visit_seqpEBd_
FN:417,_RINvXs0_NvXNvNtCscBGMVToPeRm_8callisto14authentications_1__NtBb_12GoogleClaimsNtNtCs8pDKiTx8cJZ_5serde2de11Deserialize11deserializeNtB6_9___VisitorNtB1g_7Visitor9visit_mappEBd_
FN:429,_RNvXNvXNvNtCscBGMVToPeRm_8callisto14authentications1_1__NtB7_18GoogleTokenRequestNtNtCs8pDKiTx8cJZ_5serde2de11Deserialize11deserializeNtB2_14___FieldVisitorNtB1j_7Visitor9expecting
FN:429,_RINvXNvXNvNtCscBGMVToPeRm_8callisto14authentications1_1__NtB8_18GoogleTokenRequestNtNtCs8pDKiTx8cJZ_5serde2de11Deserialize11deserializeNtB3_14___FieldVisitorNtB1k_7Visitor9visit_u64pEBa_
FN:429,_RINvXNvXNvNtCscBGMVToPeRm_8callisto14authentications1_1__NtB8_18GoogleTokenRequestNtNtCs8pDKiTx8cJZ_5serde2de11Deserialize11deserializeNtB3_14___FieldVisitorNtB1k_7Visitor9visit_strpEBa_
FN:429,_RINvXNvXNvNtCscBGMVToPeRm_8callisto14authentications1_1__NtB8_18GoogleTokenRequestNtNtCs8pDKiTx8cJZ_5serde2de11Deserialize11deserializeNtB3_14___FieldVisitorNtB1k_7Visitor11visit_bytespEBa_
FN:429,_RINvXs_NvXNvNtCscBGMVToPeRm_8callisto14authentications1_1__NtBa_18GoogleTokenRequestNtNtCs8pDKiTx8cJZ_5serde2de11Deserialize11deserializeNtB5_7___FieldB1k_11deserializepEBc_
FN:429,_RNvXs0_NvXNvNtCscBGMVToPeRm_8callisto14authentications1_1__NtBa_18GoogleTokenRequestNtNtCs8pDKiTx8cJZ_5serde2de11Deserialize11deserializeNtB5_9___VisitorNtB1m_7Visitor9expecting
FN:429,_RINvXs0_NvXNvNtCscBGMVToPeRm_8callisto14authentications1_1__NtBb_18GoogleTokenRequestNtNtCs8pDKiTx8cJZ_5serde2de11Deserialize11deserializeNtB6_9___VisitorNtB1n_7Visitor9visit_seqpEBd_
FN:429,_RINvXs0_NvXNvNtCscBGMVToPeRm_8callisto14authentications1_1__NtBb_18GoogleTokenRequestNtNtCs8pDKiTx8cJZ_5serde2de11Deserialize11deserializeNtB6_9___VisitorNtB1n_7Visitor9visit_mappEBd_
FN:438,_RNvXNvXNvNtCscBGMVToPeRm_8callisto14authentications3_1__NtB7_19GoogleTokenResponseNtNtCs8pDKiTx8cJZ_5serde2de11Deserialize11deserializeNtB2_14___FieldVisitorNtB1k_7Visitor9expecting
FN:438,_RINvXNvXNvNtCscBGMVToPeRm_8callisto14authentications3_1__NtB8_19GoogleTokenResponseNtNtCs8pDKiTx8cJZ_5serde2de11Deserialize11deserializeNtB3_14___FieldVisitorNtB1l_7Visitor9visit_u64pEBa_
FN:438,_RINvXNvXNvNtCscBGMVToPeRm_8callisto14authentications3_1__NtB8_19GoogleTokenResponseNtNtCs8pDKiTx8cJZ_5serde2de11Deserialize11deserializeNtB3_14___FieldVisitorNtB1l_7Visitor9visit_strpEBa_
FN:438,_RINvXNvXNvNtCscBGMVToPeRm_8callisto14authentications3_1__NtB8_19GoogleTokenResponseNtNtCs8pDKiTx8cJZ_5serde2de11Deserialize11deserializeNtB3_14___FieldVisitorNtB1l_7Visitor11visit_bytespEBa_
FN:438,_RINvXs_NvXNvNtCscBGMVToPeRm_8callisto14authentications3_1__NtBa_19GoogleTokenResponseNtNtCs8pDKiTx8cJZ_5serde2de11Deserialize11deserializeNtB5_7___FieldB1l_11deserializepEBc_
FN:438,_RNvXs0_NvXNvNtCscBGMVToPeRm_8callisto14authentications3_1__NtBa_19GoogleTokenResponseNtNtCs8pDKiTx8cJZ_5serde2de11Deserialize11deserializeNtB5_9___VisitorNtB1n_7Visitor9expecting
FN:438,_RINvXs0_NvXNvNtCscBGMVToPeRm_8callisto14authentications3_1__NtBb_19GoogleTokenResponseNtNtCs8pDKiTx8cJZ_5serde2de11Deserialize11deserializeNtB6_9___VisitorNtB1o_7Visitor9visit_seqpEBd_
FN:438,_RINvXs0_NvXNvNtCscBGMVToPeRm_8callisto14authentications3_1__NtBb_19GoogleTokenResponseNtNtCs8pDKiTx8cJZ_5serde2de11Deserialize11deserializeNtB6_9___VisitorNtB1o_7Visitor9visit_mappEBd_
FN:448,_RNvXNvXNvNtCscBGMVToPeRm_8callisto14authentications4_1__NtB7_16GooglePublicKeysNtNtCs8pDKiTx8cJZ_5serde2de11Deserialize11deserializeNtB2_14___FieldVisitorNtB1h_7Visitor9expecting
FN:448,_RINvXNvXNvNtCscBGMVToPeRm_8callisto14authentications4_1__NtB8_16GooglePublicKeysNtNtCs8pDKiTx8cJZ_5serde2de11Deserialize11deserializeNtB3_14___FieldVisitorNtB1i_7Visitor9visit_u64pEBa_
FN:448,_RINvXNvXNvNtCscBGMVToPeRm_8callisto14authentications4_1__NtB8_16GooglePublicKeysNtNtCs8pDKiTx8cJZ_5serde2de11Deserialize11deserializeNtB3_14___FieldVisitorNtB1i_7Visitor11visit_bytespEBa_
FN:453,_RNvXNvXNvNtCscBGMVToPeRm_8callisto14authentications5_1__NtB7_15GooglePublicKeyNtNtCs8pDKiTx8cJZ_5serde2de11Deserialize11deserializeNtB2_14___FieldVisitorNtB1g_7Visitor9expecting
FN:453,_RINvXNvXNvNtCscBGMVToPeRm_8callisto14authentications5_1__NtB8_15GooglePublicKeyNtNtCs8pDKiTx8cJZ_5serde2de11Deserialize11deserializeNtB3_14___FieldVisitorNtB1h_7Visitor9visit_u64pEBa_
FN:453,_RINvXNvXNvNtCscBGMVToPeRm_8callisto14authentications5_1__NtB8_15GooglePublicKeyNtNtCs8pDKiTx8cJZ_5serde2de11Deserialize11deserializeNtB3_14___FieldVisitorNtB1h_7Visitor11visit_bytespEBa_
FN:461,_RNvXNvXNvNtCscBGMVToPeRm_8callisto14authentications6_1__NtB7_17GoogleCredentialsNtNtCs8pDKiTx8cJZ_5serde2de11Deserialize11deserializeNtB2_14___FieldVisitorNtB1i_7Visitor9expecting
FN:461,_RINvXNvXNvNtCscBGMVToPeRm_8callisto14authentications6_1__NtB8_17GoogleCredentialsNtNtCs8pDKiTx8cJZ_5serde2de11Deserialize11deserializeNtB3_14___FieldVisitorNtB1j_7Visitor9visit_u64pEBa_
FN:461,_RINvXNvXNvNtCscBGMVToPeRm_8callisto14authentications6_1__NtB8_17GoogleCredentialsNtNtCs8pDKiTx8cJZ_5serde2de11Deserialize11deserializeNtB3_14___FieldVisitorNtB1j_7Visitor11visit_bytespEBa_
FN:472,_RNvXNvXNvNtCscBGMVToPeRm_8callisto14authentications7_1__NtB7_15GoogleCredsJsonNtNtCs8pDKiTx8cJZ_5serde2de11Deserialize11deserializeNtB2_14___FieldVisitorNtB1g_7Visitor9expecting
FN:472,_RINvXNvXNvNtCscBGMVToPeRm_8callisto14authentications7_1__NtB8_15GoogleCredsJsonNtNtCs8pDKiTx8cJZ_5serde2de11Deserialize11deserializeNtB3_14___FieldVisitorNtB1h_7Visitor9visit_u64pEBa_
FN:472,_RINvXNvXNvNtCscBGMVToPeRm_8callisto14authentications7_1__NtB8_15GoogleCredsJsonNtNtCs8pDKiTx8cJZ_5serde2de11Deserialize11deserializeNtB3_14___FieldVisitorNtB1h_7Visitor11visit_bytespEBa_
FN:56,_RNvMNtCscBGMVToPeRm_8callisto14authenticationNtB2_19GoogleAuthenticator3new
FN:80,_RNvMNtCscBGMVToPeRm_8callisto14authenticationNtB2_19GoogleAuthenticator24fetch_google_public_keys
FN:292,_RNvNtCscBGMVToPeRm_8callisto14authentication33load_google_credentials_from_file
FN:310,_RNvNtCscBGMVToPeRm_8callisto14authentication31load_authorized_users_from_file
FN:325,_RNvMs_NtCscBGMVToPeRm_8callisto14authenticationNtB4_17MockAuthenticator3new
FN:335,_RNvXs7_NtCscBGMVToPeRm_8callisto14authenticationNtB5_17MockAuthenticatorNtB5_13Authenticator14get_web_server
FN:350,_RNvXs7_NtCscBGMVToPeRm_8callisto14authenticationNtB5_17MockAuthenticatorNtB5_13Authenticator17authenticate_user
FN:352,_RNvXs7_NtCscBGMVToPeRm_8callisto14authenticationNtB5_17MockAuthenticatorNtB5_13Authenticator20validate_session_key
FN:378,_RNvXs7_NtCscBGMVToPeRm_8callisto14authenticationNtB5_17MockAuthenticatorNtB5_13Authenticator19check_authorization
FN:448,_RNvXs0_NvXNvNtCscBGMVToPeRm_8callisto14authentications4_1__NtBa_16GooglePublicKeysNtNtCs8pDKiTx8cJZ_5serde2de11Deserialize11deserializeNtB5_9___VisitorNtB1k_7Visitor9expecting
FN:453,_RNvXs0_NvXNvNtCscBGMVToPeRm_8callisto14authentications5_1__NtBa_15GooglePublicKeyNtNtCs8pDKiTx8cJZ_5serde2de11Deserialize11deserializeNtB5_9___VisitorNtB1j_7Visitor9expecting
FN:461,_RNvXs0_NvXNvNtCscBGMVToPeRm_8callisto14authentications6_1__NtBa_17GoogleCredentialsNtNtCs8pDKiTx8cJZ_5serde2de11Deserialize11deserializeNtB5_9___VisitorNtB1l_7Visitor9expecting
FN:472,_RNvXs0_NvXNvNtCscBGMVToPeRm_8callisto14authentications7_1__NtBa_15GoogleCredsJsonNtNtCs8pDKiTx8cJZ_5serde2de11Deserialize11deserializeNtB5_9___VisitorNtB1j_7Visitor9expecting
FN:56,_RNCNvMNtCscBGMVToPeRm_8callisto14authenticationNtB4_19GoogleAuthenticator3new0B6_
FN:57,_RNCNCNvMNtCscBGMVToPeRm_8callisto14authenticationNtB6_19GoogleAuthenticator3new00B8_
FN:80,_RNCNvMNtCscBGMVToPeRm_8callisto14authenticationNtB4_19GoogleAuthenticator24fetch_google_public_keys0B6_
FN:95,_RNCNCNvMNtCscBGMVToPeRm_8callisto14authenticationNtB6_19GoogleAuthenticator24fetch_google_public_keys00B8_
FN:293,_RNCNvNtCscBGMVToPeRm_8callisto14authentication33load_google_credentials_from_file0B5_
FN:300,_RNCNvNtCscBGMVToPeRm_8callisto14authentication33load_google_credentials_from_files_0B5_
FN:312,_RNCNvNtCscBGMVToPeRm_8callisto14authentication31load_authorized_users_from_file0B5_
FN:315,_RNCNCNvNtCscBGMVToPeRm_8callisto14authentication31load_authorized_users_from_file00B7_
FN:325,_RNCNvMs_NtCscBGMVToPeRm_8callisto14authenticationNtB6_17MockAuthenticator3new0B8_
FN:342,_RNCNvXs7_NtCscBGMVToPeRm_8callisto14authenticationNtB7_17MockAuthenticatorNtB7_13Authenticator17authenticate_user0B9_
FN:369,_RNCNvXs7_NtCscBGMVToPeRm_8callisto14authenticationNtB7_17MockAuthenticatorNtB7_13Authenticator19check_authorization0B9_
FN:374,_RNCNCNvXs7_NtCscBGMVToPeRm_8callisto14authenticationNtB9_17MockAuthenticatorNtB9_13Authenticator19check_authorization00Bb_
FN:448,_RINvXNvXNvNtCscBGMVToPeRm_8callisto14authentications4_1__NtB8_16GooglePublicKeysNtNtCs8pDKiTx8cJZ_5serde2de11Deserialize11deserializeNtB3_14___FieldVisitorNtB1i_7Visitor9visit_strNtNtCse3EK68OXEkC_10serde_json5error5ErrorEBa_
FN:448,_RINvXs_NvXNvNtCscBGMVToPeRm_8callisto14authentications4_1__NtBa_16GooglePublicKeysNtNtCs8pDKiTx8cJZ_5serde2de11Deserialize11deserializeNtB5_7___FieldB1i_11deserializeINtNtCse3EK68OXEkC_10serde_json2de6MapKeyNtNtB2J_4read7StrReadEEBc_
FN:448,_RINvXs0_NvXNvNtCscBGMVToPeRm_8callisto14authentications4_1__NtBb_16GooglePublicKeysNtNtCs8pDKiTx8cJZ_5serde2de11Deserialize11deserializeNtB6_9___VisitorNtB1l_7Visitor9visit_seqINtNtCse3EK68OXEkC_10serde_json2de9SeqAccessNtNtB2T_4read7StrReadEEBd_
FN:448,_RINvXs0_NvXNvNtCscBGMVToPeRm_8callisto14authentications4_1__NtBb_16GooglePublicKeysNtNtCs8pDKiTx8cJZ_5serde2de11Deserialize11deserializeNtB6_9___VisitorNtB1l_7Visitor9visit_mapINtNtCse3EK68OXEkC_10serde_json2de9MapAccessNtNtB2T_4read7StrReadEEBd_
FN:453,_RINvXNvXNvNtCscBGMVToPeRm_8callisto14authentications5_1__NtB8_15GooglePublicKeyNtNtCs8pDKiTx8cJZ_5serde2de11Deserialize11deserializeNtB3_14___FieldVisitorNtB1h_7Visitor9visit_strNtNtCse3EK68OXEkC_10serde_json5error5ErrorEBa_
FN:453,_RINvXs_NvXNvNtCscBGMVToPeRm_8callisto14authentications5_1__NtBa_15GooglePublicKeyNtNtCs8pDKiTx8cJZ_5serde2de11Deserialize11deserializeNtB5_7___FieldB1h_11deserializeINtNtCse3EK68OXEkC_10serde_json2de6MapKeyNtNtB2I_4read7StrReadEEBc_
FN:453,_RINvXs0_NvXNvNtCscBGMVToPeRm_8callisto14authentications5_1__NtBb_15GooglePublicKeyNtNtCs8pDKiTx8cJZ_5serde2de11Deserialize11deserializeNtB6_9___VisitorNtB1k_7Visitor9visit_seqINtNtCse3EK68OXEkC_10serde_json2de9SeqAccessNtNtB2S_4read7StrReadEEBd_
FN:453,_RINvXs0_NvXNvNtCscBGMVToPeRm_8callisto14authentications5_1__NtBb_15GooglePublicKeyNtNtCs8pDKiTx8cJZ_5serde2de11Deserialize11deserializeNtB6_9___VisitorNtB1k_7Visitor9visit_mapINtNtCse3EK68OXEkC_10serde_json2de9MapAccessNtNtB2S_4read7StrReadEEBd_
FN:461,_RINvXNvXNvNtCscBGMVToPeRm_8callisto14authentications6_1__NtB8_17GoogleCredentialsNtNtCs8pDKiTx8cJZ_5serde2de11Deserialize11deserializeNtB3_14___FieldVisitorNtB1j_7Visitor9visit_strNtNtCse3EK68OXEkC_10serde_json5error5ErrorEBa_
FN:461,_RINvXs_NvXNvNtCscBGMVToPeRm_8callisto14authentications6_1__NtBa_17GoogleCredentialsNtNtCs8pDKiTx8cJZ_5serde2de11Deserialize11deserializeNtB5_7___FieldB1j_11deserializeINtNtCse3EK68OXEkC_10serde_json2de6MapKeyINtNtB2K_4read6IoReadINtNtNtNtCs27l1GJC5rMQ_3std2io8buffered9bufreader9BufReaderNtNtB3O_2fs4FileEEEEBc_
FN:461,_RINvXs0_NvXNvNtCscBGMVToPeRm_8callisto14authentications6_1__NtBb_17GoogleCredentialsNtNtCs8pDKiTx8cJZ_5serde2de11Deserialize11deserializeNtB6_9___VisitorNtB1m_7Visitor9visit_seqINtNtCse3EK68OXEkC_10serde_json2de9SeqAccessINtNtB2U_4read6IoReadINtNtNtNtCs27l1GJC5rMQ_3std2io8buffered9bufreader9BufReaderNtNtB41_2fs4FileEEEEBd_
FN:461,_RINvXs0_NvXNvNtCscBGMVToPeRm_8callisto14authentications6_1__NtBb_17GoogleCredentialsNtNtCs8pDKiTx8cJZ_5serde2de11Deserialize11deserializeNtB6_9___VisitorNtB1m_7Visitor9visit_mapINtNtCse3EK68OXEkC_10serde_json2de9MapAccessINtNtB2U_4read6IoReadINtNtNtNtCs27l1GJC5rMQ_3std2io8buffered9bufreader9BufReaderNtNtB41_2fs4FileEEEEBd_
FN:472,_RINvXNvXNvNtCscBGMVToPeRm_8callisto14authentications7_1__NtB8_15GoogleCredsJsonNtNtCs8pDKiTx8cJZ_5serde2de11Deserialize11deserializeNtB3_14___FieldVisitorNtB1h_7Visitor9visit_strNtNtCse3EK68OXEkC_10serde_json5error5ErrorEBa_
FN:472,_RINvXs_NvXNvNtCscBGMVToPeRm_8callisto14authentications7_1__NtBa_15GoogleCredsJsonNtNtCs8pDKiTx8cJZ_5serde2de11Deserialize11deserializeNtB5_7___FieldB1h_11deserializeINtNtCse3EK68OXEkC_10serde_json2de6MapKeyINtNtB2I_4read6IoReadINtNtNtNtCs27l1GJC5rMQ_3std2io8buffered9bufreader9BufReaderNtNtB3M_2fs4FileEEEEBc_
FN:472,_RINvXs0_NvXNvNtCscBGMVToPeRm_8callisto14authentications7_1__NtBb_15GoogleCredsJsonNtNtCs8pDKiTx8cJZ_5serde2de11Deserialize11deserializeNtB6_9___VisitorNtB1k_7Visitor9visit_seqINtNtCse3EK68OXEkC_10serde_json2de9SeqAccessINtNtB2S_4read6IoReadINtNtNtNtCs27l1GJC5rMQ_3std2io8buffered9bufreader9BufReaderNtNtB3Z_2fs4FileEEEEBd_
FN:472,_RINvXs0_NvXNvNtCscBGMVToPeRm_8callisto14authentications7_1__NtBb_15GoogleCredsJsonNtNtCs8pDKiTx8cJZ_5serde2de11Deserialize11deserializeNtB6_9___VisitorNtB1k_7Visitor9visit_mapINtNtCse3EK68OXEkC_10serde_json2de9MapAccessINtNtB2S_4read6IoReadINtNtNtNtCs27l1GJC5rMQ_3std2io8buffered9bufreader9BufReaderNtNtB3Z_2fs4FileEEEEBd_
FN:482,_RNvNtNtCscBGMVToPeRm_8callisto14authentication5testss_23test_mock_authenticator
FN:512,_RNvNtNtCscBGMVToPeRm_8callisto14authentication5testss_25test_bad_credentials_file
FN:512,_RNvNtNCNvNtNtCscBGMVToPeRm_8callisto14authentication5testss_25test_bad_credentials_file04init4init
FN:528,_RNvNtNtCscBGMVToPeRm_8callisto14authentication5testss_35test_load_authorized_users_from_gcs
FN:528,_RNvNtNCNvNtNtCscBGMVToPeRm_8callisto14authentication5testss_35test_load_authorized_users_from_gcs04init4init
FN:541,_RNvNtNtCscBGMVToPeRm_8callisto14authentication5testss_36test_load_authorized_users_from_file
FN:541,_RNvNtNCNvNtNtCscBGMVToPeRm_8callisto14authentication5testss_36test_load_authorized_users_from_file04init4init
FN:553,_RNvNtNtCscBGMVToPeRm_8callisto14authentication5testss_38test_load_google_credentials_from_file
FN:553,_RNvNtNCNvNtNtCscBGMVToPeRm_8callisto14authentication5testss_38test_load_google_credentials_from_file04init4init
FN:564,_RNvNtNtCscBGMVToPeRm_8callisto14authentication5testss_29test_fetch_google_public_keys
FN:564,_RNvNtNCNvNtNtCscBGMVToPeRm_8callisto14authentication5testss_29test_fetch_google_public_keys04init4init
FNDA:1,_RINvXNvXNvNtCskkwNnPUyuBS_8callisto14authentications4_1__NtB8_16GooglePublicKeysNtNtCs8pDKiTx8cJZ_5serde2de11Deserialize11deserializeNtB3_14___FieldVisitorNtB1i_7Visitor9visit_strNtNtCse3EK68OXEkC_10serde_json5error5ErrorECsj2r3Yn2CUPB_8callisto
FNDA:12,_RINvXNvXNvNtCskkwNnPUyuBS_8callisto14authentications5_1__NtB8_15GooglePublicKeyNtNtCs8pDKiTx8cJZ_5serde2de11Deserialize11deserializeNtB3_14___FieldVisitorNtB1h_7Visitor9visit_strNtNtCse3EK68OXEkC_10serde_json5error5ErrorECsj2r3Yn2CUPB_8callisto
FNDA:1,_RINvXs0_NvXNvNtCskkwNnPUyuBS_8callisto14authentications4_1__NtBb_16GooglePublicKeysNtNtCs8pDKiTx8cJZ_5serde2de11Deserialize11deserializeNtB6_9___VisitorNtB1l_7Visitor9visit_mapINtNtCse3EK68OXEkC_10serde_json2de9MapAccessNtNtB2T_4read7StrReadEECsj2r3Yn2CUPB_8callisto
FNDA:0,_RINvXs0_NvXNvNtCskkwNnPUyuBS_8callisto14authentications4_1__NtBb_16GooglePublicKeysNtNtCs8pDKiTx8cJZ_5serde2de11Deserialize11deserializeNtB6_9___VisitorNtB1l_7Visitor9visit_seqINtNtCse3EK68OXEkC_10serde_json2de9SeqAccessNtNtB2T_4read7StrReadEECsj2r3Yn2CUPB_8callisto
FNDA:2,_RINvXs0_NvXNvNtCskkwNnPUyuBS_8callisto14authentications5_1__NtBb_15GooglePublicKeyNtNtCs8pDKiTx8cJZ_5serde2de11Deserialize11deserializeNtB6_9___VisitorNtB1k_7Visitor9visit_mapINtNtCse3EK68OXEkC_10serde_json2de9MapAccessNtNtB2S_4read7StrReadEECsj2r3Yn2CUPB_8callisto
FNDA:0,_RINvXs0_NvXNvNtCskkwNnPUyuBS_8callisto14authentications5_1__NtBb_15GooglePublicKeyNtNtCs8pDKiTx8cJZ_5serde2de11Deserialize11deserializeNtB6_9___VisitorNtB1k_7Visitor9visit_seqINtNtCse3EK68OXEkC_10serde_json2de9SeqAccessNtNtB2S_4read7StrReadEECsj2r3Yn2CUPB_8callisto
FNDA:1,_RINvXs_NvXNvNtCskkwNnPUyuBS_8callisto14authentications4_1__NtBa_16GooglePublicKeysNtNtCs8pDKiTx8cJZ_5serde2de11Deserialize11deserializeNtB5_7___FieldB1i_11deserializeINtNtCse3EK68OXEkC_10serde_json2de6MapKeyNtNtB2J_4read7StrReadEECsj2r3Yn2CUPB_8callisto
FNDA:12,_RINvXs_NvXNvNtCskkwNnPUyuBS_8callisto14authentications5_1__NtBa_15GooglePublicKeyNtNtCs8pDKiTx8cJZ_5serde2de11Deserialize11deserializeNtB5_7___FieldB1h_11deserializeINtNtCse3EK68OXEkC_10serde_json2de6MapKeyNtNtB2I_4read7StrReadEECsj2r3Yn2CUPB_8callisto
FNDA:0,_RNCNCNvMNtCskkwNnPUyuBS_8callisto14authenticationNtB6_19GoogleAuthenticator24fetch_google_public_keys00Csj2r3Yn2CUPB_8callisto
FNDA:0,_RNCNCNvMNtCskkwNnPUyuBS_8callisto14authenticationNtB6_19GoogleAuthenticator3new00Csj2r3Yn2CUPB_8callisto
FNDA:0,_RNCNCNvNtCskkwNnPUyuBS_8callisto14authentication31load_authorized_users_from_file00Csj2r3Yn2CUPB_8callisto
FNDA:1,_RNCNvMNtCskkwNnPUyuBS_8callisto14authenticationNtB4_19GoogleAuthenticator24fetch_google_public_keys0Csj2r3Yn2CUPB_8callisto
FNDA:1,_RNCNvMNtCskkwNnPUyuBS_8callisto14authenticationNtB4_19GoogleAuthenticator3new0Csj2r3Yn2CUPB_8callisto
FNDA:16,_RNCNvMs_NtCskkwNnPUyuBS_8callisto14authenticationNtB6_17MockAuthenticator3new0Csj2r3Yn2CUPB_8callisto
FNDA:1,_RNCNvNtCskkwNnPUyuBS_8callisto14authentication31load_authorized_users_from_file0Csj2r3Yn2CUPB_8callisto
FNDA:1,_RNvMNtCskkwNnPUyuBS_8callisto14authenticationNtB2_19GoogleAuthenticator3new
FNDA:1,_RNvMNtCskkwNnPUyuBS_8callisto14authenticationNtB2_19GoogleAuthenticator24fetch_google_public_keys
FNDA:1,_RNvNtCskkwNnPUyuBS_8callisto14authentication33load_google_credentials_from_file
FNDA:1,_RNvNtCskkwNnPUyuBS_8callisto14authentication31load_authorized_users_from_file
FNDA:16,_RNvMs_NtCskkwNnPUyuBS_8callisto14authenticationNtB4_17MockAuthenticator3new
FNDA:0,_RNvXs1_NtCskkwNnPUyuBS_8callisto14authenticationNtB5_17TokenTimeoutErrorNtNtCs9f3LFPSIp77_4core3fmt7Display3fmt
FNDA:0,_RNvXs2_NtCskkwNnPUyuBS_8callisto14authenticationNtB5_15InvalidKeyErrorNtNtCs9f3LFPSIp77_4core3fmt7Display3fmt
FNDA:0,_RNvXs4_NtCskkwNnPUyuBS_8callisto14authenticationNtB5_21UnauthorizedUserErrorNtNtCs9f3LFPSIp77_4core3fmt7Display3fmt
FNDA:0,_RNvXs6_NtCskkwNnPUyuBS_8callisto14authenticationNtB5_19GoogleAuthenticatorNtB5_13Authenticator14get_web_server
FNDA:0,_RNvXs6_NtCskkwNnPUyuBS_8callisto14authenticationNtB5_19GoogleAuthenticatorNtB5_13Authenticator17authenticate_user
FNDA:0,_RNvXs6_NtCskkwNnPUyuBS_8callisto14authenticationNtB5_19GoogleAuthenticatorNtB5_13Authenticator20validate_session_key
FNDA:0,_RNvXs6_NtCskkwNnPUyuBS_8callisto14authenticationNtB5_19GoogleAuthenticatorNtB5_13Authenticator19check_authorization
FNDA:81,_RNvXs7_NtCskkwNnPUyuBS_8callisto14authenticationNtB5_17MockAuthenticatorNtB5_13Authenticator14get_web_server
FNDA:16,_RNvXs7_NtCskkwNnPUyuBS_8callisto14authenticationNtB5_17MockAuthenticatorNtB5_13Authenticator17authenticate_user
FNDA:63,_RNvXs7_NtCskkwNnPUyuBS_8callisto14authenticationNtB5_17MockAuthenticatorNtB5_13Authenticator20validate_session_key
FNDA:0,_RNvXs7_NtCskkwNnPUyuBS_8callisto14authenticationNtB5_17MockAuthenticatorNtB5_13Authenticator19check_authorization
FNDA:0,_RNvXNvXNvNtCskkwNnPUyuBS_8callisto14authentications_1__NtB7_12GoogleClaimsNtNtCs8pDKiTx8cJZ_5serde2de11Deserialize11deserializeNtB2_14___FieldVisitorNtB1c_7Visitor9expecting
FNDA:0,_RNvXs0_NvXNvNtCskkwNnPUyuBS_8callisto14authentications_1__NtBa_12GoogleClaimsNtNtCs8pDKiTx8cJZ_5serde2de11Deserialize11deserializeNtB5_9___VisitorNtB1f_7Visitor9expecting
FNDA:0,_RNvXNvXNvNtCskkwNnPUyuBS_8callisto14authentications1_1__NtB7_18GoogleTokenRequestNtNtCs8pDKiTx8cJZ_5serde2de11Deserialize11deserializeNtB2_14___FieldVisitorNtB1j_7Visitor9expecting
FNDA:0,_RNvXs0_NvXNvNtCskkwNnPUyuBS_8callisto14authentications1_1__NtBa_18GoogleTokenRequestNtNtCs8pDKiTx8cJZ_5serde2de11Deserialize11deserializeNtB5_9___VisitorNtB1m_7Visitor9expecting
FNDA:0,_RNvXNvXNvNtCskkwNnPUyuBS_8callisto14authentications3_1__NtB7_19GoogleTokenResponseNtNtCs8pDKiTx8cJZ_5serde2de11Deserialize11deserializeNtB2_14___FieldVisitorNtB1k_7Visitor9expecting
FNDA:0,_RNvXs0_NvXNvNtCskkwNnPUyuBS_8callisto14authentications3_1__NtBa_19GoogleTokenResponseNtNtCs8pDKiTx8cJZ_5serde2de11Deserialize11deserializeNtB5_9___VisitorNtB1n_7Visitor9expecting
FNDA:0,_RNvXNvXNvNtCskkwNnPUyuBS_8callisto14authentications4_1__NtB7_16GooglePublicKeysNtNtCs8pDKiTx8cJZ_5serde2de11Deserialize11deserializeNtB2_14___FieldVisitorNtB1h_7Visitor9expecting
FNDA:0,_RNvXs0_NvXNvNtCskkwNnPUyuBS_8callisto14authentications4_1__NtBa_16GooglePublicKeysNtNtCs8pDKiTx8cJZ_5serde2de11Deserialize11deserializeNtB5_9___VisitorNtB1k_7Visitor9expecting
FNDA:0,_RNvXNvXNvNtCskkwNnPUyuBS_8callisto14authentications5_1__NtB7_15GooglePublicKeyNtNtCs8pDKiTx8cJZ_5serde2de11Deserialize11deserializeNtB2_14___FieldVisitorNtB1g_7Visitor9expecting
FNDA:0,_RNvXs0_NvXNvNtCskkwNnPUyuBS_8callisto14authentications5_1__NtBa_15GooglePublicKeyNtNtCs8pDKiTx8cJZ_5serde2de11Deserialize11deserializeNtB5_9___VisitorNtB1j_7Visitor9expecting
FNDA:0,_RNvXNvXNvNtCskkwNnPUyuBS_8callisto14authentications6_1__NtB7_17GoogleCredentialsNtNtCs8pDKiTx8cJZ_5serde2de11Deserialize11deserializeNtB2_14___FieldVisitorNtB1i_7Visitor9expecting
FNDA:0,_RNvXs0_NvXNvNtCskkwNnPUyuBS_8callisto14authentications6_1__NtBa_17GoogleCredentialsNtNtCs8pDKiTx8cJZ_5serde2de11Deserialize11deserializeNtB5_9___VisitorNtB1l_7Visitor9expecting
FNDA:0,_RNvXNvXNvNtCskkwNnPUyuBS_8callisto14authentications7_1__NtB7_15GoogleCredsJsonNtNtCs8pDKiTx8cJZ_5serde2de11Deserialize11deserializeNtB2_14___FieldVisitorNtB1g_7Visitor9expecting
FNDA:0,_RNvXs0_NvXNvNtCskkwNnPUyuBS_8callisto14authentications7_1__NtBa_15GoogleCredsJsonNtNtCs8pDKiTx8cJZ_5serde2de11Deserialize11deserializeNtB5_9___VisitorNtB1j_7Visitor9expecting
FNDA:0,_RNCNvNtCskkwNnPUyuBS_8callisto14authentication33load_google_credentials_from_file0B5_
FNDA:0,_RNCNvNtCskkwNnPUyuBS_8callisto14authentication33load_google_credentials_from_files_0B5_
FNDA:0,_RNCNvXs6_NtCskkwNnPUyuBS_8callisto14authenticationNtB7_19GoogleAuthenticatorNtB7_13Authenticator17authenticate_user0B9_
FNDA:0,_RNCNCNvXs6_NtCskkwNnPUyuBS_8callisto14authenticationNtB9_19GoogleAuthenticatorNtB9_13Authenticator17authenticate_user00Bb_
FNDA:0,_RNCNCNvXs6_NtCskkwNnPUyuBS_8callisto14authenticationNtB9_19GoogleAuthenticatorNtB9_13Authenticator17authenticate_user0s_0Bb_
FNDA:0,_RNCNCNvXs6_NtCskkwNnPUyuBS_8callisto14authenticationNtB9_19GoogleAuthenticatorNtB9_13Authenticator17authenticate_user0s0_0Bb_
FNDA:0,_RNCNCNvXs6_NtCskkwNnPUyuBS_8callisto14authenticationNtB9_19GoogleAuthenticatorNtB9_13Authenticator17authenticate_user0s1_0Bb_
FNDA:0,_RNCNCNvXs6_NtCskkwNnPUyuBS_8callisto14authenticationNtB9_19GoogleAuthenticatorNtB9_13Authenticator17authenticate_user0s2_0Bb_
FNDA:0,_RNCNvXs6_NtCskkwNnPUyuBS_8callisto14authenticationNtB7_19GoogleAuthenticatorNtB7_13Authenticator19check_authorization0B9_
FNDA:0,_RNCNCNvXs6_NtCskkwNnPUyuBS_8callisto14authenticationNtB9_19GoogleAuthenticatorNtB9_13Authenticator19check_authorization00Bb_
FNDA:16,_RNCNvXs7_NtCskkwNnPUyuBS_8callisto14authenticationNtB7_17MockAuthenticatorNtB7_13Authenticator17authenticate_user0B9_
FNDA:0,_RNCNvXs7_NtCskkwNnPUyuBS_8callisto14authenticationNtB7_17MockAuthenticatorNtB7_13Authenticator19check_authorization0B9_
FNDA:0,_RNCNCNvXs7_NtCskkwNnPUyuBS_8callisto14authenticationNtB9_17MockAuthenticatorNtB9_13Authenticator19check_authorization00Bb_
FNDA:0,_RINvXNvXNvNtCskkwNnPUyuBS_8callisto14authentications_1__NtB8_12GoogleClaimsNtNtCs8pDKiTx8cJZ_5serde2de11Deserialize11deserializeNtB3_14___FieldVisitorNtB1d_7Visitor9visit_strNtNtCse3EK68OXEkC_10serde_json5error5ErrorEBa_
FNDA:0,_RINvXs_NvXNvNtCskkwNnPUyuBS_8callisto14authentications_1__NtBa_12GoogleClaimsNtNtCs8pDKiTx8cJZ_5serde2de11Deserialize11deserializeNtB5_7___FieldB1d_11deserializeINtNtCse3EK68OXEkC_10serde_json2de6MapKeyNtNtB2E_4read9SliceReadEEBc_
FNDA:0,_RINvXs0_NvXNvNtCskkwNnPUyuBS_8callisto14authentications_1__NtBb_12GoogleClaimsNtNtCs8pDKiTx8cJZ_5serde2de11Deserialize11deserializeNtB6_9___VisitorNtB1g_7Visitor9visit_seqINtNtCse3EK68OXEkC_10serde_json2de9SeqAccessNtNtB2O_4read9SliceReadEEBd_
FNDA:0,_RINvXs0_NvXNvNtCskkwNnPUyuBS_8callisto14authentications_1__NtBb_12GoogleClaimsNtNtCs8pDKiTx8cJZ_5serde2de11Deserialize11deserializeNtB6_9___VisitorNtB1g_7Visitor9visit_mapINtNtCse3EK68OXEkC_10serde_json2de9MapAccessNtNtB2O_4read9SliceReadEEBd_
FNDA:0,_RINvXNvXNvNtCskkwNnPUyuBS_8callisto14authentications3_1__NtB8_19GoogleTokenResponseNtNtCs8pDKiTx8cJZ_5serde2de11Deserialize11deserializeNtB3_14___FieldVisitorNtB1l_7Visitor9visit_strNtNtCse3EK68OXEkC_10serde_json5error5ErrorEBa_
FNDA:0,_RINvXs_NvXNvNtCskkwNnPUyuBS_8callisto14authentications3_1__NtBa_19GoogleTokenResponseNtNtCs8pDKiTx8cJZ_5serde2de11Deserialize11deserializeNtB5_7___FieldB1l_11deserializeINtNtCse3EK68OXEkC_10serde_json2de6MapKeyNtNtB2M_4read7StrReadEEBc_
FNDA:0,_RINvXs0_NvXNvNtCskkwNnPUyuBS_8callisto14authentications3_1__NtBb_19GoogleTokenResponseNtNtCs8pDKiTx8cJZ_5serde2de11Deserialize11deserializeNtB6_9___VisitorNtB1o_7Visitor9visit_seqINtNtCse3EK68OXEkC_10serde_json2de9SeqAccessNtNtB2W_4read7StrReadEEBd_
FNDA:0,_RINvXs0_NvXNvNtCskkwNnPUyuBS_8callisto14authentications3_1__NtBb_19GoogleTokenResponseNtNtCs8pDKiTx8cJZ_5serde2de11Deserialize11deserializeNtB6_9___VisitorNtB1o_7Visitor9visit_mapINtNtCse3EK68OXEkC_10serde_json2de9MapAccessNtNtB2W_4read7StrReadEEBd_
FNDA:8,_RINvXNvXNvNtCskkwNnPUyuBS_8callisto14authentications6_1__NtB8_17GoogleCredentialsNtNtCs8pDKiTx8cJZ_5serde2de11Deserialize11deserializeNtB3_14___FieldVisitorNtB1j_7Visitor9visit_strNtNtCse3EK68OXEkC_10serde_json5error5ErrorEBa_
FNDA:8,_RINvXs_NvXNvNtCskkwNnPUyuBS_8callisto14authentications6_1__NtBa_17GoogleCredentialsNtNtCs8pDKiTx8cJZ_5serde2de11Deserialize11deserializeNtB5_7___FieldB1j_11deserializeINtNtCse3EK68OXEkC_10serde_json2de6MapKeyINtNtB2K_4read6IoReadINtNtNtNtCs27l1GJC5rMQ_3std2io8buffered9bufreader9BufReaderNtNtB3O_2fs4FileEEEEBc_
FNDA:0,_RINvXs0_NvXNvNtCskkwNnPUyuBS_8callisto14authentications6_1__NtBb_17GoogleCredentialsNtNtCs8pDKiTx8cJZ_5serde2de11Deserialize11deserializeNtB6_9___VisitorNtB1m_7Visitor9visit_seqINtNtCse3EK68OXEkC_10serde_json2de9SeqAccessINtNtB2U_4read6IoReadINtNtNtNtCs27l1GJC5rMQ_3std2io8buffered9bufreader9BufReaderNtNtB41_2fs4FileEEEEBd_
FNDA:1,_RINvXs0_NvXNvNtCskkwNnPUyuBS_8callisto14authentications6_1__NtBb_17GoogleCredentialsNtNtCs8pDKiTx8cJZ_5serde2de11Deserialize11deserializeNtB6_9___VisitorNtB1m_7Visitor9visit_mapINtNtCse3EK68OXEkC_10serde_json2de9MapAccessINtNtB2U_4read6IoReadINtNtNtNtCs27l1GJC5rMQ_3std2io8buffered9bufreader9BufReaderNtNtB41_2fs4FileEEEEBd_
FNDA:1,_RINvXNvXNvNtCskkwNnPUyuBS_8callisto14authentications7_1__NtB8_15GoogleCredsJsonNtNtCs8pDKiTx8cJZ_5serde2de11Deserialize11deserializeNtB3_14___FieldVisitorNtB1h_7Visitor9visit_strNtNtCse3EK68OXEkC_10serde_json5error5ErrorEBa_
FNDA:1,_RINvXs_NvXNvNtCskkwNnPUyuBS_8callisto14authentications7_1__NtBa_15GoogleCredsJsonNtNtCs8pDKiTx8cJZ_5serde2de11Deserialize11deserializeNtB5_7___FieldB1h_11deserializeINtNtCse3EK68OXEkC_10serde_json2de6MapKeyINtNtB2I_4read6IoReadINtNtNtNtCs27l1GJC5rMQ_3std2io8buffered9bufreader9BufReaderNtNtB3M_2fs4FileEEEEBc_
FNDA:0,_RINvXs0_NvXNvNtCskkwNnPUyuBS_8callisto14authentications7_1__NtBb_15GoogleCredsJsonNtNtCs8pDKiTx8cJZ_5serde2de11Deserialize11deserializeNtB6_9___VisitorNtB1k_7Visitor9visit_seqINtNtCse3EK68OXEkC_10serde_json2de9SeqAccessINtNtB2S_4read6IoReadINtNtNtNtCs27l1GJC5rMQ_3std2io8buffered9bufreader9BufReaderNtNtB3Z_2fs4FileEEEEBd_
FNDA:1,_RINvXs0_NvXNvNtCskkwNnPUyuBS_8callisto14authentications7_1__NtBb_15GoogleCredsJsonNtNtCs8pDKiTx8cJZ_5serde2de11Deserialize11deserializeNtB6_9___VisitorNtB1k_7Visitor9visit_mapINtNtCse3EK68OXEkC_10serde_json2de9MapAccessINtNtB2S_4read6IoReadINtNtNtNtCs27l1GJC5rMQ_3std2io8buffered9bufreader9BufReaderNtNtB3Z_2fs4FileEEEEBd_
FNDA:0,_RNCNvMNtCskkwNnPUyuBS_8callisto14authenticationNtB4_19GoogleAuthenticator3new0B6_
FNDA:0,_RNCNCNvMNtCskkwNnPUyuBS_8callisto14authenticationNtB6_19GoogleAuthenticator3new00B8_
FNDA:0,_RNCNvMNtCskkwNnPUyuBS_8callisto14authenticationNtB4_19GoogleAuthenticator24fetch_google_public_keys0B6_
FNDA:0,_RNCNCNvMNtCskkwNnPUyuBS_8callisto14authenticationNtB6_19GoogleAuthenticator24fetch_google_public_keys00B8_
FNDA:0,_RNCNvNtCskkwNnPUyuBS_8callisto14authentication31load_authorized_users_from_file0B5_
FNDA:0,_RNCNCNvNtCskkwNnPUyuBS_8callisto14authentication31load_authorized_users_from_file00B7_
FNDA:0,_RNCNvMs_NtCskkwNnPUyuBS_8callisto14authenticationNtB6_17MockAuthenticator3new0B8_
FNDA:0,_RINvXNvXNvNtCskkwNnPUyuBS_8callisto14authentications_1__NtB8_12GoogleClaimsNtNtCs8pDKiTx8cJZ_5serde2de11Deserialize11deserializeNtB3_14___FieldVisitorNtB1d_7Visitor9visit_u64pEBa_
FNDA:0,_RINvXNvXNvNtCskkwNnPUyuBS_8callisto14authentications_1__NtB8_12GoogleClaimsNtNtCs8pDKiTx8cJZ_5serde2de11Deserialize11deserializeNtB3_14___FieldVisitorNtB1d_7Visitor11visit_bytespEBa_
FNDA:0,_RINvXNvXNvNtCskkwNnPUyuBS_8callisto14authentications1_1__NtB8_18GoogleTokenRequestNtNtCs8pDKiTx8cJZ_5serde2de11Deserialize11deserializeNtB3_14___FieldVisitorNtB1k_7Visitor9visit_u64pEBa_
FNDA:0,_RINvXNvXNvNtCskkwNnPUyuBS_8callisto14authentications1_1__NtB8_18GoogleTokenRequestNtNtCs8pDKiTx8cJZ_5serde2de11Deserialize11deserializeNtB3_14___FieldVisitorNtB1k_7Visitor9visit_strpEBa_
FNDA:0,_RINvXNvXNvNtCskkwNnPUyuBS_8callisto14authentications1_1__NtB8_18GoogleTokenRequestNtNtCs8pDKiTx8cJZ_5serde2de11Deserialize11deserializeNtB3_14___FieldVisitorNtB1k_7Visitor11visit_bytespEBa_
FNDA:0,_RINvXs_NvXNvNtCskkwNnPUyuBS_8callisto14authentications1_1__NtBa_18GoogleTokenRequestNtNtCs8pDKiTx8cJZ_5serde2de11Deserialize11deserializeNtB5_7___FieldB1k_11deserializepEBc_
FNDA:0,_RINvXs0_NvXNvNtCskkwNnPUyuBS_8callisto14authentications1_1__NtBb_18GoogleTokenRequestNtNtCs8pDKiTx8cJZ_5serde2de11Deserialize11deserializeNtB6_9___VisitorNtB1n_7Visitor9visit_seqpEBd_
FNDA:0,_RINvXs0_NvXNvNtCskkwNnPUyuBS_8callisto14authentications1_1__NtBb_18GoogleTokenRequestNtNtCs8pDKiTx8cJZ_5serde2de11Deserialize11deserializeNtB6_9___VisitorNtB1n_7Visitor9visit_mappEBd_
FNDA:0,_RINvXNvXNvNtCskkwNnPUyuBS_8callisto14authentications3_1__NtB8_19GoogleTokenResponseNtNtCs8pDKiTx8cJZ_5serde2de11Deserialize11deserializeNtB3_14___FieldVisitorNtB1l_7Visitor9visit_u64pEBa_
FNDA:0,_RINvXNvXNvNtCskkwNnPUyuBS_8callisto14authentications3_1__NtB8_19GoogleTokenResponseNtNtCs8pDKiTx8cJZ_5serde2de11Deserialize11deserializeNtB3_14___FieldVisitorNtB1l_7Visitor11visit_bytespEBa_
FNDA:0,_RINvXNvXNvNtCskkwNnPUyuBS_8callisto14authentications4_1__NtB8_16GooglePublicKeysNtNtCs8pDKiTx8cJZ_5serde2de11Deserialize11deserializeNtB3_14___FieldVisitorNtB1i_7Visitor9visit_u64pEBa_
FNDA:0,_RINvXNvXNvNtCskkwNnPUyuBS_8callisto14authentications4_1__NtB8_16GooglePublicKeysNtNtCs8pDKiTx8cJZ_5serde2de11Deserialize11deserializeNtB3_14___FieldVisitorNtB1i_7Visitor9visit_strpEBa_
FNDA:0,_RINvXNvXNvNtCskkwNnPUyuBS_8callisto14authentications4_1__NtB8_16GooglePublicKeysNtNtCs8pDKiTx8cJZ_5serde2de11Deserialize11deserializeNtB3_14___FieldVisitorNtB1i_7Visitor11visit_bytespEBa_
FNDA:0,_RINvXs_NvXNvNtCskkwNnPUyuBS_8callisto14authentications4_1__NtBa_16GooglePublicKeysNtNtCs8pDKiTx8cJZ_5serde2de11Deserialize11deserializeNtB5_7___FieldB1i_11deserializepEBc_
FNDA:0,_RINvXs0_NvXNvNtCskkwNnPUyuBS_8callisto14authentications4_1__NtBb_16GooglePublicKeysNtNtCs8pDKiTx8cJZ_5serde2de11Deserialize11deserializeNtB6_9___VisitorNtB1l_7Visitor9visit_seqpEBd_
FNDA:0,_RINvXs0_NvXNvNtCskkwNnPUyuBS_8callisto14authentications4_1__NtBb_16GooglePublicKeysNtNtCs8pDKiTx8cJZ_5serde2de11Deserialize11deserializeNtB6_9___VisitorNtB1l_7Visitor9visit_mappEBd_
FNDA:0,_RINvXNvXNvNtCskkwNnPUyuBS_8callisto14authentications5_1__NtB8_15GooglePublicKeyNtNtCs8pDKiTx8cJZ_5serde2de11Deserialize11deserializeNtB3_14___FieldVisitorNtB1h_7Visitor9visit_u64pEBa_
FNDA:0,_RINvXNvXNvNtCskkwNnPUyuBS_8callisto14authentications5_1__NtB8_15GooglePublicKeyNtNtCs8pDKiTx8cJZ_5serde2de11Deserialize11deserializeNtB3_14___FieldVisitorNtB1h_7Visitor9visit_strpEBa_
FNDA:0,_RINvXNvXNvNtCskkwNnPUyuBS_8callisto14authentications5_1__NtB8_15GooglePublicKeyNtNtCs8pDKiTx8cJZ_5serde2de11Deserialize11deserializeNtB3_14___FieldVisitorNtB1h_7Visitor11visit_bytespEBa_
FNDA:0,_RINvXs_NvXNvNtCskkwNnPUyuBS_8callisto14authentications5_1__NtBa_15GooglePublicKeyNtNtCs8pDKiTx8cJZ_5serde2de11Deserialize11deserializeNtB5_7___FieldB1h_11deserializepEBc_
FNDA:0,_RINvXs0_NvXNvNtCskkwNnPUyuBS_8callisto14authentications5_1__NtBb_15GooglePublicKeyNtNtCs8pDKiTx8cJZ_5serde2de11Deserialize11deserializeNtB6_9___VisitorNtB1k_7Visitor9visit_seqpEBd_
FNDA:0,_RINvXs0_NvXNvNtCskkwNnPUyuBS_8callisto14authentications5_1__NtBb_15GooglePublicKeyNtNtCs8pDKiTx8cJZ_5serde2de11Deserialize11deserializeNtB6_9___VisitorNtB1k_7Visitor9visit_mappEBd_
FNDA:0,_RINvXNvXNvNtCskkwNnPUyuBS_8callisto14authentications6_1__NtB8_17GoogleCredentialsNtNtCs8pDKiTx8cJZ_5serde2de11Deserialize11deserializeNtB3_14___FieldVisitorNtB1j_7Visitor9visit_u64pEBa_
FNDA:0,_RINvXNvXNvNtCskkwNnPUyuBS_8callisto14authentications6_1__NtB8_17GoogleCredentialsNtNtCs8pDKiTx8cJZ_5serde2de11Deserialize11deserializeNtB3_14___FieldVisitorNtB1j_7Visitor11visit_bytespEBa_
FNDA:0,_RINvXNvXNvNtCskkwNnPUyuBS_8callisto14authentications7_1__NtB8_15GoogleCredsJsonNtNtCs8pDKiTx8cJZ_5serde2de11Deserialize11deserializeNtB3_14___FieldVisitorNtB1h_7Visitor9visit_u64pEBa_
FNDA:0,_RINvXNvXNvNtCskkwNnPUyuBS_8callisto14authentications7_1__NtB8_15GoogleCredsJsonNtNtCs8pDKiTx8cJZ_5serde2de11Deserialize11deserializeNtB3_14___FieldVisitorNtB1h_7Visitor11visit_bytespEBa_
FNDA:1,_RNCNvNtNtCscBGMVToPeRm_8callisto14authentication5testss_23test_mock_authenticator0B7_
FNDA:0,_RNvXs6_NtCscBGMVToPeRm_8callisto14authenticationNtB5_19GoogleAuthenticatorNtB5_13Authenticator14get_web_server
FNDA:0,_RNvXs6_NtCscBGMVToPeRm_8callisto14authenticationNtB5_19GoogleAuthenticatorNtB5_13Authenticator17authenticate_user
FNDA:0,_RNCNvXs6_NtCscBGMVToPeRm_8callisto14authenticationNtB7_19GoogleAuthenticatorNtB7_13Authenticator17authenticate_user0B9_
FNDA:0,_RNCNCNvXs6_NtCscBGMVToPeRm_8callisto14authenticationNtB9_19GoogleAuthenticatorNtB9_13Authenticator17authenticate_user00Bb_
FNDA:0,_RNCNCNvXs6_NtCscBGMVToPeRm_8callisto14authenticationNtB9_19GoogleAuthenticatorNtB9_13Authenticator17authenticate_user0s_0Bb_
FNDA:0,_RNCNCNvXs6_NtCscBGMVToPeRm_8callisto14authenticationNtB9_19GoogleAuthenticatorNtB9_13Authenticator17authenticate_user0s0_0Bb_
FNDA:0,_RNCNCNvXs6_NtCscBGMVToPeRm_8callisto14authenticationNtB9_19GoogleAuthenticatorNtB9_13Authenticator17authenticate_user0s1_0Bb_
FNDA:0,_RNCNCNvXs6_NtCscBGMVToPeRm_8callisto14authenticationNtB9_19GoogleAuthenticatorNtB9_13Authenticator17authenticate_user0s2_0Bb_
FNDA:0,_RNvXs6_NtCscBGMVToPeRm_8callisto14authenticationNtB5_19GoogleAuthenticatorNtB5_13Authenticator20validate_session_key
FNDA:0,_RNvXs6_NtCscBGMVToPeRm_8callisto14authenticationNtB5_19GoogleAuthenticatorNtB5_13Authenticator19check_authorization
FNDA:0,_RNCNvXs6_NtCscBGMVToPeRm_8callisto14authenticationNtB7_19GoogleAuthenticatorNtB7_13Authenticator19check_authorization0B9_
FNDA:0,_RNCNCNvXs6_NtCscBGMVToPeRm_8callisto14authenticationNtB9_19GoogleAuthenticatorNtB9_13Authenticator19check_authorization00Bb_
FNDA:0,_RNvXs1_NtCscBGMVToPeRm_8callisto14authenticationNtB5_17TokenTimeoutErrorNtNtCs9f3LFPSIp77_4core3fmt7Display3fmt
FNDA:0,_RNvXs2_NtCscBGMVToPeRm_8callisto14authenticationNtB5_15InvalidKeyErrorNtNtCs9f3LFPSIp77_4core3fmt7Display3fmt
FNDA:0,_RNvXs4_NtCscBGMVToPeRm_8callisto14authenticationNtB5_21UnauthorizedUserErrorNtNtCs9f3LFPSIp77_4core3fmt7Display3fmt
FNDA:0,_RNvXNvXNvNtCscBGMVToPeRm_8callisto14authentications_1__NtB7_12GoogleClaimsNtNtCs8pDKiTx8cJZ_5serde2de11Deserialize11deserializeNtB2_14___FieldVisitorNtB1c_7Visitor9expecting
FNDA:0,_RINvXNvXNvNtCscBGMVToPeRm_8callisto14authentications_1__NtB8_12GoogleClaimsNtNtCs8pDKiTx8cJZ_5serde2de11Deserialize11deserializeNtB3_14___FieldVisitorNtB1d_7Visitor9visit_u64pEBa_
FNDA:0,_RINvXNvXNvNtCscBGMVToPeRm_8callisto14authentications_1__NtB8_12GoogleClaimsNtNtCs8pDKiTx8cJZ_5serde2de11Deserialize11deserializeNtB3_14___FieldVisitorNtB1d_7Visitor9visit_strpEBa_
FNDA:0,_RINvXNvXNvNtCscBGMVToPeRm_8callisto14authentications_1__NtB8_12GoogleClaimsNtNtCs8pDKiTx8cJZ_5serde2de11Deserialize11deserializeNtB3_14___FieldVisitorNtB1d_7Visitor11visit_bytespEBa_
FNDA:0,_RINvXs_NvXNvNtCscBGMVToPeRm_8callisto14authentications_1__NtBa_12GoogleClaimsNtNtCs8pDKiTx8cJZ_5serde2de11Deserialize11deserializeNtB5_7___FieldB1d_11deserializepEBc_
FNDA:0,_RNvXs0_NvXNvNtCscBGMVToPeRm_8callisto14authentications_1__NtBa_12GoogleClaimsNtNtCs8pDKiTx8cJZ_5serde2de11Deserialize11deserializeNtB5_9___VisitorNtB1f_7Visitor9expecting
FNDA:0,_RINvXs0_NvXNvNtCscBGMVToPeRm_8callisto14authentications_1__NtBb_12GoogleClaimsNtNtCs8pDKiTx8cJZ_5serde2de11Deserialize11deserializeNtB6_9___VisitorNtB1g_7Visitor9visit_seqpEBd_
FNDA:0,_RINvXs0_NvXNvNtCscBGMVToPeRm_8callisto14authentications_1__NtBb_12GoogleClaimsNtNtCs8pDKiTx8cJZ_5serde2de11Deserialize11deserializeNtB6_9___VisitorNtB1g_7Visitor9visit_mappEBd_
FNDA:0,_RNvXNvXNvNtCscBGMVToPeRm_8callisto14authentications1_1__NtB7_18GoogleTokenRequestNtNtCs8pDKiTx8cJZ_5serde2de11Deserialize11deserializeNtB2_14___FieldVisitorNtB1j_7Visitor9expecting
FNDA:0,_RINvXNvXNvNtCscBGMVToPeRm_8callisto14authentications1_1__NtB8_18GoogleTokenRequestNtNtCs8pDKiTx8cJZ_5serde2de11Deserialize11deserializeNtB3_14___FieldVisitorNtB1k_7Visitor9visit_u64pEBa_
FNDA:0,_RINvXNvXNvNtCscBGMVToPeRm_8callisto14authentications1_1__NtB8_18GoogleTokenRequestNtNtCs8pDKiTx8cJZ_5serde2de11Deserialize11deserializeNtB3_14___FieldVisitorNtB1k_7Visitor9visit_strpEBa_
FNDA:0,_RINvXNvXNvNtCscBGMVToPeRm_8callisto14authentications1_1__NtB8_18GoogleTokenRequestNtNtCs8pDKiTx8cJZ_5serde2de11Deserialize11deserializeNtB3_14___FieldVisitorNtB1k_7Visitor11visit_bytespEBa_
FNDA:0,_RINvXs_NvXNvNtCscBGMVToPeRm_8callisto14authentications1_1__NtBa_18GoogleTokenRequestNtNtCs8pDKiTx8cJZ_5serde2de11Deserialize11deserializeNtB5_7___FieldB1k_11deserializepEBc_
FNDA:0,_RNvXs0_NvXNvNtCscBGMVToPeRm_8callisto14authentications1_1__NtBa_18GoogleTokenRequestNtNtCs8pDKiTx8cJZ_5serde2de11Deserialize11deserializeNtB5_9___VisitorNtB1m_7Visitor9expecting
FNDA:0,_RINvXs0_NvXNvNtCscBGMVToPeRm_8callisto14authentications1_1__NtBb_18GoogleTokenRequestNtNtCs8pDKiTx8cJZ_5serde2de11Deserialize11deserializeNtB6_9___VisitorNtB1n_7Visitor9visit_seqpEBd_
FNDA:0,_RINvXs0_NvXNvNtCscBGMVToPeRm_8callisto14authentications1_1__NtBb_18GoogleTokenRequestNtNtCs8pDKiTx8cJZ_5serde2de11Deserialize11deserializeNtB6_9___VisitorNtB1n_7Visitor9visit_mappEBd_
FNDA:0,_RNvXNvXNvNtCscBGMVToPeRm_8callisto14authentications3_1__NtB7_19GoogleTokenResponseNtNtCs8pDKiTx8cJZ_5serde2de11Deserialize11deserializeNtB2_14___FieldVisitorNtB1k_7Visitor9expecting
FNDA:0,_RINvXNvXNvNtCscBGMVToPeRm_8callisto14authentications3_1__NtB8_19GoogleTokenResponseNtNtCs8pDKiTx8cJZ_5serde2de11Deserialize11deserializeNtB3_14___FieldVisitorNtB1l_7Visitor9visit_u64pEBa_
FNDA:0,_RINvXNvXNvNtCscBGMVToPeRm_8callisto14authentications3_1__NtB8_19GoogleTokenResponseNtNtCs8pDKiTx8cJZ_5serde2de11Deserialize11deserializeNtB3_14___FieldVisitorNtB1l_7Visitor9visit_strpEBa_
FNDA:0,_RINvXNvXNvNtCscBGMVToPeRm_8callisto14authentications3_1__NtB8_19GoogleTokenResponseNtNtCs8pDKiTx8cJZ_5serde2de11Deserialize11deserializeNtB3_14___FieldVisitorNtB1l_7Visitor11visit_bytespEBa_
FNDA:0,_RINvXs_NvXNvNtCscBGMVToPeRm_8callisto14authentications3_1__NtBa_19GoogleTokenResponseNtNtCs8pDKiTx8cJZ_5serde2de11Deserialize11deserializeNtB5_7___FieldB1l_11deserializepEBc_
FNDA:0,_RNvXs0_NvXNvNtCscBGMVToPeRm_8callisto14authentications3_1__NtBa_19GoogleTokenResponseNtNtCs8pDKiTx8cJZ_5serde2de11Deserialize11deserializeNtB5_9___VisitorNtB1n_7Visitor9expecting
FNDA:0,_RINvXs0_NvXNvNtCscBGMVToPeRm_8callisto14authentications3_1__NtBb_19GoogleTokenResponseNtNtCs8pDKiTx8cJZ_5serde2de11Deserialize11deserializeNtB6_9___VisitorNtB1o_7Visitor9visit_seqpEBd_
FNDA:0,_RINvXs0_NvXNvNtCscBGMVToPeRm_8callisto14authentications3_1__NtBb_19GoogleTokenResponseNtNtCs8pDKiTx8cJZ_5serde2de11Deserialize11deserializeNtB6_9___VisitorNtB1o_7Visitor9visit_mappEBd_
FNDA:0,_RNvXNvXNvNtCscBGMVToPeRm_8callisto14authentications4_1__NtB7_16GooglePublicKeysNtNtCs8pDKiTx8cJZ_5serde2de11Deserialize11deserializeNtB2_14___FieldVisitorNtB1h_7Visitor9expecting
FNDA:0,_RINvXNvXNvNtCscBGMVToPeRm_8callisto14authentications4_1__NtB8_16GooglePublicKeysNtNtCs8pDKiTx8cJZ_5serde2de11Deserialize11deserializeNtB3_14___FieldVisitorNtB1i_7Visitor9visit_u64pEBa_
FNDA:0,_RINvXNvXNvNtCscBGMVToPeRm_8callisto14authentications4_1__NtB8_16GooglePublicKeysNtNtCs8pDKiTx8cJZ_5serde2de11Deserialize11deserializeNtB3_14___FieldVisitorNtB1i_7Visitor11visit_bytespEBa_
FNDA:0,_RNvXNvXNvNtCscBGMVToPeRm_8callisto14authentications5_1__NtB7_15GooglePublicKeyNtNtCs8pDKiTx8cJZ_5serde2de11Deserialize11deserializeNtB2_14___FieldVisitorNtB1g_7Visitor9expecting
FNDA:0,_RINvXNvXNvNtCscBGMVToPeRm_8callisto14authentications5_1__NtB8_15GooglePublicKeyNtNtCs8pDKiTx8cJZ_5serde2de11Deserialize11deserializeNtB3_14___FieldVisitorNtB1h_7Visitor9visit_u64pEBa_
FNDA:0,_RINvXNvXNvNtCscBGMVToPeRm_8callisto14authentications5_1__NtB8_15GooglePublicKeyNtNtCs8pDKiTx8cJZ_5serde2de11Deserialize11deserializeNtB3_14___FieldVisitorNtB1h_7Visitor11visit_bytespEBa_
FNDA:0,_RNvXNvXNvNtCscBGMVToPeRm_8callisto14authentications6_1__NtB7_17GoogleCredentialsNtNtCs8pDKiTx8cJZ_5serde2de11Deserialize11deserializeNtB2_14___FieldVisitorNtB1i_7Visitor9expecting
FNDA:0,_RINvXNvXNvNtCscBGMVToPeRm_8callisto14authentications6_1__NtB8_17GoogleCredentialsNtNtCs8pDKiTx8cJZ_5serde2de11Deserialize11deserializeNtB3_14___FieldVisitorNtB1j_7Visitor9visit_u64pEBa_
FNDA:0,_RINvXNvXNvNtCscBGMVToPeRm_8callisto14authentications6_1__NtB8_17GoogleCredentialsNtNtCs8pDKiTx8cJZ_5serde2de11Deserialize11deserializeNtB3_14___FieldVisitorNtB1j_7Visitor11visit_bytespEBa_
FNDA:0,_RNvXNvXNvNtCscBGMVToPeRm_8callisto14authentications7_1__NtB7_15GoogleCredsJsonNtNtCs8pDKiTx8cJZ_5serde2de11Deserialize11deserializeNtB2_14___FieldVisitorNtB1g_7Visitor9expecting
FNDA:0,_RINvXNvXNvNtCscBGMVToPeRm_8callisto14authentications7_1__NtB8_15GoogleCredsJsonNtNtCs8pDKiTx8cJZ_5serde2de11Deserialize11deserializeNtB3_14___FieldVisitorNtB1h_7Visitor9visit_u64pEBa_
FNDA:0,_RINvXNvXNvNtCscBGMVToPeRm_8callisto14authentications7_1__NtB8_15GoogleCredsJsonNtNtCs8pDKiTx8cJZ_5serde2de11Deserialize11deserializeNtB3_14___FieldVisitorNtB1h_7Visitor11visit_bytespEBa_
FNDA:2,_RNvMNtCscBGMVToPeRm_8callisto14authenticationNtB2_19GoogleAuthenticator3new
FNDA:2,_RNvMNtCscBGMVToPeRm_8callisto14authenticationNtB2_19GoogleAuthenticator24fetch_google_public_keys
FNDA:3,_RNvNtCscBGMVToPeRm_8callisto14authentication33load_google_credentials_from_file
FNDA:3,_RNvNtCscBGMVToPeRm_8callisto14authentication31load_authorized_users_from_file
FNDA:2,_RNvMs_NtCscBGMVToPeRm_8callisto14authenticationNtB4_17MockAuthenticator3new
FNDA:0,_RNvXs7_NtCscBGMVToPeRm_8callisto14authenticationNtB5_17MockAuthenticatorNtB5_13Authenticator14get_web_server
FNDA:2,_RNvXs7_NtCscBGMVToPeRm_8callisto14authenticationNtB5_17MockAuthenticatorNtB5_13Authenticator17authenticate_user
FNDA:2,_RNvXs7_NtCscBGMVToPeRm_8callisto14authenticationNtB5_17MockAuthenticatorNtB5_13Authenticator20validate_session_key
FNDA:0,_RNvXs7_NtCscBGMVToPeRm_8callisto14authenticationNtB5_17MockAuthenticatorNtB5_13Authenticator19check_authorization
FNDA:0,_RNvXs0_NvXNvNtCscBGMVToPeRm_8callisto14authentications4_1__NtBa_16GooglePublicKeysNtNtCs8pDKiTx8cJZ_5serde2de11Deserialize11deserializeNtB5_9___VisitorNtB1k_7Visitor9expecting
FNDA:0,_RNvXs0_NvXNvNtCscBGMVToPeRm_8callisto14authentications5_1__NtBa_15GooglePublicKeyNtNtCs8pDKiTx8cJZ_5serde2de11Deserialize11deserializeNtB5_9___VisitorNtB1j_7Visitor9expecting
FNDA:0,_RNvXs0_NvXNvNtCscBGMVToPeRm_8callisto14authentications6_1__NtBa_17GoogleCredentialsNtNtCs8pDKiTx8cJZ_5serde2de11Deserialize11deserializeNtB5_9___VisitorNtB1l_7Visitor9expecting
FNDA:0,_RNvXs0_NvXNvNtCscBGMVToPeRm_8callisto14authentications7_1__NtBa_15GoogleCredsJsonNtNtCs8pDKiTx8cJZ_5serde2de11Deserialize11deserializeNtB5_9___VisitorNtB1j_7Visitor9expecting
FNDA:2,_RNCNvMNtCscBGMVToPeRm_8callisto14authenticationNtB4_19GoogleAuthenticator3new0B6_
FNDA:0,_RNCNCNvMNtCscBGMVToPeRm_8callisto14authenticationNtB6_19GoogleAuthenticator3new00B8_
FNDA:2,_RNCNvMNtCscBGMVToPeRm_8callisto14authenticationNtB4_19GoogleAuthenticator24fetch_google_public_keys0B6_
FNDA:0,_RNCNCNvMNtCscBGMVToPeRm_8callisto14authenticationNtB6_19GoogleAuthenticator24fetch_google_public_keys00B8_
FNDA:1,_RNCNvNtCscBGMVToPeRm_8callisto14authentication33load_google_credentials_from_file0B5_
FNDA:0,_RNCNvNtCscBGMVToPeRm_8callisto14authentication33load_google_credentials_from_files_0B5_
FNDA:3,_RNCNvNtCscBGMVToPeRm_8callisto14authentication31load_authorized_users_from_file0B5_
FNDA:0,_RNCNCNvNtCscBGMVToPeRm_8callisto14authentication31load_authorized_users_from_file00B7_
FNDA:2,_RNCNvMs_NtCscBGMVToPeRm_8callisto14authenticationNtB6_17MockAuthenticator3new0B8_
FNDA:2,_RNCNvXs7_NtCscBGMVToPeRm_8callisto14authenticationNtB7_17MockAuthenticatorNtB7_13Authenticator17authenticate_user0B9_
FNDA:0,_RNCNvXs7_NtCscBGMVToPeRm_8callisto14authenticationNtB7_17MockAuthenticatorNtB7_13Authenticator19check_authorization0B9_
FNDA:0,_RNCNCNvXs7_NtCscBGMVToPeRm_8callisto14authenticationNtB9_17MockAuthenticatorNtB9_13Authenticator19check_authorization00Bb_
FNDA:2,_RINvXNvXNvNtCscBGMVToPeRm_8callisto14authentications4_1__NtB8_16GooglePublicKeysNtNtCs8pDKiTx8cJZ_5serde2de11Deserialize11deserializeNtB3_14___FieldVisitorNtB1i_7Visitor9visit_strNtNtCse3EK68OXEkC_10serde_json5error5ErrorEBa_
FNDA:2,_RINvXs_NvXNvNtCscBGMVToPeRm_8callisto14authentications4_1__NtBa_16GooglePublicKeysNtNtCs8pDKiTx8cJZ_5serde2de11Deserialize11deserializeNtB5_7___FieldB1i_11deserializeINtNtCse3EK68OXEkC_10serde_json2de6MapKeyNtNtB2J_4read7StrReadEEBc_
FNDA:0,_RINvXs0_NvXNvNtCscBGMVToPeRm_8callisto14authentications4_1__NtBb_16GooglePublicKeysNtNtCs8pDKiTx8cJZ_5serde2de11Deserialize11deserializeNtB6_9___VisitorNtB1l_7Visitor9visit_seqINtNtCse3EK68OXEkC_10serde_json2de9SeqAccessNtNtB2T_4read7StrReadEEBd_
FNDA:2,_RINvXs0_NvXNvNtCscBGMVToPeRm_8callisto14authentications4_1__NtBb_16GooglePublicKeysNtNtCs8pDKiTx8cJZ_5serde2de11Deserialize11deserializeNtB6_9___VisitorNtB1l_7Visitor9visit_mapINtNtCse3EK68OXEkC_10serde_json2de9MapAccessNtNtB2T_4read7StrReadEEBd_
FNDA:24,_RINvXNvXNvNtCscBGMVToPeRm_8callisto14authentications5_1__NtB8_15GooglePublicKeyNtNtCs8pDKiTx8cJZ_5serde2de11Deserialize11deserializeNtB3_14___FieldVisitorNtB1h_7Visitor9visit_strNtNtCse3EK68OXEkC_10serde_json5error5ErrorEBa_
FNDA:24,_RINvXs_NvXNvNtCscBGMVToPeRm_8callisto14authentications5_1__NtBa_15GooglePublicKeyNtNtCs8pDKiTx8cJZ_5serde2de11Deserialize11deserializeNtB5_7___FieldB1h_11deserializeINtNtCse3EK68OXEkC_10serde_json2de6MapKeyNtNtB2I_4read7StrReadEEBc_
FNDA:0,_RINvXs0_NvXNvNtCscBGMVToPeRm_8callisto14authentications5_1__NtBb_15GooglePublicKeyNtNtCs8pDKiTx8cJZ_5serde2de11Deserialize11deserializeNtB6_9___VisitorNtB1k_7Visitor9visit_seqINtNtCse3EK68OXEkC_10serde_json2de9SeqAccessNtNtB2S_4read7StrReadEEBd_
FNDA:4,_RINvXs0_NvXNvNtCscBGMVToPeRm_8callisto14authentications5_1__NtBb_15GooglePublicKeyNtNtCs8pDKiTx8cJZ_5serde2de11Deserialize11deserializeNtB6_9___VisitorNtB1k_7Visitor9visit_mapINtNtCse3EK68OXEkC_10serde_json2de9MapAccessNtNtB2S_4read7StrReadEEBd_
FNDA:16,_RINvXNvXNvNtCscBGMVToPeRm_8callisto14authentications6_1__NtB8_17GoogleCredentialsNtNtCs8pDKiTx8cJZ_5serde2de11Deserialize11deserializeNtB3_14___FieldVisitorNtB1j_7Visitor9visit_strNtNtCse3EK68OXEkC_10serde_json5error5ErrorEBa_
FNDA:16,_RINvXs_NvXNvNtCscBGMVToPeRm_8callisto14authentications6_1__NtBa_17GoogleCredentialsNtNtCs8pDKiTx8cJZ_5serde2de11Deserialize11deserializeNtB5_7___FieldB1j_11deserializeINtNtCse3EK68OXEkC_10serde_json2de6MapKeyINtNtB2K_4read6IoReadINtNtNtNtCs27l1GJC5rMQ_3std2io8buffered9bufreader9BufReaderNtNtB3O_2fs4FileEEEEBc_
FNDA:0,_RINvXs0_NvXNvNtCscBGMVToPeRm_8callisto14authentications6_1__NtBb_17GoogleCredentialsNtNtCs8pDKiTx8cJZ_5serde2de11Deserialize11deserializeNtB6_9___VisitorNtB1m_7Visitor9visit_seqINtNtCse3EK68OXEkC_10serde_json2de9SeqAccessINtNtB2U_4read6IoReadINtNtNtNtCs27l1GJC5rMQ_3std2io8buffered9bufreader9BufReaderNtNtB41_2fs4FileEEEEBd_
FNDA:2,_RINvXs0_NvXNvNtCscBGMVToPeRm_8callisto14authentications6_1__NtBb_17GoogleCredentialsNtNtCs8pDKiTx8cJZ_5serde2de11Deserialize11deserializeNtB6_9___VisitorNtB1m_7Visitor9visit_mapINtNtCse3EK68OXEkC_10serde_json2de9MapAccessINtNtB2U_4read6IoReadINtNtNtNtCs27l1GJC5rMQ_3std2io8buffered9bufreader9BufReaderNtNtB41_2fs4FileEEEEBd_
FNDA:2,_RINvXNvXNvNtCscBGMVToPeRm_8callisto14authentications7_1__NtB8_15GoogleCredsJsonNtNtCs8pDKiTx8cJZ_5serde2de11Deserialize11deserializeNtB3_14___FieldVisitorNtB1h_7Visitor9visit_strNtNtCse3EK68OXEkC_10serde_json5error5ErrorEBa_
FNDA:2,_RINvXs_NvXNvNtCscBGMVToPeRm_8callisto14authentications7_1__NtBa_15GoogleCredsJsonNtNtCs8pDKiTx8cJZ_5serde2de11Deserialize11deserializeNtB5_7___FieldB1h_11deserializeINtNtCse3EK68OXEkC_10serde_json2de6MapKeyINtNtB2I_4read6IoReadINtNtNtNtCs27l1GJC5rMQ_3std2io8buffered9bufreader9BufReaderNtNtB3M_2fs4FileEEEEBc_
FNDA:0,_RINvXs0_NvXNvNtCscBGMVToPeRm_8callisto14authentications7_1__NtBb_15GoogleCredsJsonNtNtCs8pDKiTx8cJZ_5serde2de11Deserialize11deserializeNtB6_9___VisitorNtB1k_7Visitor9visit_seqINtNtCse3EK68OXEkC_10serde_json2de9SeqAccessINtNtB2S_4read6IoReadINtNtNtNtCs27l1GJC5rMQ_3std2io8buffered9bufreader9BufReaderNtNtB3Z_2fs4FileEEEEBd_
FNDA:2,_RINvXs0_NvXNvNtCscBGMVToPeRm_8callisto14authentications7_1__NtBb_15GoogleCredsJsonNtNtCs8pDKiTx8cJZ_5serde2de11Deserialize11deserializeNtB6_9___VisitorNtB1k_7Visitor9visit_mapINtNtCse3EK68OXEkC_10serde_json2de9MapAccessINtNtB2S_4read6IoReadINtNtNtNtCs27l1GJC5rMQ_3std2io8buffered9bufreader9BufReaderNtNtB3Z_2fs4FileEEEEBd_
FNDA:1,_RNvNtNtCscBGMVToPeRm_8callisto14authentication5testss_23test_mock_authenticator
FNDA:1,_RNvNtNtCscBGMVToPeRm_8callisto14authentication5testss_25test_bad_credentials_file
FNDA:1,_RNvNtNCNvNtNtCscBGMVToPeRm_8callisto14authentication5testss_25test_bad_credentials_file04init4init
FNDA:1,_RNvNtNtCscBGMVToPeRm_8callisto14authentication5testss_35test_load_authorized_users_from_gcs
FNDA:1,_RNvNtNCNvNtNtCscBGMVToPeRm_8callisto14authentication5testss_35test_load_authorized_users_from_gcs04init4init
FNDA:1,_RNvNtNtCscBGMVToPeRm_8callisto14authentication5testss_36test_load_authorized_users_from_file
FNDA:1,_RNvNtNCNvNtNtCscBGMVToPeRm_8callisto14authentication5testss_36test_load_authorized_users_from_file04init4init
FNDA:1,_RNvNtNtCscBGMVToPeRm_8callisto14authentication5testss_38test_load_google_credentials_from_file
FNDA:1,_RNvNtNCNvNtNtCscBGMVToPeRm_8callisto14authentication5testss_38test_load_google_credentials_from_file04init4init
FNDA:1,_RNvNtNtCscBGMVToPeRm_8callisto14authentication5testss_29test_fetch_google_public_keys
FNDA:1,_RNvNtNCNvNtNtCscBGMVToPeRm_8callisto14authentication5testss_29test_fetch_google_public_keys04init4init
FNF:50
FNH:25
DA:56,3
DA:57,3
DA:58,0
DA:59,0
DA:60,0
DA:61,0
DA:62,3
DA:63,3
DA:64,3
DA:65,2
DA:66,2
DA:67,2
DA:68,2
DA:69,2
DA:70,2
DA:71,2
DA:72,2
DA:73,2
DA:74,2
DA:75,2
DA:77,2
DA:78,2
DA:80,3
DA:81,3
DA:82,3
DA:83,3
DA:84,3
DA:85,3
DA:86,3
DA:87,3
DA:91,3
DA:92,3
DA:93,3
DA:94,3
DA:95,3
DA:96,0
DA:97,0
DA:98,0
DA:99,0
DA:100,3
DA:101,3
DA:102,3
DA:103,3
DA:108,0
DA:109,0
DA:110,0
DA:115,0
DA:124,0
DA:125,0
DA:126,0
DA:127,0
DA:128,0
DA:129,0
DA:130,0
DA:131,0
DA:132,0
DA:133,0
DA:134,0
DA:135,0
DA:136,0
DA:137,0
DA:138,0
DA:139,0
DA:140,0
DA:142,0
DA:143,0
DA:144,0
DA:145,0
DA:146,0
DA:147,0
DA:150,0
DA:151,0
DA:152,0
DA:153,0
DA:154,0
DA:155,0
DA:156,0
DA:157,0
DA:158,0
DA:159,0
DA:160,0
DA:161,0
DA:162,0
DA:163,0
DA:164,0
DA:165,0
DA:166,0
DA:167,0
DA:168,0
DA:169,0
DA:170,0
DA:171,0
DA:172,0
DA:173,0
DA:174,0
DA:175,0
DA:176,0
DA:179,0
DA:180,0
DA:181,0
DA:182,0
DA:183,0
DA:184,0
DA:185,0
DA:186,0
DA:194,0
DA:195,0
DA:196,0
DA:197,0
DA:198,0
DA:199,0
DA:200,0
DA:201,0
DA:204,0
DA:206,0
DA:207,0
DA:212,0
DA:213,0
DA:214,0
DA:215,0
DA:216,0
DA:217,0
DA:218,0
DA:219,0
DA:220,0
DA:221,0
DA:222,0
DA:223,0
DA:224,0
DA:225,0
DA:226,0
DA:227,0
DA:228,0
DA:229,0
DA:230,0
DA:231,0
DA:232,0
DA:233,0
DA:234,0
DA:235,0
DA:236,0
DA:237,0
DA:238,0
DA:239,0
DA:240,0
DA:241,0
DA:242,0
DA:243,0
DA:244,0
DA:250,0
DA:251,0
DA:252,0
DA:254,0
DA:256,0
DA:261,0
DA:262,0
DA:263,0
DA:264,0
DA:265,0
DA:266,0
DA:267,0
DA:268,0
DA:269,0
DA:270,0
DA:271,0
DA:272,0
DA:273,0
DA:274,0
DA:275,0
DA:276,0
DA:278,0
DA:279,0
DA:280,0
DA:281,0
DA:284,0
DA:285,0
DA:286,0
DA:287,0
DA:289,0
DA:292,4
DA:293,4
DA:294,1
DA:295,1
DA:296,1
DA:297,1
DA:298,4
DA:299,4
DA:300,4
DA:301,0
DA:302,0
DA:303,0
DA:304,0
DA:305,4
DA:306,4
DA:307,4
DA:308,4
DA:310,4
DA:311,4
DA:312,4
DA:313,4
DA:314,4
DA:315,4
DA:316,4
DA:325,18
DA:326,18
DA:327,18
DA:328,18
DA:329,18
DA:330,18
DA:335,81
DA:336,81
DA:337,81
DA:342,18
DA:343,18
DA:344,18
DA:345,18
DA:346,18
DA:347,18
DA:348,18
DA:349,18
DA:350,36
DA:352,65
DA:353,65
DA:358,64
DA:362,1
DA:364,65
DA:369,0
DA:370,0
DA:371,0
DA:372,0
DA:373,0
DA:374,0
DA:375,0
DA:376,0
DA:377,0
DA:378,0
DA:389,0
DA:390,0
DA:391,0
DA:398,0
DA:399,0
DA:400,0
DA:409,0
DA:410,0
DA:411,0
DA:417,0
DA:429,0
DA:438,0
DA:448,6
DA:453,42
DA:461,27
DA:472,6
DA:482,1
DA:483,1
DA:484,1
DA:485,1
DA:486,1
DA:487,1
DA:488,1
DA:489,1
DA:490,1
DA:491,1
DA:492,1
DA:493,1
DA:494,1
DA:495,1
DA:496,1
DA:497,1
DA:498,1
DA:499,1
DA:500,1
DA:501,1
DA:502,1
DA:503,1
DA:504,1
DA:505,1
DA:506,1
DA:507,1
DA:512,2
DA:528,2
DA:541,2
DA:553,2
DA:564,2
BRF:0
BRH:0
LF:323
LH:138
end_of_record
SF:/Users/dan/dev/callisto/callisto/src/combat.rs
FN:17,_RNvNtCskkwNnPUyuBS_8callisto6combat4roll
FN:21,_RNvNtCskkwNnPUyuBS_8callisto6combat9roll_dice
FN:25,_RNvNtCskkwNnPUyuBS_8callisto6combat17task_chain_impact
FN:36,_RNvNtCskkwNnPUyuBS_8callisto6combat6attack
FN:236,_RNvNtCskkwNnPUyuBS_8callisto6combat11do_critical
FN:253,_RNvNtCskkwNnPUyuBS_8callisto6combat10apply_crit
FN:521,_RNvNtCskkwNnPUyuBS_8callisto6combat15find_range_band
FN:529,_RNvNtCskkwNnPUyuBS_8callisto6combat15do_fire_actions
FN:689,_RNvNtCskkwNnPUyuBS_8callisto6combat18create_sand_counts
FN:22,_RNCNvNtCskkwNnPUyuBS_8callisto6combat9roll_dice0B5_
FN:387,_RNCNvNtCskkwNnPUyuBS_8callisto6combat10apply_crit0B5_
FN:401,_RNCNvNtCskkwNnPUyuBS_8callisto6combat10apply_crits_0B5_
FN:403,_RNCNvNtCskkwNnPUyuBS_8callisto6combat10apply_crits0_0B5_
FN:524,_RNCNvNtCskkwNnPUyuBS_8callisto6combat15find_range_band0B5_
FN:549,_RNCNvNtCskkwNnPUyuBS_8callisto6combat15do_fire_actions0B5_
FN:692,_RNCNvNtCskkwNnPUyuBS_8callisto6combat18create_sand_counts0B5_
FN:699,_RNCNCNvNtCskkwNnPUyuBS_8callisto6combat18create_sand_counts00B7_
FN:22,_RNCNvNtCscBGMVToPeRm_8callisto6combat9roll_dice0B5_
FN:387,_RNCNvNtCscBGMVToPeRm_8callisto6combat10apply_crit0B5_
FN:401,_RNCNvNtCscBGMVToPeRm_8callisto6combat10apply_crits_0B5_
FN:403,_RNCNvNtCscBGMVToPeRm_8callisto6combat10apply_crits0_0B5_
FN:524,_RNCNvNtCscBGMVToPeRm_8callisto6combat15find_range_band0B5_
FN:549,_RNCNvNtCscBGMVToPeRm_8callisto6combat15do_fire_actions0B5_
FN:692,_RNCNvNtCscBGMVToPeRm_8callisto6combat18create_sand_counts0B5_
FN:699,_RNCNCNvNtCscBGMVToPeRm_8callisto6combat18create_sand_counts00B7_
FN:17,_RNvNtCscBGMVToPeRm_8callisto6combat4roll
FN:21,_RNvNtCscBGMVToPeRm_8callisto6combat9roll_dice
FN:25,_RNvNtCscBGMVToPeRm_8callisto6combat17task_chain_impact
FN:36,_RNvNtCscBGMVToPeRm_8callisto6combat6attack
FN:236,_RNvNtCscBGMVToPeRm_8callisto6combat11do_critical
FN:253,_RNvNtCscBGMVToPeRm_8callisto6combat10apply_crit
FN:521,_RNvNtCscBGMVToPeRm_8callisto6combat15find_range_band
FN:529,_RNvNtCscBGMVToPeRm_8callisto6combat15do_fire_actions
FN:689,_RNvNtCscBGMVToPeRm_8callisto6combat18create_sand_counts
FN:740,_RNvNtNtCscBGMVToPeRm_8callisto6combat5testss_25test_missile_fire_actions
FN:740,_RNvNtNvNtNtCscBGMVToPeRm_8callisto6combat5testss_25test_missile_fire_actions4init4init
FN:855,_RNvNtNtCscBGMVToPeRm_8callisto6combat5testss_15test_apply_crit
FN:855,_RNvNtNvNtNtCscBGMVToPeRm_8callisto6combat5testss_15test_apply_crit4init4init
FN:1093,_RNvNtNtCscBGMVToPeRm_8callisto6combat5testss_11test_attack
FN:1093,_RNvNtNvNtNtCscBGMVToPeRm_8callisto6combat5testss_11test_attack4init4init
FN:836,_RNCNvNtNtCscBGMVToPeRm_8callisto6combat5testss_25test_missile_fire_actions0B7_
FN:873,_RNCNvNtNtCscBGMVToPeRm_8callisto6combat5testss_15test_apply_crit0B7_
FN:926,_RNCNvNtNtCscBGMVToPeRm_8callisto6combat5testss_15test_apply_crits_0B7_
FN:937,_RNCNvNtNtCscBGMVToPeRm_8callisto6combat5testss_15test_apply_crits0_0B7_
FN:955,_RNCNvNtNtCscBGMVToPeRm_8callisto6combat5testss_15test_apply_crits1_0B7_
FN:1000,_RNCNvNtNtCscBGMVToPeRm_8callisto6combat5testss_15test_apply_crits2_0B7_
FN:1013,_RNCNvNtNtCscBGMVToPeRm_8callisto6combat5testss_15test_apply_crits3_0B7_
FN:1056,_RNCNvNtNtCscBGMVToPeRm_8callisto6combat5testss_15test_apply_crits4_0B7_
FN:1066,_RNCNvNtNtCscBGMVToPeRm_8callisto6combat5testss_15test_apply_crits5_0B7_
FN:1326,_RNCNvNtNtCscBGMVToPeRm_8callisto6combat5testss_11test_attack0B7_
FN:1210,_RNCNvNtNtCscBGMVToPeRm_8callisto6combat5testss_11test_attacks_0B7_
FN:1218,_RNCNvNtNtCscBGMVToPeRm_8callisto6combat5testss_11test_attacks0_0B7_
FN:1232,_RNCNvNtNtCscBGMVToPeRm_8callisto6combat5testss_11test_attacks1_0B7_
FN:1238,_RNCNvNtNtCscBGMVToPeRm_8callisto6combat5testss_11test_attacks2_0B7_
FN:1286,_RNCNvNtNtCscBGMVToPeRm_8callisto6combat5testss_11test_attacks3_0B7_
FN:1305,_RNCNvNtNtCscBGMVToPeRm_8callisto6combat5testss_11test_attacks4_0B7_
FN:1356,_RNCNvNtNtCscBGMVToPeRm_8callisto6combat5testss_11test_attacks5_0B7_
FNDA:18,_RNvNtCskkwNnPUyuBS_8callisto6combat4roll
FNDA:6,_RNvNtCskkwNnPUyuBS_8callisto6combat9roll_dice
FNDA:0,_RNvNtCskkwNnPUyuBS_8callisto6combat17task_chain_impact
FNDA:3,_RNvNtCskkwNnPUyuBS_8callisto6combat6attack
FNDA:0,_RNvNtCskkwNnPUyuBS_8callisto6combat11do_critical
FNDA:0,_RNvNtCskkwNnPUyuBS_8callisto6combat10apply_crit
FNDA:0,_RNvNtCskkwNnPUyuBS_8callisto6combat15find_range_band
FNDA:1,_RNvNtCskkwNnPUyuBS_8callisto6combat15do_fire_actions
FNDA:2,_RNvNtCskkwNnPUyuBS_8callisto6combat18create_sand_counts
FNDA:18,_RNCNvNtCskkwNnPUyuBS_8callisto6combat9roll_dice0B5_
FNDA:0,_RNCNvNtCskkwNnPUyuBS_8callisto6combat10apply_crit0B5_
FNDA:0,_RNCNvNtCskkwNnPUyuBS_8callisto6combat10apply_crits_0B5_
FNDA:0,_RNCNvNtCskkwNnPUyuBS_8callisto6combat10apply_crits0_0B5_
FNDA:0,_RNCNvNtCskkwNnPUyuBS_8callisto6combat15find_range_band0B5_
FNDA:1,_RNCNvNtCskkwNnPUyuBS_8callisto6combat15do_fire_actions0B5_
FNDA:3,_RNCNvNtCskkwNnPUyuBS_8callisto6combat18create_sand_counts0B5_
FNDA:8,_RNCNCNvNtCskkwNnPUyuBS_8callisto6combat18create_sand_counts00B7_
FNDA:1125,_RNCNvNtCscBGMVToPeRm_8callisto6combat9roll_dice0B5_
FNDA:93,_RNCNvNtCscBGMVToPeRm_8callisto6combat10apply_crit0B5_
FNDA:61,_RNCNvNtCscBGMVToPeRm_8callisto6combat10apply_crits_0B5_
FNDA:21,_RNCNvNtCscBGMVToPeRm_8callisto6combat10apply_crits0_0B5_
FNDA:48,_RNCNvNtCscBGMVToPeRm_8callisto6combat15find_range_band0B5_
FNDA:55,_RNCNvNtCscBGMVToPeRm_8callisto6combat15do_fire_actions0B5_
FNDA:40,_RNCNvNtCscBGMVToPeRm_8callisto6combat18create_sand_counts0B5_
FNDA:138,_RNCNCNvNtCscBGMVToPeRm_8callisto6combat18create_sand_counts00B7_
FNDA:1153,_RNvNtCscBGMVToPeRm_8callisto6combat4roll
FNDA:418,_RNvNtCscBGMVToPeRm_8callisto6combat9roll_dice
FNDA:2,_RNvNtCscBGMVToPeRm_8callisto6combat17task_chain_impact
FNDA:81,_RNvNtCscBGMVToPeRm_8callisto6combat6attack
FNDA:179,_RNvNtCscBGMVToPeRm_8callisto6combat11do_critical
FNDA:264,_RNvNtCscBGMVToPeRm_8callisto6combat10apply_crit
FNDA:48,_RNvNtCscBGMVToPeRm_8callisto6combat15find_range_band
FNDA:14,_RNvNtCscBGMVToPeRm_8callisto6combat15do_fire_actions
FNDA:20,_RNvNtCscBGMVToPeRm_8callisto6combat18create_sand_counts
FNDA:1,_RNvNtNtCscBGMVToPeRm_8callisto6combat5testss_25test_missile_fire_actions
FNDA:1,_RNvNtNvNtNtCscBGMVToPeRm_8callisto6combat5testss_25test_missile_fire_actions4init4init
FNDA:1,_RNvNtNtCscBGMVToPeRm_8callisto6combat5testss_15test_apply_crit
FNDA:1,_RNvNtNvNtNtCscBGMVToPeRm_8callisto6combat5testss_15test_apply_crit4init4init
FNDA:1,_RNvNtNtCscBGMVToPeRm_8callisto6combat5testss_11test_attack
FNDA:1,_RNvNtNvNtNtCscBGMVToPeRm_8callisto6combat5testss_11test_attack4init4init
FNDA:3,_RNCNvNtNtCscBGMVToPeRm_8callisto6combat5testss_25test_missile_fire_actions0B7_
FNDA:6,_RNCNvNtNtCscBGMVToPeRm_8callisto6combat5testss_15test_apply_crit0B7_
FNDA:6,_RNCNvNtNtCscBGMVToPeRm_8callisto6combat5testss_15test_apply_crits_0B7_
FNDA:6,_RNCNvNtNtCscBGMVToPeRm_8callisto6combat5testss_15test_apply_crits0_0B7_
FNDA:6,_RNCNvNtNtCscBGMVToPeRm_8callisto6combat5testss_15test_apply_crits1_0B7_
FNDA:6,_RNCNvNtNtCscBGMVToPeRm_8callisto6combat5testss_15test_apply_crits2_0B7_
FNDA:6,_RNCNvNtNtCscBGMVToPeRm_8callisto6combat5testss_15test_apply_crits3_0B7_
FNDA:6,_RNCNvNtNtCscBGMVToPeRm_8callisto6combat5testss_15test_apply_crits4_0B7_
FNDA:6,_RNCNvNtNtCscBGMVToPeRm_8callisto6combat5testss_15test_apply_crits5_0B7_
FNDA:5,_RNCNvNtNtCscBGMVToPeRm_8callisto6combat5testss_11test_attack0B7_
FNDA:4,_RNCNvNtNtCscBGMVToPeRm_8callisto6combat5testss_11test_attacks_0B7_
FNDA:10,_RNCNvNtNtCscBGMVToPeRm_8callisto6combat5testss_11test_attacks0_0B7_
FNDA:8,_RNCNvNtNtCscBGMVToPeRm_8callisto6combat5testss_11test_attacks1_0B7_
FNDA:1,_RNCNvNtNtCscBGMVToPeRm_8callisto6combat5testss_11test_attacks2_0B7_
FNDA:1,_RNCNvNtNtCscBGMVToPeRm_8callisto6combat5testss_11test_attacks3_0B7_
FNDA:3,_RNCNvNtNtCscBGMVToPeRm_8callisto6combat5testss_11test_attacks4_0B7_
FNDA:2,_RNCNvNtNtCscBGMVToPeRm_8callisto6combat5testss_11test_attacks5_0B7_
FNF:40
FNH:40
DA:17,1171
DA:18,1171
DA:19,1171
DA:21,424
DA:22,1143
DA:23,424
DA:25,2
DA:26,2
DA:27,2
DA:28,2
DA:29,0
DA:30,0
DA:31,2
DA:32,0
DA:34,2
DA:36,84
DA:37,84
DA:38,84
DA:39,84
DA:40,84
DA:41,84
DA:42,84
DA:43,84
DA:44,84
DA:50,84
DA:57,3
DA:58,3
DA:60,81
DA:63,84
DA:64,48
DA:65,48
DA:66,48
DA:68,36
DA:82,84
DA:83,84
DA:84,84
DA:85,84
DA:86,84
DA:91,23
DA:92,23
DA:93,23
DA:94,23
DA:95,23
DA:96,23
DA:97,61
DA:98,61
DA:99,61
DA:100,61
DA:101,61
DA:102,61
DA:103,61
DA:104,61
DA:105,61
DA:106,61
DA:107,61
DA:108,61
DA:109,61
DA:110,61
DA:111,61
DA:112,61
DA:113,61
DA:114,61
DA:115,61
DA:116,61
DA:117,61
DA:118,61
DA:119,61
DA:120,61
DA:121,61
DA:122,61
DA:123,61
DA:124,61
DA:125,61
DA:126,61
DA:127,61
DA:128,61
DA:129,13
DA:130,13
DA:131,13
DA:132,13
DA:133,13
DA:134,13
DA:135,48
DA:138,48
DA:140,14
DA:141,14
DA:142,14
DA:143,14
DA:144,14
DA:145,14
DA:146,14
DA:147,14
DA:148,14
DA:149,14
DA:150,14
DA:151,14
DA:154,34
DA:155,24
DA:156,24
DA:157,24
DA:158,7
DA:159,7
DA:160,7
DA:161,3
DA:162,1
DA:163,1
DA:164,1
DA:165,1
DA:166,1
DA:167,1
DA:168,1
DA:169,1
DA:170,1
DA:173,34
DA:174,34
DA:175,34
DA:176,34
DA:177,34
DA:178,34
DA:179,34
DA:180,34
DA:181,34
DA:182,34
DA:183,34
DA:184,34
DA:185,34
DA:186,34
DA:197,48
DA:198,48
DA:199,48
DA:200,9
DA:201,9
DA:202,9
DA:203,9
DA:204,9
DA:205,9
DA:206,9
DA:207,9
DA:208,9
DA:209,9
DA:210,9
DA:211,9
DA:212,39
DA:213,48
DA:214,48
DA:215,48
DA:216,48
DA:217,48
DA:218,48
DA:219,48
DA:220,48
DA:221,48
DA:222,48
DA:223,48
DA:224,48
DA:225,48
DA:226,48
DA:227,48
DA:228,170
DA:229,170
DA:230,170
DA:232,48
DA:233,48
DA:234,84
DA:236,179
DA:237,179
DA:238,179
DA:239,179
DA:240,179
DA:241,179
DA:242,179
DA:243,179
DA:244,179
DA:245,179
DA:246,179
DA:247,179
DA:248,179
DA:249,179
DA:250,179
DA:251,179
DA:253,264
DA:254,264
DA:255,264
DA:256,264
DA:257,264
DA:258,264
DA:259,264
DA:260,264
DA:261,264
DA:262,264
DA:263,59
DA:264,59
DA:265,59
DA:266,59
DA:267,59
DA:268,59
DA:269,59
DA:270,59
DA:271,59
DA:272,59
DA:273,59
DA:274,59
DA:275,59
DA:276,59
DA:277,59
DA:278,59
DA:280,205
DA:281,205
DA:282,205
DA:285,3
DA:286,3
DA:287,3
DA:288,3
DA:289,3
DA:292,2
DA:293,2
DA:294,2
DA:295,2
DA:296,2
DA:299,8
DA:300,2
DA:301,2
DA:302,2
DA:303,2
DA:304,2
DA:306,6
DA:307,6
DA:308,6
DA:309,6
DA:310,6
DA:311,6
DA:315,3
DA:316,3
DA:317,3
DA:318,3
DA:319,3
DA:320,3
DA:323,2
DA:324,2
DA:325,2
DA:326,2
DA:327,2
DA:329,9
DA:330,7
DA:331,7
DA:332,7
DA:333,7
DA:334,7
DA:335,7
DA:337,2
DA:338,2
DA:339,2
DA:340,2
DA:341,2
DA:342,2
DA:343,2
DA:344,2
DA:345,2
DA:346,2
DA:347,2
DA:348,2
DA:349,2
DA:351,18
DA:352,12
DA:353,5
DA:354,4
DA:355,3
DA:356,0
DA:358,12
DA:359,12
DA:360,12
DA:361,12
DA:362,12
DA:363,12
DA:365,6
DA:366,6
DA:367,6
DA:368,6
DA:369,6
DA:370,6
DA:371,6
DA:372,6
DA:373,6
DA:374,6
DA:375,6
DA:376,6
DA:377,6
DA:380,7
DA:381,7
DA:382,7
DA:383,7
DA:384,7
DA:386,23
DA:387,93
DA:388,23
DA:389,21
DA:390,21
DA:391,21
DA:392,21
DA:393,21
DA:394,21
DA:395,21
DA:396,21
DA:397,21
DA:398,21
DA:399,21
DA:400,21
DA:401,61
DA:402,21
DA:403,21
DA:404,21
DA:405,21
DA:406,21
DA:407,21
DA:408,21
DA:409,21
DA:410,21
DA:411,21
DA:413,2
DA:414,2
DA:415,2
DA:416,2
DA:418,23
DA:419,3
DA:420,2
DA:421,18
DA:423,23
DA:425,15
DA:426,15
DA:427,4
DA:428,3
DA:429,8
DA:430,4
DA:433,15
DA:434,15
DA:435,15
DA:436,15
DA:437,15
DA:438,15
DA:439,15
DA:440,4
DA:441,11
DA:442,15
DA:444,22
DA:445,22
DA:446,22
DA:447,22
DA:448,22
DA:449,22
DA:450,22
DA:451,22
DA:454,3
DA:455,3
DA:456,3
DA:457,3
DA:458,3
DA:461,2
DA:462,2
DA:463,2
DA:464,2
DA:465,2
DA:466,2
DA:467,2
DA:468,2
DA:469,2
DA:470,2
DA:471,2
DA:472,2
DA:475,21
DA:476,21
DA:477,21
DA:478,21
DA:479,21
DA:482,16
DA:483,16
DA:484,16
DA:485,16
DA:486,16
DA:488,6
DA:489,6
DA:490,6
DA:491,6
DA:492,6
DA:494,12
DA:495,12
DA:496,12
DA:497,12
DA:498,12
DA:499,12
DA:500,12
DA:501,6
DA:502,6
DA:503,12
DA:506,21
DA:507,21
DA:508,21
DA:509,21
DA:510,21
DA:512,12
DA:513,12
DA:514,12
DA:515,12
DA:516,12
DA:519,264
DA:521,48
DA:522,48
DA:523,48
DA:524,48
DA:525,48
DA:526,48
DA:529,15
DA:530,15
DA:531,15
DA:532,15
DA:533,15
DA:534,15
DA:535,15
DA:536,15
DA:538,15
DA:539,2
DA:540,2
DA:541,2
DA:542,2
DA:544,13
DA:547,15
DA:548,15
DA:549,56
DA:550,56
DA:551,56
DA:552,56
DA:557,0
DA:558,56
DA:559,56
DA:560,56
DA:561,56
DA:562,56
DA:563,56
DA:564,56
DA:565,56
DA:566,56
DA:567,56
DA:568,56
DA:569,56
DA:570,56
DA:571,56
DA:576,0
DA:577,56
DA:578,56
DA:579,56
DA:580,56
DA:581,56
DA:582,56
DA:583,56
DA:586,17
DA:587,13
DA:588,1
DA:589,1
DA:590,1
DA:591,1
DA:593,197
DA:594,197
DA:595,197
DA:596,197
DA:597,197
DA:598,197
DA:607,17
DA:608,17
DA:609,17
DA:610,17
DA:611,17
DA:612,17
DA:622,23
DA:623,23
DA:624,9
DA:625,9
DA:626,9
DA:627,9
DA:628,9
DA:636,4
DA:637,4
DA:638,4
DA:639,4
DA:640,4
DA:641,4
DA:642,4
DA:652,5
DA:653,5
DA:654,5
DA:655,5
DA:656,5
DA:665,14
DA:669,23
DA:670,23
DA:680,16
DA:683,56
DA:684,15
DA:685,15
DA:686,15
DA:687,15
DA:689,22
DA:690,22
DA:691,22
DA:692,43
DA:693,43
DA:694,43
DA:695,43
DA:696,43
DA:697,43
DA:698,43
DA:699,146
DA:700,146
DA:701,38
DA:702,38
DA:703,38
DA:707,0
DA:711,0
DA:715,108
DA:717,146
DA:718,43
DA:719,43
DA:720,43
DA:721,22
DA:722,22
DA:740,1
DA:836,3
DA:855,1
DA:873,6
DA:926,6
DA:937,6
DA:955,6
DA:1000,6
DA:1013,6
DA:1056,6
DA:1066,6
DA:1093,1
DA:1210,4
DA:1218,10
DA:1232,8
DA:1238,1
DA:1286,1
DA:1305,3
DA:1326,5
DA:1356,2
BRF:0
BRH:0
LF:557
LH:549
end_of_record
SF:/Users/dan/dev/callisto/callisto/src/computer.rs
FN:20,_RINvXNvXNvNtCskkwNnPUyuBS_8callisto8computers_1__NtB8_16FlightPathResultNtNtCs8pDKiTx8cJZ_5serde2de11Deserialize11deserializeNtB3_14___FieldVisitorNtB1a_7Visitor9visit_u64pEBa_
FN:20,_RINvXNvXNvNtCskkwNnPUyuBS_8callisto8computers_1__NtB8_16FlightPathResultNtNtCs8pDKiTx8cJZ_5serde2de11Deserialize11deserializeNtB3_14___FieldVisitorNtB1a_7Visitor9visit_strpEBa_
FN:20,_RINvXNvXNvNtCskkwNnPUyuBS_8callisto8computers_1__NtB8_16FlightPathResultNtNtCs8pDKiTx8cJZ_5serde2de11Deserialize11deserializeNtB3_14___FieldVisitorNtB1a_7Visitor11visit_bytespEBa_
FN:20,_RINvXs_NvXNvNtCskkwNnPUyuBS_8callisto8computers_1__NtBa_16FlightPathResultNtNtCs8pDKiTx8cJZ_5serde2de11Deserialize11deserializeNtB5_7___FieldB1a_11deserializepEBc_
FN:20,_RINvXs0_NvXNvNtCskkwNnPUyuBS_8callisto8computers_1__NtBb_16FlightPathResultNtNtCs8pDKiTx8cJZ_5serde2de11Deserialize11deserializeNtB6_9___VisitorNtB1d_7Visitor9visit_seqpEBd_
FN:20,_RINvXNvXs0_NvXNvNtCskkwNnPUyuBS_8callisto8computers_1__NtBe_16FlightPathResultNtNtCs8pDKiTx8cJZ_5serde2de11Deserialize11deserializeNtB9_9___VisitorNtB1g_7Visitor9visit_seqNtB3_17___DeserializeWithB1e_11deserializepEBg_
FN:20,_RNCINvXs0_NvXNvNtCskkwNnPUyuBS_8callisto8computers_1__NtBd_16FlightPathResultNtNtCs8pDKiTx8cJZ_5serde2de11Deserialize11deserializeNtB8_9___VisitorNtB1f_7Visitor9visit_seqpE0Bf_
FN:20,_RINvXs_NvXs0_NvXNvNtCskkwNnPUyuBS_8callisto8computers_1__NtBg_16FlightPathResultNtNtCs8pDKiTx8cJZ_5serde2de11Deserialize11deserializeNtBb_9___VisitorNtB1i_7Visitor9visit_seqNtB5_s_17___DeserializeWithB1g_11deserializepEBi_
FN:20,_RNCINvXs0_NvXNvNtCskkwNnPUyuBS_8callisto8computers_1__NtBd_16FlightPathResultNtNtCs8pDKiTx8cJZ_5serde2de11Deserialize11deserializeNtB8_9___VisitorNtB1f_7Visitor9visit_seqpEs_0Bf_
FN:20,_RINvXs0_NvXNvNtCskkwNnPUyuBS_8callisto8computers_1__NtBb_16FlightPathResultNtNtCs8pDKiTx8cJZ_5serde2de11Deserialize11deserializeNtB6_9___VisitorNtB1d_7Visitor9visit_mappEBd_
FN:20,_RINvXNvXs0_NvXNvNtCskkwNnPUyuBS_8callisto8computers_1__NtBe_16FlightPathResultNtNtCs8pDKiTx8cJZ_5serde2de11Deserialize11deserializeNtB9_9___VisitorNtB1g_7Visitor9visit_mapNtB3_17___DeserializeWithB1e_11deserializepEBg_
FN:20,_RINvXs_NvXs0_NvXNvNtCskkwNnPUyuBS_8callisto8computers_1__NtBg_16FlightPathResultNtNtCs8pDKiTx8cJZ_5serde2de11Deserialize11deserializeNtBb_9___VisitorNtB1i_7Visitor9visit_mapNtB5_s_17___DeserializeWithB1g_11deserializepEBi_
FN:52,_RNvMNtCskkwNnPUyuBS_8callisto8computerNtB2_12FlightParams3new
FN:70,_RNvMNtCskkwNnPUyuBS_8callisto8computerNtB2_12FlightParams6pos_eq
FN:84,_RNvMNtCskkwNnPUyuBS_8callisto8computerNtB2_12FlightParams6vel_eq
FN:92,_RNvMNtCskkwNnPUyuBS_8callisto8computerNtB2_12FlightParams10best_guess
FN:164,_RNvMNtCskkwNnPUyuBS_8callisto8computerNtB2_12FlightParams19compute_flight_path
FN:279,_RNvXs_NtCskkwNnPUyuBS_8callisto8computerNtB4_12FlightParamsNtNtNtCs88r7ZwTzZan_5gomez4core4base7Problem6domain
FN:358,_RNvMs1_NtCskkwNnPUyuBS_8callisto8computerNtB5_12TargetParams3new
FN:374,_RNvMs1_NtCskkwNnPUyuBS_8callisto8computerNtB5_12TargetParams5solve
FN:395,_RNvMs1_NtCskkwNnPUyuBS_8callisto8computerNtB5_12TargetParams12compute_path
FN:421,_RNvMs1_NtCskkwNnPUyuBS_8callisto8computerNtB5_12TargetParams19compute_target_path
FN:513,_RNvXs2_NtCskkwNnPUyuBS_8callisto8computerNtB5_12TargetParamsNtNtNtCs88r7ZwTzZan_5gomez4core4base7Problem6domain
FN:20,_RNvXNvXNvNtCskkwNnPUyuBS_8callisto8computers_1__NtB7_16FlightPathResultNtNtCs8pDKiTx8cJZ_5serde2de11Deserialize11deserializeNtB2_14___FieldVisitorNtB19_7Visitor9expecting
FN:20,_RNvXs0_NvXNvNtCskkwNnPUyuBS_8callisto8computers_1__NtBa_16FlightPathResultNtNtCs8pDKiTx8cJZ_5serde2de11Deserialize11deserializeNtB5_9___VisitorNtB1c_7Visitor9expecting
FN:177,_RNCNvMNtCskkwNnPUyuBS_8callisto8computerNtB4_12FlightParams19compute_flight_path0B6_
FN:311,_RINvXs0_NtCskkwNnPUyuBS_8callisto8computerNtB6_12FlightParamsNtNtNtCs88r7ZwTzZan_5gomez4core6system6System4evalINtNtNtCs90H57Cots21_8nalgebra4base11vec_storage10VecStoragedNtNtB1Q_9dimension3DynINtB2M_5ConstKj1_EEB1L_EB8_
FN:311,_RINvXs0_NtCskkwNnPUyuBS_8callisto8computerNtB6_12FlightParamsNtNtNtCs88r7ZwTzZan_5gomez4core6system6System4evalINtNtNtCs90H57Cots21_8nalgebra4base11vec_storage10VecStoragedNtNtB1Q_9dimension3DynINtB2M_5ConstKj1_EEINtNtB1Q_11matrix_view14ViewStorageMutdB2K_B36_B36_B2K_EEB8_
FN:381,_RNCNvMs1_NtCskkwNnPUyuBS_8callisto8computerNtB7_12TargetParams5solve0B9_
FN:439,_RNCNvMs1_NtCskkwNnPUyuBS_8callisto8computerNtB7_12TargetParams19compute_target_path0B9_
FN:480,_RNCNvMs1_NtCskkwNnPUyuBS_8callisto8computerNtB7_12TargetParams19compute_target_paths_0B9_
FN:487,_RNCNvMs1_NtCskkwNnPUyuBS_8callisto8computerNtB7_12TargetParams19compute_target_paths0_0B9_
FN:532,_RINvXs3_NtCskkwNnPUyuBS_8callisto8computerNtB6_12TargetParamsNtNtNtCs88r7ZwTzZan_5gomez4core6system6System4evalINtNtNtCs90H57Cots21_8nalgebra4base11vec_storage10VecStoragedNtNtB1Q_9dimension3DynINtB2M_5ConstKj1_EEB1L_EB8_
FN:532,_RINvXs3_NtCskkwNnPUyuBS_8callisto8computerNtB6_12TargetParamsNtNtNtCs88r7ZwTzZan_5gomez4core6system6System4evalINtNtNtCs90H57Cots21_8nalgebra4base11vec_storage10VecStoragedNtNtB1Q_9dimension3DynINtB2M_5ConstKj1_EEINtNtB1Q_11matrix_view14ViewStorageMutdB2K_B36_B36_B2K_EEB8_
FN:20,_RINvXNvXNvNtCskkwNnPUyuBS_8callisto8computer1__NtB8_16FlightPathResultNtNtCs8pDKiTx8cJZ_5serde3ser9Serialize9serializeNtB3_15___SerializeWithB16_9serializeQINtNtCse3EK68OXEkC_10serde_json3ser10SerializerQINtNtCsdze8u8oDPro_5alloc3vec3VechEEEBa_
FN:20,_RINvXs_NvXNvNtCskkwNnPUyuBS_8callisto8computer1__NtBa_16FlightPathResultNtNtCs8pDKiTx8cJZ_5serde3ser9Serialize9serializeNtB5_s_15___SerializeWithB18_9serializeQINtNtCse3EK68OXEkC_10serde_json3ser10SerializerQINtNtCsdze8u8oDPro_5alloc3vec3VechEEEBc_
FN:20,_RNvXNvXNvNtCscBGMVToPeRm_8callisto8computers_1__NtB7_16FlightPathResultNtNtCs8pDKiTx8cJZ_5serde2de11Deserialize11deserializeNtB2_14___FieldVisitorNtB19_7Visitor9expecting
FN:20,_RINvXNvXNvNtCscBGMVToPeRm_8callisto8computers_1__NtB8_16FlightPathResultNtNtCs8pDKiTx8cJZ_5serde2de11Deserialize11deserializeNtB3_14___FieldVisitorNtB1a_7Visitor9visit_u64pEBa_
FN:20,_RINvXNvXNvNtCscBGMVToPeRm_8callisto8computers_1__NtB8_16FlightPathResultNtNtCs8pDKiTx8cJZ_5serde2de11Deserialize11deserializeNtB3_14___FieldVisitorNtB1a_7Visitor11visit_bytespEBa_
FN:52,_RNvMNtCscBGMVToPeRm_8callisto8computerNtB2_12FlightParams3new
FN:70,_RNvMNtCscBGMVToPeRm_8callisto8computerNtB2_12FlightParams6pos_eq
FN:84,_RNvMNtCscBGMVToPeRm_8callisto8computerNtB2_12FlightParams6vel_eq
FN:92,_RNvMNtCscBGMVToPeRm_8callisto8computerNtB2_12FlightParams10best_guess
FN:164,_RNvMNtCscBGMVToPeRm_8callisto8computerNtB2_12FlightParams19compute_flight_path
FN:279,_RNvXs_NtCscBGMVToPeRm_8callisto8computerNtB4_12FlightParamsNtNtNtCs88r7ZwTzZan_5gomez4core4base7Problem6domain
FN:358,_RNvMs1_NtCscBGMVToPeRm_8callisto8computerNtB5_12TargetParams3new
FN:374,_RNvMs1_NtCscBGMVToPeRm_8callisto8computerNtB5_12TargetParams5solve
FN:395,_RNvMs1_NtCscBGMVToPeRm_8callisto8computerNtB5_12TargetParams12compute_path
FN:421,_RNvMs1_NtCscBGMVToPeRm_8callisto8computerNtB5_12TargetParams19compute_target_path
FN:513,_RNvXs2_NtCscBGMVToPeRm_8callisto8computerNtB5_12TargetParamsNtNtNtCs88r7ZwTzZan_5gomez4core4base7Problem6domain
FN:20,_RNvXs0_NvXNvNtCscBGMVToPeRm_8callisto8computers_1__NtBa_16FlightPathResultNtNtCs8pDKiTx8cJZ_5serde2de11Deserialize11deserializeNtB5_9___VisitorNtB1c_7Visitor9expecting
FN:177,_RNCNvMNtCscBGMVToPeRm_8callisto8computerNtB4_12FlightParams19compute_flight_path0B6_
FN:311,_RINvXs0_NtCscBGMVToPeRm_8callisto8computerNtB6_12FlightParamsNtNtNtCs88r7ZwTzZan_5gomez4core6system6System4evalINtNtNtCs90H57Cots21_8nalgebra4base11vec_storage10VecStoragedNtNtB1Q_9dimension3DynINtB2M_5ConstKj1_EEB1L_EB8_
FN:311,_RINvXs0_NtCscBGMVToPeRm_8callisto8computerNtB6_12FlightParamsNtNtNtCs88r7ZwTzZan_5gomez4core6system6System4evalINtNtNtCs90H57Cots21_8nalgebra4base11vec_storage10VecStoragedNtNtB1Q_9dimension3DynINtB2M_5ConstKj1_EEINtNtB1Q_11matrix_view14ViewStorageMutdB2K_B36_B36_B2K_EEB8_
FN:381,_RNCNvMs1_NtCscBGMVToPeRm_8callisto8computerNtB7_12TargetParams5solve0B9_
FN:439,_RNCNvMs1_NtCscBGMVToPeRm_8callisto8computerNtB7_12TargetParams19compute_target_path0B9_
FN:480,_RNCNvMs1_NtCscBGMVToPeRm_8callisto8computerNtB7_12TargetParams19compute_target_paths_0B9_
FN:487,_RNCNvMs1_NtCscBGMVToPeRm_8callisto8computerNtB7_12TargetParams19compute_target_paths0_0B9_
FN:532,_RINvXs3_NtCscBGMVToPeRm_8callisto8computerNtB6_12TargetParamsNtNtNtCs88r7ZwTzZan_5gomez4core6system6System4evalINtNtNtCs90H57Cots21_8nalgebra4base11vec_storage10VecStoragedNtNtB1Q_9dimension3DynINtB2M_5ConstKj1_EEB1L_EB8_
FN:532,_RINvXs3_NtCscBGMVToPeRm_8callisto8computerNtB6_12TargetParamsNtNtNtCs88r7ZwTzZan_5gomez4core6system6System4evalINtNtNtCs90H57Cots21_8nalgebra4base11vec_storage10VecStoragedNtNtB1Q_9dimension3DynINtB2M_5ConstKj1_EEINtNtB1Q_11matrix_view14ViewStorageMutdB2K_B36_B36_B2K_EEB8_
FN:20,_RINvXNvXNvNtCscBGMVToPeRm_8callisto8computer1__NtB8_16FlightPathResultNtNtCs8pDKiTx8cJZ_5serde3ser9Serialize9serializeNtB3_15___SerializeWithB16_9serializeQINtNtCse3EK68OXEkC_10serde_json3ser10SerializerQINtNtCsdze8u8oDPro_5alloc3vec3VechEEEBa_
FN:20,_RINvXs_NvXNvNtCscBGMVToPeRm_8callisto8computer1__NtBa_16FlightPathResultNtNtCs8pDKiTx8cJZ_5serde3ser9Serialize9serializeNtB5_s_15___SerializeWithB18_9serializeQINtNtCse3EK68OXEkC_10serde_json3ser10SerializerQINtNtCsdze8u8oDPro_5alloc3vec3VechEEEBc_
FN:20,_RINvXNvXNvNtCscBGMVToPeRm_8callisto8computers_1__NtB8_16FlightPathResultNtNtCs8pDKiTx8cJZ_5serde2de11Deserialize11deserializeNtB3_14___FieldVisitorNtB1a_7Visitor9visit_strNtNtCse3EK68OXEkC_10serde_json5error5ErrorEBa_
FN:20,_RINvXs_NvXNvNtCscBGMVToPeRm_8callisto8computers_1__NtBa_16FlightPathResultNtNtCs8pDKiTx8cJZ_5serde2de11Deserialize11deserializeNtB5_7___FieldB1a_11deserializeINtNtCse3EK68OXEkC_10serde_json2de6MapKeyNtNtB2B_4read7StrReadEEBc_
FN:20,_RINvXs0_NvXNvNtCscBGMVToPeRm_8callisto8computers_1__NtBb_16FlightPathResultNtNtCs8pDKiTx8cJZ_5serde2de11Deserialize11deserializeNtB6_9___VisitorNtB1d_7Visitor9visit_seqINtNtCse3EK68OXEkC_10serde_json2de9SeqAccessNtNtB2L_4read7StrReadEEBd_
FN:20,_RINvXNvXs0_NvXNvNtCscBGMVToPeRm_8callisto8computers_1__NtBe_16FlightPathResultNtNtCs8pDKiTx8cJZ_5serde2de11Deserialize11deserializeNtB9_9___VisitorNtB1g_7Visitor9visit_seqNtB3_17___DeserializeWithB1e_11deserializeQINtNtCse3EK68OXEkC_10serde_json2de12DeserializerNtNtB3v_4read7StrReadEEBg_
FN:20,_RNCINvXs0_NvXNvNtCscBGMVToPeRm_8callisto8computers_1__NtBd_16FlightPathResultNtNtCs8pDKiTx8cJZ_5serde2de11Deserialize11deserializeNtB8_9___VisitorNtB1f_7Visitor9visit_seqINtNtCse3EK68OXEkC_10serde_json2de9SeqAccessNtNtB2N_4read7StrReadEE0Bf_
FN:20,_RINvXs_NvXs0_NvXNvNtCscBGMVToPeRm_8callisto8computers_1__NtBg_16FlightPathResultNtNtCs8pDKiTx8cJZ_5serde2de11Deserialize11deserializeNtBb_9___VisitorNtB1i_7Visitor9visit_seqNtB5_s_17___DeserializeWithB1g_11deserializeQINtNtCse3EK68OXEkC_10serde_json2de12DeserializerNtNtB3z_4read7StrReadEEBi_
FN:20,_RNCINvXs0_NvXNvNtCscBGMVToPeRm_8callisto8computers_1__NtBd_16FlightPathResultNtNtCs8pDKiTx8cJZ_5serde2de11Deserialize11deserializeNtB8_9___VisitorNtB1f_7Visitor9visit_seqINtNtCse3EK68OXEkC_10serde_json2de9SeqAccessNtNtB2N_4read7StrReadEEs_0Bf_
FN:20,_RINvXs0_NvXNvNtCscBGMVToPeRm_8callisto8computers_1__NtBb_16FlightPathResultNtNtCs8pDKiTx8cJZ_5serde2de11Deserialize11deserializeNtB6_9___VisitorNtB1d_7Visitor9visit_mapINtNtCse3EK68OXEkC_10serde_json2de9MapAccessNtNtB2L_4read7StrReadEEBd_
FN:20,_RINvXNvXs0_NvXNvNtCscBGMVToPeRm_8callisto8computers_1__NtBe_16FlightPathResultNtNtCs8pDKiTx8cJZ_5serde2de11Deserialize11deserializeNtB9_9___VisitorNtB1g_7Visitor9visit_mapNtB3_17___DeserializeWithB1e_11deserializeQINtNtCse3EK68OXEkC_10serde_json2de12DeserializerNtNtB3v_4read7StrReadEEBg_
FN:20,_RINvXs_NvXs0_NvXNvNtCscBGMVToPeRm_8callisto8computers_1__NtBg_16FlightPathResultNtNtCs8pDKiTx8cJZ_5serde2de11Deserialize11deserializeNtBb_9___VisitorNtB1i_7Visitor9visit_mapNtB5_s_17___DeserializeWithB1g_11deserializeQINtNtCse3EK68OXEkC_10serde_json2de12DeserializerNtNtB3z_4read7StrReadEEBi_
FN:565,_RNvNtNtCscBGMVToPeRm_8callisto8computer5tests9pos_error
FN:569,_RNvNtNtCscBGMVToPeRm_8callisto8computer5tests9vel_error
FN:580,_RNvNtNtCscBGMVToPeRm_8callisto8computer5testss_24test_compute_flight_path
FN:580,_RNvNtNvNtNtCscBGMVToPeRm_8callisto8computer5testss_24test_compute_flight_path4init4init
FN:632,_RNvNtNtCscBGMVToPeRm_8callisto8computer5testss_50test_compute_flight_path_with_null_target_velocity
FN:632,_RNvNtNvNtNtCscBGMVToPeRm_8callisto8computer5testss_50test_compute_flight_path_with_null_target_velocity4init4init
FN:693,_RNvNtNtCscBGMVToPeRm_8callisto8computer5testss_37test_compute_flight_short_first_accel
FN:693,_RNvNtNvNtNtCscBGMVToPeRm_8callisto8computer5testss_37test_compute_flight_short_first_accel4init4init
FN:757,_RNvNtNtCscBGMVToPeRm_8callisto8computer5testss_26test_fast_velocity_compute
FN:757,_RNvNtNvNtNtCscBGMVToPeRm_8callisto8computer5testss_26test_fast_velocity_compute4init4init
FN:810,_RNvNtNtCscBGMVToPeRm_8callisto8computer5testss_45test_compute_flight_path_with_target_velocity
FN:810,_RNvNtNvNtNtCscBGMVToPeRm_8callisto8computer5testss_45test_compute_flight_path_with_target_velocity4init4init
FN:886,_RNvNtNtCscBGMVToPeRm_8callisto8computer5testss_38test_compute_flight_path_zero_velocity
FN:886,_RNvNtNvNtNtCscBGMVToPeRm_8callisto8computer5testss_38test_compute_flight_path_zero_velocity4init4init
FN:950,_RNvNtNtCscBGMVToPeRm_8callisto8computer5testss_44test_compute_flight_path_acceleration_limits
FN:950,_RNvNtNvNtNtCscBGMVToPeRm_8callisto8computer5testss_44test_compute_flight_path_acceleration_limits4init4init
FN:1002,_RNvNtNtCscBGMVToPeRm_8callisto8computer5testss_44test_compute_flight_plan_to_current_location
FN:1002,_RNvNtNvNtNtCscBGMVToPeRm_8callisto8computer5testss_44test_compute_flight_plan_to_current_location4init4init
FN:20,_RINvXNvXNvNtCskkwNnPUyuBS_8callisto8computers_1__NtB8_16FlightPathResultNtNtCs8pDKiTx8cJZ_5serde2de11Deserialize11deserializeNtB3_14___FieldVisitorNtB1a_7Visitor9visit_strNtNtCse3EK68OXEkC_10serde_json5error5ErrorECseGnTZYlWoAf_9webserver
FN:20,_RINvXNvXs0_NvXNvNtCskkwNnPUyuBS_8callisto8computers_1__NtBe_16FlightPathResultNtNtCs8pDKiTx8cJZ_5serde2de11Deserialize11deserializeNtB9_9___VisitorNtB1g_7Visitor9visit_mapNtB3_17___DeserializeWithB1e_11deserializeQINtNtCse3EK68OXEkC_10serde_json2de12DeserializerNtNtB3v_4read7StrReadEECseGnTZYlWoAf_9webserver
FN:20,_RINvXNvXs0_NvXNvNtCskkwNnPUyuBS_8callisto8computers_1__NtBe_16FlightPathResultNtNtCs8pDKiTx8cJZ_5serde2de11Deserialize11deserializeNtB9_9___VisitorNtB1g_7Visitor9visit_seqNtB3_17___DeserializeWithB1e_11deserializeQINtNtCse3EK68OXEkC_10serde_json2de12DeserializerNtNtB3v_4read7StrReadEECseGnTZYlWoAf_9webserver
FN:20,_RINvXs0_NvXNvNtCskkwNnPUyuBS_8callisto8computers_1__NtBb_16FlightPathResultNtNtCs8pDKiTx8cJZ_5serde2de11Deserialize11deserializeNtB6_9___VisitorNtB1d_7Visitor9visit_mapINtNtCse3EK68OXEkC_10serde_json2de9MapAccessNtNtB2L_4read7StrReadEECseGnTZYlWoAf_9webserver
FN:20,_RINvXs0_NvXNvNtCskkwNnPUyuBS_8callisto8computers_1__NtBb_16FlightPathResultNtNtCs8pDKiTx8cJZ_5serde2de11Deserialize11deserializeNtB6_9___VisitorNtB1d_7Visitor9visit_seqINtNtCse3EK68OXEkC_10serde_json2de9SeqAccessNtNtB2L_4read7StrReadEECseGnTZYlWoAf_9webserver
FN:20,_RINvXs_NvXNvNtCskkwNnPUyuBS_8callisto8computers_1__NtBa_16FlightPathResultNtNtCs8pDKiTx8cJZ_5serde2de11Deserialize11deserializeNtB5_7___FieldB1a_11deserializeINtNtCse3EK68OXEkC_10serde_json2de6MapKeyNtNtB2B_4read7StrReadEECseGnTZYlWoAf_9webserver
FN:20,_RINvXs_NvXs0_NvXNvNtCskkwNnPUyuBS_8callisto8computers_1__NtBg_16FlightPathResultNtNtCs8pDKiTx8cJZ_5serde2de11Deserialize11deserializeNtBb_9___VisitorNtB1i_7Visitor9visit_mapNtB5_s_17___DeserializeWithB1g_11deserializeQINtNtCse3EK68OXEkC_10serde_json2de12DeserializerNtNtB3z_4read7StrReadEECseGnTZYlWoAf_9webserver
FN:20,_RINvXs_NvXs0_NvXNvNtCskkwNnPUyuBS_8callisto8computers_1__NtBg_16FlightPathResultNtNtCs8pDKiTx8cJZ_5serde2de11Deserialize11deserializeNtBb_9___VisitorNtB1i_7Visitor9visit_seqNtB5_s_17___DeserializeWithB1g_11deserializeQINtNtCse3EK68OXEkC_10serde_json2de12DeserializerNtNtB3z_4read7StrReadEECseGnTZYlWoAf_9webserver
FN:20,_RNCINvXs0_NvXNvNtCskkwNnPUyuBS_8callisto8computers_1__NtBd_16FlightPathResultNtNtCs8pDKiTx8cJZ_5serde2de11Deserialize11deserializeNtB8_9___VisitorNtB1f_7Visitor9visit_seqINtNtCse3EK68OXEkC_10serde_json2de9SeqAccessNtNtB2N_4read7StrReadEE0CseGnTZYlWoAf_9webserver
FN:20,_RNCINvXs0_NvXNvNtCskkwNnPUyuBS_8callisto8computers_1__NtBd_16FlightPathResultNtNtCs8pDKiTx8cJZ_5serde2de11Deserialize11deserializeNtB8_9___VisitorNtB1f_7Visitor9visit_seqINtNtCse3EK68OXEkC_10serde_json2de9SeqAccessNtNtB2N_4read7StrReadEEs_0CseGnTZYlWoAf_9webserver
FNDA:0,_RINvXNvXNvNtCskkwNnPUyuBS_8callisto8computers_1__NtB8_16FlightPathResultNtNtCs8pDKiTx8cJZ_5serde2de11Deserialize11deserializeNtB3_14___FieldVisitorNtB1a_7Visitor9visit_u64pEBa_
FNDA:0,_RINvXNvXNvNtCskkwNnPUyuBS_8callisto8computers_1__NtB8_16FlightPathResultNtNtCs8pDKiTx8cJZ_5serde2de11Deserialize11deserializeNtB3_14___FieldVisitorNtB1a_7Visitor9visit_strpEBa_
FNDA:0,_RINvXNvXNvNtCskkwNnPUyuBS_8callisto8computers_1__NtB8_16FlightPathResultNtNtCs8pDKiTx8cJZ_5serde2de11Deserialize11deserializeNtB3_14___FieldVisitorNtB1a_7Visitor11visit_bytespEBa_
FNDA:0,_RINvXs_NvXNvNtCskkwNnPUyuBS_8callisto8computers_1__NtBa_16FlightPathResultNtNtCs8pDKiTx8cJZ_5serde2de11Deserialize11deserializeNtB5_7___FieldB1a_11deserializepEBc_
FNDA:0,_RINvXs0_NvXNvNtCskkwNnPUyuBS_8callisto8computers_1__NtBb_16FlightPathResultNtNtCs8pDKiTx8cJZ_5serde2de11Deserialize11deserializeNtB6_9___VisitorNtB1d_7Visitor9visit_seqpEBd_
FNDA:0,_RINvXNvXs0_NvXNvNtCskkwNnPUyuBS_8callisto8computers_1__NtBe_16FlightPathResultNtNtCs8pDKiTx8cJZ_5serde2de11Deserialize11deserializeNtB9_9___VisitorNtB1g_7Visitor9visit_seqNtB3_17___DeserializeWithB1e_11deserializepEBg_
FNDA:0,_RNCINvXs0_NvXNvNtCskkwNnPUyuBS_8callisto8computers_1__NtBd_16FlightPathResultNtNtCs8pDKiTx8cJZ_5serde2de11Deserialize11deserializeNtB8_9___VisitorNtB1f_7Visitor9visit_seqpE0Bf_
FNDA:0,_RINvXs_NvXs0_NvXNvNtCskkwNnPUyuBS_8callisto8computers_1__NtBg_16FlightPathResultNtNtCs8pDKiTx8cJZ_5serde2de11Deserialize11deserializeNtBb_9___VisitorNtB1i_7Visitor9visit_seqNtB5_s_17___DeserializeWithB1g_11deserializepEBi_
FNDA:0,_RNCINvXs0_NvXNvNtCskkwNnPUyuBS_8callisto8computers_1__NtBd_16FlightPathResultNtNtCs8pDKiTx8cJZ_5serde2de11Deserialize11deserializeNtB8_9___VisitorNtB1f_7Visitor9visit_seqpEs_0Bf_
FNDA:0,_RINvXs0_NvXNvNtCskkwNnPUyuBS_8callisto8computers_1__NtBb_16FlightPathResultNtNtCs8pDKiTx8cJZ_5serde2de11Deserialize11deserializeNtB6_9___VisitorNtB1d_7Visitor9visit_mappEBd_
FNDA:0,_RINvXNvXs0_NvXNvNtCskkwNnPUyuBS_8callisto8computers_1__NtBe_16FlightPathResultNtNtCs8pDKiTx8cJZ_5serde2de11Deserialize11deserializeNtB9_9___VisitorNtB1g_7Visitor9visit_mapNtB3_17___DeserializeWithB1e_11deserializepEBg_
FNDA:0,_RINvXs_NvXs0_NvXNvNtCskkwNnPUyuBS_8callisto8computers_1__NtBg_16FlightPathResultNtNtCs8pDKiTx8cJZ_5serde2de11Deserialize11deserializeNtBb_9___VisitorNtB1i_7Visitor9visit_mapNtB5_s_17___DeserializeWithB1g_11deserializepEBi_
FNDA:2,_RNvMNtCskkwNnPUyuBS_8callisto8computerNtB2_12FlightParams3new
FNDA:2340,_RNvMNtCskkwNnPUyuBS_8callisto8computerNtB2_12FlightParams6pos_eq
FNDA:2340,_RNvMNtCskkwNnPUyuBS_8callisto8computerNtB2_12FlightParams6vel_eq
FNDA:2,_RNvMNtCskkwNnPUyuBS_8callisto8computerNtB2_12FlightParams10best_guess
FNDA:2,_RNvMNtCskkwNnPUyuBS_8callisto8computerNtB2_12FlightParams19compute_flight_path
FNDA:8,_RNvXs_NtCskkwNnPUyuBS_8callisto8computerNtB4_12FlightParamsNtNtNtCs88r7ZwTzZan_5gomez4core4base7Problem6domain
FNDA:6,_RNvMs1_NtCskkwNnPUyuBS_8callisto8computerNtB5_12TargetParams3new
FNDA:0,_RNvMs1_NtCskkwNnPUyuBS_8callisto8computerNtB5_12TargetParams5solve
FNDA:0,_RNvMs1_NtCskkwNnPUyuBS_8callisto8computerNtB5_12TargetParams12compute_path
FNDA:6,_RNvMs1_NtCskkwNnPUyuBS_8callisto8computerNtB5_12TargetParams19compute_target_path
FNDA:0,_RNvXs2_NtCskkwNnPUyuBS_8callisto8computerNtB5_12TargetParamsNtNtNtCs88r7ZwTzZan_5gomez4core4base7Problem6domain
FNDA:0,_RNvXNvXNvNtCskkwNnPUyuBS_8callisto8computers_1__NtB7_16FlightPathResultNtNtCs8pDKiTx8cJZ_5serde2de11Deserialize11deserializeNtB2_14___FieldVisitorNtB19_7Visitor9expecting
FNDA:0,_RNvXs0_NvXNvNtCskkwNnPUyuBS_8callisto8computers_1__NtBa_16FlightPathResultNtNtCs8pDKiTx8cJZ_5serde2de11Deserialize11deserializeNtB5_9___VisitorNtB1c_7Visitor9expecting
FNDA:234,_RNCNvMNtCskkwNnPUyuBS_8callisto8computerNtB4_12FlightParams19compute_flight_path0B6_
FNDA:468,_RINvXs0_NtCskkwNnPUyuBS_8callisto8computerNtB6_12FlightParamsNtNtNtCs88r7ZwTzZan_5gomez4core6system6System4evalINtNtNtCs90H57Cots21_8nalgebra4base11vec_storage10VecStoragedNtNtB1Q_9dimension3DynINtB2M_5ConstKj1_EEB1L_EB8_
FNDA:1872,_RINvXs0_NtCskkwNnPUyuBS_8callisto8computerNtB6_12FlightParamsNtNtNtCs88r7ZwTzZan_5gomez4core6system6System4evalINtNtNtCs90H57Cots21_8nalgebra4base11vec_storage10VecStoragedNtNtB1Q_9dimension3DynINtB2M_5ConstKj1_EEINtNtB1Q_11matrix_view14ViewStorageMutdB2K_B36_B36_B2K_EEB8_
FNDA:0,_RNCNvMs1_NtCskkwNnPUyuBS_8callisto8computerNtB7_12TargetParams5solve0B9_
FNDA:0,_RNCNvMs1_NtCskkwNnPUyuBS_8callisto8computerNtB7_12TargetParams19compute_target_path0B9_
FNDA:0,_RNCNvMs1_NtCskkwNnPUyuBS_8callisto8computerNtB7_12TargetParams19compute_target_paths_0B9_
FNDA:0,_RNCNvMs1_NtCskkwNnPUyuBS_8callisto8computerNtB7_12TargetParams19compute_target_paths0_0B9_
FNDA:0,_RINvXs3_NtCskkwNnPUyuBS_8callisto8computerNtB6_12TargetParamsNtNtNtCs88r7ZwTzZan_5gomez4core6system6System4evalINtNtNtCs90H57Cots21_8nalgebra4base11vec_storage10VecStoragedNtNtB1Q_9dimension3DynINtB2M_5ConstKj1_EEB1L_EB8_
FNDA:0,_RINvXs3_NtCskkwNnPUyuBS_8callisto8computerNtB6_12TargetParamsNtNtNtCs88r7ZwTzZan_5gomez4core6system6System4evalINtNtNtCs90H57Cots21_8nalgebra4base11vec_storage10VecStoragedNtNtB1Q_9dimension3DynINtB2M_5ConstKj1_EEINtNtB1Q_11matrix_view14ViewStorageMutdB2K_B36_B36_B2K_EEB8_
FNDA:2,_RINvXNvXNvNtCskkwNnPUyuBS_8callisto8computer1__NtB8_16FlightPathResultNtNtCs8pDKiTx8cJZ_5serde3ser9Serialize9serializeNtB3_15___SerializeWithB16_9serializeQINtNtCse3EK68OXEkC_10serde_json3ser10SerializerQINtNtCsdze8u8oDPro_5alloc3vec3VechEEEBa_
FNDA:2,_RINvXs_NvXNvNtCskkwNnPUyuBS_8callisto8computer1__NtBa_16FlightPathResultNtNtCs8pDKiTx8cJZ_5serde3ser9Serialize9serializeNtB5_s_15___SerializeWithB18_9serializeQINtNtCse3EK68OXEkC_10serde_json3ser10SerializerQINtNtCsdze8u8oDPro_5alloc3vec3VechEEEBc_
FNDA:0,_RNvXNvXNvNtCscBGMVToPeRm_8callisto8computers_1__NtB7_16FlightPathResultNtNtCs8pDKiTx8cJZ_5serde2de11Deserialize11deserializeNtB2_14___FieldVisitorNtB19_7Visitor9expecting
FNDA:0,_RINvXNvXNvNtCscBGMVToPeRm_8callisto8computers_1__NtB8_16FlightPathResultNtNtCs8pDKiTx8cJZ_5serde2de11Deserialize11deserializeNtB3_14___FieldVisitorNtB1a_7Visitor9visit_u64pEBa_
FNDA:0,_RINvXNvXNvNtCscBGMVToPeRm_8callisto8computers_1__NtB8_16FlightPathResultNtNtCs8pDKiTx8cJZ_5serde2de11Deserialize11deserializeNtB3_14___FieldVisitorNtB1a_7Visitor11visit_bytespEBa_
FNDA:2,_RNvMNtCscBGMVToPeRm_8callisto8computerNtB2_12FlightParams3new
FNDA:160090,_RNvMNtCscBGMVToPeRm_8callisto8computerNtB2_12FlightParams6pos_eq
FNDA:160090,_RNvMNtCscBGMVToPeRm_8callisto8computerNtB2_12FlightParams6vel_eq
FNDA:119,_RNvMNtCscBGMVToPeRm_8callisto8computerNtB2_12FlightParams10best_guess
FNDA:109,_RNvMNtCscBGMVToPeRm_8callisto8computerNtB2_12FlightParams19compute_flight_path
FNDA:476,_RNvXs_NtCscBGMVToPeRm_8callisto8computerNtB4_12FlightParamsNtNtNtCs88r7ZwTzZan_5gomez4core4base7Problem6domain
FNDA:97,_RNvMs1_NtCscBGMVToPeRm_8callisto8computerNtB5_12TargetParams3new
FNDA:72,_RNvMs1_NtCscBGMVToPeRm_8callisto8computerNtB5_12TargetParams5solve
FNDA:39,_RNvMs1_NtCscBGMVToPeRm_8callisto8computerNtB5_12TargetParams12compute_path
FNDA:97,_RNvMs1_NtCscBGMVToPeRm_8callisto8computerNtB5_12TargetParams19compute_target_path
FNDA:288,_RNvXs2_NtCscBGMVToPeRm_8callisto8computerNtB5_12TargetParamsNtNtNtCs88r7ZwTzZan_5gomez4core4base7Problem6domain
FNDA:0,_RNvXs0_NvXNvNtCscBGMVToPeRm_8callisto8computers_1__NtBa_16FlightPathResultNtNtCs8pDKiTx8cJZ_5serde2de11Deserialize11deserializeNtB5_9___VisitorNtB1c_7Visitor9expecting
FNDA:16005,_RNCNvMNtCscBGMVToPeRm_8callisto8computerNtB4_12FlightParams19compute_flight_path0B6_
FNDA:32018,_RINvXs0_NtCscBGMVToPeRm_8callisto8computerNtB6_12FlightParamsNtNtNtCs88r7ZwTzZan_5gomez4core6system6System4evalINtNtNtCs90H57Cots21_8nalgebra4base11vec_storage10VecStoragedNtNtB1Q_9dimension3DynINtB2M_5ConstKj1_EEB1L_EB8_
FNDA:128072,_RINvXs0_NtCscBGMVToPeRm_8callisto8computerNtB6_12FlightParamsNtNtNtCs88r7ZwTzZan_5gomez4core6system6System4evalINtNtNtCs90H57Cots21_8nalgebra4base11vec_storage10VecStoragedNtNtB1Q_9dimension3DynINtB2M_5ConstKj1_EEINtNtB1Q_11matrix_view14ViewStorageMutdB2K_B36_B36_B2K_EEB8_
FNDA:228,_RNCNvMs1_NtCscBGMVToPeRm_8callisto8computerNtB7_12TargetParams5solve0B9_
FNDA:117,_RNCNvMs1_NtCscBGMVToPeRm_8callisto8computerNtB7_12TargetParams19compute_target_path0B9_
FNDA:0,_RNCNvMs1_NtCscBGMVToPeRm_8callisto8computerNtB7_12TargetParams19compute_target_paths_0B9_
FNDA:33,_RNCNvMs1_NtCscBGMVToPeRm_8callisto8computerNtB7_12TargetParams19compute_target_paths0_0B9_
FNDA:456,_RINvXs3_NtCscBGMVToPeRm_8callisto8computerNtB6_12TargetParamsNtNtNtCs88r7ZwTzZan_5gomez4core6system6System4evalINtNtNtCs90H57Cots21_8nalgebra4base11vec_storage10VecStoragedNtNtB1Q_9dimension3DynINtB2M_5ConstKj1_EEB1L_EB8_
FNDA:912,_RINvXs3_NtCscBGMVToPeRm_8callisto8computerNtB6_12TargetParamsNtNtNtCs88r7ZwTzZan_5gomez4core6system6System4evalINtNtNtCs90H57Cots21_8nalgebra4base11vec_storage10VecStoragedNtNtB1Q_9dimension3DynINtB2M_5ConstKj1_EEINtNtB1Q_11matrix_view14ViewStorageMutdB2K_B36_B36_B2K_EEB8_
FNDA:2,_RINvXNvXNvNtCscBGMVToPeRm_8callisto8computer1__NtB8_16FlightPathResultNtNtCs8pDKiTx8cJZ_5serde3ser9Serialize9serializeNtB3_15___SerializeWithB16_9serializeQINtNtCse3EK68OXEkC_10serde_json3ser10SerializerQINtNtCsdze8u8oDPro_5alloc3vec3VechEEEBa_
FNDA:2,_RINvXs_NvXNvNtCscBGMVToPeRm_8callisto8computer1__NtBa_16FlightPathResultNtNtCs8pDKiTx8cJZ_5serde3ser9Serialize9serializeNtB5_s_15___SerializeWithB18_9serializeQINtNtCse3EK68OXEkC_10serde_json3ser10SerializerQINtNtCsdze8u8oDPro_5alloc3vec3VechEEEBc_
FNDA:6,_RINvXNvXNvNtCscBGMVToPeRm_8callisto8computers_1__NtB8_16FlightPathResultNtNtCs8pDKiTx8cJZ_5serde2de11Deserialize11deserializeNtB3_14___FieldVisitorNtB1a_7Visitor9visit_strNtNtCse3EK68OXEkC_10serde_json5error5ErrorEBa_
FNDA:6,_RINvXs_NvXNvNtCscBGMVToPeRm_8callisto8computers_1__NtBa_16FlightPathResultNtNtCs8pDKiTx8cJZ_5serde2de11Deserialize11deserializeNtB5_7___FieldB1a_11deserializeINtNtCse3EK68OXEkC_10serde_json2de6MapKeyNtNtB2B_4read7StrReadEEBc_
FNDA:0,_RINvXs0_NvXNvNtCscBGMVToPeRm_8callisto8computers_1__NtBb_16FlightPathResultNtNtCs8pDKiTx8cJZ_5serde2de11Deserialize11deserializeNtB6_9___VisitorNtB1d_7Visitor9visit_seqINtNtCse3EK68OXEkC_10serde_json2de9SeqAccessNtNtB2L_4read7StrReadEEBd_
FNDA:0,_RINvXNvXs0_NvXNvNtCscBGMVToPeRm_8callisto8computers_1__NtBe_16FlightPathResultNtNtCs8pDKiTx8cJZ_5serde2de11Deserialize11deserializeNtB9_9___VisitorNtB1g_7Visitor9visit_seqNtB3_17___DeserializeWithB1e_11deserializeQINtNtCse3EK68OXEkC_10serde_json2de12DeserializerNtNtB3v_4read7StrReadEEBg_
FNDA:0,_RNCINvXs0_NvXNvNtCscBGMVToPeRm_8callisto8computers_1__NtBd_16FlightPathResultNtNtCs8pDKiTx8cJZ_5serde2de11Deserialize11deserializeNtB8_9___VisitorNtB1f_7Visitor9visit_seqINtNtCse3EK68OXEkC_10serde_json2de9SeqAccessNtNtB2N_4read7StrReadEE0Bf_
FNDA:0,_RINvXs_NvXs0_NvXNvNtCscBGMVToPeRm_8callisto8computers_1__NtBg_16FlightPathResultNtNtCs8pDKiTx8cJZ_5serde2de11Deserialize11deserializeNtBb_9___VisitorNtB1i_7Visitor9visit_seqNtB5_s_17___DeserializeWithB1g_11deserializeQINtNtCse3EK68OXEkC_10serde_json2de12DeserializerNtNtB3z_4read7StrReadEEBi_
FNDA:0,_RNCINvXs0_NvXNvNtCscBGMVToPeRm_8callisto8computers_1__NtBd_16FlightPathResultNtNtCs8pDKiTx8cJZ_5serde2de11Deserialize11deserializeNtB8_9___VisitorNtB1f_7Visitor9visit_seqINtNtCse3EK68OXEkC_10serde_json2de9SeqAccessNtNtB2N_4read7StrReadEEs_0Bf_
FNDA:2,_RINvXs0_NvXNvNtCscBGMVToPeRm_8callisto8computers_1__NtBb_16FlightPathResultNtNtCs8pDKiTx8cJZ_5serde2de11Deserialize11deserializeNtB6_9___VisitorNtB1d_7Visitor9visit_mapINtNtCse3EK68OXEkC_10serde_json2de9MapAccessNtNtB2L_4read7StrReadEEBd_
FNDA:2,_RINvXNvXs0_NvXNvNtCscBGMVToPeRm_8callisto8computers_1__NtBe_16FlightPathResultNtNtCs8pDKiTx8cJZ_5serde2de11Deserialize11deserializeNtB9_9___VisitorNtB1g_7Visitor9visit_mapNtB3_17___DeserializeWithB1e_11deserializeQINtNtCse3EK68OXEkC_10serde_json2de12DeserializerNtNtB3v_4read7StrReadEEBg_
FNDA:2,_RINvXs_NvXs0_NvXNvNtCscBGMVToPeRm_8callisto8computers_1__NtBg_16FlightPathResultNtNtCs8pDKiTx8cJZ_5serde2de11Deserialize11deserializeNtBb_9___VisitorNtB1i_7Visitor9visit_mapNtB5_s_17___DeserializeWithB1g_11deserializeQINtNtCse3EK68OXEkC_10serde_json2de12DeserializerNtNtB3z_4read7StrReadEEBi_
FNDA:5,_RNvNtNtCscBGMVToPeRm_8callisto8computer5tests9pos_error
FNDA:5,_RNvNtNtCscBGMVToPeRm_8callisto8computer5tests9vel_error
FNDA:1,_RNvNtNtCscBGMVToPeRm_8callisto8computer5testss_24test_compute_flight_path
FNDA:1,_RNvNtNvNtNtCscBGMVToPeRm_8callisto8computer5testss_24test_compute_flight_path4init4init
FNDA:1,_RNvNtNtCscBGMVToPeRm_8callisto8computer5testss_50test_compute_flight_path_with_null_target_velocity
FNDA:1,_RNvNtNvNtNtCscBGMVToPeRm_8callisto8computer5testss_50test_compute_flight_path_with_null_target_velocity4init4init
FNDA:1,_RNvNtNtCscBGMVToPeRm_8callisto8computer5testss_37test_compute_flight_short_first_accel
FNDA:1,_RNvNtNvNtNtCscBGMVToPeRm_8callisto8computer5testss_37test_compute_flight_short_first_accel4init4init
FNDA:1,_RNvNtNtCscBGMVToPeRm_8callisto8computer5testss_26test_fast_velocity_compute
FNDA:1,_RNvNtNvNtNtCscBGMVToPeRm_8callisto8computer5testss_26test_fast_velocity_compute4init4init
FNDA:1,_RNvNtNtCscBGMVToPeRm_8callisto8computer5testss_45test_compute_flight_path_with_target_velocity
FNDA:1,_RNvNtNvNtNtCscBGMVToPeRm_8callisto8computer5testss_45test_compute_flight_path_with_target_velocity4init4init
FNDA:1,_RNvNtNtCscBGMVToPeRm_8callisto8computer5testss_38test_compute_flight_path_zero_velocity
FNDA:1,_RNvNtNvNtNtCscBGMVToPeRm_8callisto8computer5testss_38test_compute_flight_path_zero_velocity4init4init
FNDA:1,_RNvNtNtCscBGMVToPeRm_8callisto8computer5testss_44test_compute_flight_path_acceleration_limits
FNDA:1,_RNvNtNvNtNtCscBGMVToPeRm_8callisto8computer5testss_44test_compute_flight_path_acceleration_limits4init4init
FNDA:1,_RNvNtNtCscBGMVToPeRm_8callisto8computer5testss_44test_compute_flight_plan_to_current_location
FNDA:1,_RNvNtNvNtNtCscBGMVToPeRm_8callisto8computer5testss_44test_compute_flight_plan_to_current_location4init4init
FNDA:6,_RINvXNvXNvNtCskkwNnPUyuBS_8callisto8computers_1__NtB8_16FlightPathResultNtNtCs8pDKiTx8cJZ_5serde2de11Deserialize11deserializeNtB3_14___FieldVisitorNtB1a_7Visitor9visit_strNtNtCse3EK68OXEkC_10serde_json5error5ErrorECseGnTZYlWoAf_9webserver
FNDA:2,_RINvXNvXs0_NvXNvNtCskkwNnPUyuBS_8callisto8computers_1__NtBe_16FlightPathResultNtNtCs8pDKiTx8cJZ_5serde2de11Deserialize11deserializeNtB9_9___VisitorNtB1g_7Visitor9visit_mapNtB3_17___DeserializeWithB1e_11deserializeQINtNtCse3EK68OXEkC_10serde_json2de12DeserializerNtNtB3v_4read7StrReadEECseGnTZYlWoAf_9webserver
FNDA:0,_RINvXNvXs0_NvXNvNtCskkwNnPUyuBS_8callisto8computers_1__NtBe_16FlightPathResultNtNtCs8pDKiTx8cJZ_5serde2de11Deserialize11deserializeNtB9_9___VisitorNtB1g_7Visitor9visit_seqNtB3_17___DeserializeWithB1e_11deserializeQINtNtCse3EK68OXEkC_10serde_json2de12DeserializerNtNtB3v_4read7StrReadEECseGnTZYlWoAf_9webserver
FNDA:2,_RINvXs0_NvXNvNtCskkwNnPUyuBS_8callisto8computers_1__NtBb_16FlightPathResultNtNtCs8pDKiTx8cJZ_5serde2de11Deserialize11deserializeNtB6_9___VisitorNtB1d_7Visitor9visit_mapINtNtCse3EK68OXEkC_10serde_json2de9MapAccessNtNtB2L_4read7StrReadEECseGnTZYlWoAf_9webserver
FNDA:0,_RINvXs0_NvXNvNtCskkwNnPUyuBS_8callisto8computers_1__NtBb_16FlightPathResultNtNtCs8pDKiTx8cJZ_5serde2de11Deserialize11deserializeNtB6_9___VisitorNtB1d_7Visitor9visit_seqINtNtCse3EK68OXEkC_10serde_json2de9SeqAccessNtNtB2L_4read7StrReadEECseGnTZYlWoAf_9webserver
FNDA:6,_RINvXs_NvXNvNtCskkwNnPUyuBS_8callisto8computers_1__NtBa_16FlightPathResultNtNtCs8pDKiTx8cJZ_5serde2de11Deserialize11deserializeNtB5_7___FieldB1a_11deserializeINtNtCse3EK68OXEkC_10serde_json2de6MapKeyNtNtB2B_4read7StrReadEECseGnTZYlWoAf_9webserver
FNDA:2,_RINvXs_NvXs0_NvXNvNtCskkwNnPUyuBS_8callisto8computers_1__NtBg_16FlightPathResultNtNtCs8pDKiTx8cJZ_5serde2de11Deserialize11deserializeNtBb_9___VisitorNtB1i_7Visitor9visit_mapNtB5_s_17___DeserializeWithB1g_11deserializeQINtNtCse3EK68OXEkC_10serde_json2de12DeserializerNtNtB3z_4read7StrReadEECseGnTZYlWoAf_9webserver
FNDA:0,_RINvXs_NvXs0_NvXNvNtCskkwNnPUyuBS_8callisto8computers_1__NtBg_16FlightPathResultNtNtCs8pDKiTx8cJZ_5serde2de11Deserialize11deserializeNtBb_9___VisitorNtB1i_7Visitor9visit_seqNtB5_s_17___DeserializeWithB1g_11deserializeQINtNtCse3EK68OXEkC_10serde_json2de12DeserializerNtNtB3z_4read7StrReadEECseGnTZYlWoAf_9webserver
FNDA:0,_RNCINvXs0_NvXNvNtCskkwNnPUyuBS_8callisto8computers_1__NtBd_16FlightPathResultNtNtCs8pDKiTx8cJZ_5serde2de11Deserialize11deserializeNtB8_9___VisitorNtB1f_7Visitor9visit_seqINtNtCse3EK68OXEkC_10serde_json2de9SeqAccessNtNtB2N_4read7StrReadEE0CseGnTZYlWoAf_9webserver
FNDA:0,_RNCINvXs0_NvXNvNtCskkwNnPUyuBS_8callisto8computers_1__NtBd_16FlightPathResultNtNtCs8pDKiTx8cJZ_5serde2de11Deserialize11deserializeNtB8_9___VisitorNtB1f_7Visitor9visit_seqINtNtCse3EK68OXEkC_10serde_json2de9SeqAccessNtNtB2N_4read7StrReadEEs_0CseGnTZYlWoAf_9webserver
FNF:39
FNH:38
DA:20,24
DA:52,4
DA:53,4
DA:54,4
DA:55,4
DA:56,4
DA:57,4
DA:58,4
DA:59,4
DA:60,4
DA:61,4
DA:62,4
DA:63,4
DA:64,4
DA:65,4
DA:66,4
DA:67,4
DA:68,4
DA:70,162430
DA:71,162430
DA:72,162430
DA:73,162430
DA:74,162430
DA:75,162430
DA:76,162430
DA:77,162430
DA:78,2140
DA:80,160290
DA:82,162430
DA:84,162430
DA:85,162430
DA:86,162430
DA:92,121
DA:93,121
DA:94,121
DA:95,121
DA:96,121
DA:97,121
DA:98,121
DA:99,121
DA:100,121
DA:101,121
DA:102,121
DA:104,1
DA:105,1
DA:106,1
DA:107,1
DA:108,1
DA:109,1
DA:110,0
DA:111,0
DA:112,0
DA:114,120
DA:117,1
DA:118,1
DA:119,0
DA:120,0
DA:121,0
DA:125,119
DA:126,119
DA:127,119
DA:128,119
DA:129,119
DA:130,119
DA:131,119
DA:132,119
DA:133,119
DA:135,0
DA:136,119
DA:138,119
DA:139,109
DA:140,109
DA:141,109
DA:142,109
DA:143,10
DA:144,0
DA:145,0
DA:149,119
DA:150,119
DA:151,0
DA:152,0
DA:155,0
DA:158,121
DA:164,111
DA:165,121
DA:167,121
DA:168,121
DA:169,121
DA:170,121
DA:171,121
DA:172,121
DA:173,121
DA:174,121
DA:175,121
DA:176,121
DA:177,16239
DA:178,16239
DA:179,16239
DA:180,16239
DA:181,16239
DA:182,16239
DA:183,16239
DA:184,16239
DA:185,16239
DA:186,16239
DA:188,121
DA:194,4
DA:196,117
DA:197,117
DA:198,111
DA:205,6
DA:209,111
DA:210,111
DA:211,111
DA:212,111
DA:213,111
DA:214,111
DA:215,111
DA:216,111
DA:217,111
DA:218,111
DA:219,111
DA:220,111
DA:221,111
DA:222,111
DA:223,111
DA:224,111
DA:225,111
DA:226,111
DA:227,111
DA:228,111
DA:229,111
DA:230,111
DA:231,111
DA:232,111
DA:233,222
DA:234,222
DA:235,222
DA:236,1317
DA:237,1095
DA:239,1095
DA:240,220
DA:241,875
DA:242,1095
DA:243,1095
DA:244,1095
DA:245,1095
DA:246,1095
DA:247,1095
DA:248,1095
DA:249,1095
DA:250,1095
DA:251,1095
DA:255,111
DA:256,111
DA:257,111
DA:258,111
DA:259,111
DA:260,111
DA:261,111
DA:262,111
DA:263,111
DA:264,111
DA:266,0
DA:267,111
DA:279,484
DA:280,484
DA:281,484
DA:282,484
DA:283,484
DA:284,484
DA:285,484
DA:286,484
DA:287,484
DA:288,484
DA:289,484
DA:290,484
DA:291,484
DA:292,484
DA:293,484
DA:311,162430
DA:312,162430
DA:313,162430
DA:314,162430
DA:315,162430
DA:316,162430
DA:317,162430
DA:318,162430
DA:319,162430
DA:320,162430
DA:321,162430
DA:322,162430
DA:323,162430
DA:324,162430
DA:325,162430
DA:326,162430
DA:327,162430
DA:328,162430
DA:329,162430
DA:330,162430
DA:331,162430
DA:332,162430
DA:333,162430
DA:334,162430
DA:335,162430
DA:336,162430
DA:337,162430
DA:338,162430
DA:339,162430
DA:340,162430
DA:341,162430
DA:342,162430
DA:343,162430
DA:344,162430
DA:345,162430
DA:358,103
DA:359,103
DA:360,103
DA:361,103
DA:362,103
DA:363,103
DA:364,103
DA:365,103
DA:366,103
DA:367,103
DA:368,103
DA:369,103
DA:370,103
DA:371,103
DA:372,103
DA:374,72
DA:375,72
DA:376,72
DA:377,72
DA:378,72
DA:380,72
DA:381,228
DA:382,228
DA:383,228
DA:384,228
DA:385,228
DA:386,228
DA:387,228
DA:388,228
DA:389,228
DA:390,228
DA:392,72
DA:393,72
DA:395,39
DA:396,39
DA:397,39
DA:398,39
DA:399,39
DA:400,39
DA:401,39
DA:402,39
DA:403,39
DA:404,39
DA:405,39
DA:406,39
DA:407,1494
DA:408,1455
DA:409,39
DA:410,1416
DA:411,1455
DA:412,1455
DA:413,1455
DA:414,1455
DA:415,1455
DA:416,1455
DA:418,39
DA:419,39
DA:421,103
DA:422,103
DA:423,103
DA:424,103
DA:425,103
DA:426,103
DA:427,103
DA:429,64
DA:430,64
DA:431,64
DA:432,64
DA:433,64
DA:434,39
DA:435,39
DA:436,39
DA:437,39
DA:438,39
DA:439,117
DA:440,39
DA:441,39
DA:442,39
DA:443,39
DA:444,39
DA:445,39
DA:446,39
DA:447,39
DA:448,39
DA:449,39
DA:450,39
DA:451,39
DA:452,39
DA:453,39
DA:454,39
DA:455,39
DA:456,39
DA:457,6
DA:458,6
DA:459,6
DA:460,6
DA:461,6
DA:462,6
DA:463,6
DA:464,6
DA:465,6
DA:466,6
DA:467,0
DA:468,6
DA:469,6
DA:470,6
DA:471,6
DA:472,6
DA:473,6
DA:475,33
DA:476,33
DA:477,33
DA:478,33
DA:479,33
DA:480,33
DA:481,0
DA:482,0
DA:483,0
DA:484,0
DA:485,0
DA:486,33
DA:487,33
DA:488,33
DA:489,33
DA:490,33
DA:491,33
DA:492,33
DA:493,33
DA:494,33
DA:495,33
DA:496,33
DA:497,33
DA:498,33
DA:500,0
DA:501,0
DA:502,0
DA:503,0
DA:504,0
DA:505,0
DA:508,103
DA:513,288
DA:514,288
DA:515,288
DA:516,288
DA:517,288
DA:518,288
DA:532,1368
DA:533,1368
DA:534,1368
DA:535,1368
DA:536,1368
DA:537,1368
DA:538,1368
DA:539,1368
DA:540,1368
DA:541,1368
DA:542,1368
DA:543,1368
DA:544,1368
DA:545,1368
DA:546,1368
DA:547,1368
DA:548,1368
DA:549,1368
DA:550,1368
DA:551,1368
DA:552,1368
DA:553,1368
DA:554,1368
DA:555,1368
DA:565,5
DA:566,5
DA:567,5
DA:569,5
DA:571,5
DA:572,2
DA:574,3
DA:577,5
DA:578,5
DA:580,1
DA:632,1
DA:693,1
DA:757,1
DA:810,1
DA:886,1
DA:950,1
DA:1002,1
BRF:0
BRH:0
LF:421
LH:394
end_of_record
SF:/Users/dan/dev/callisto/callisto/src/crew.rs
FN:12,_RINvXs0_NvXNvNtCskkwNnPUyuBS_8callisto4crews_1__NtBb_4CrewNtNtCs8pDKiTx8cJZ_5serde2de11Deserialize11deserializeNtB6_9___VisitorNtBW_7Visitor9visit_mapINtNtCse3EK68OXEkC_10serde_json2de9MapAccessNtNtB2t_4read9SliceReadEECsj2r3Yn2CUPB_8callisto
FN:12,_RINvXs0_NvXNvNtCskkwNnPUyuBS_8callisto4crews_1__NtBb_4CrewNtNtCs8pDKiTx8cJZ_5serde2de11Deserialize11deserializeNtB6_9___VisitorNtBW_7Visitor9visit_seqINtNtCse3EK68OXEkC_10serde_json2de9SeqAccessNtNtB2t_4read9SliceReadEECsj2r3Yn2CUPB_8callisto
FN:12,_RINvXs_NvXNvNtCskkwNnPUyuBS_8callisto4crews_1__NtBa_4CrewNtNtCs8pDKiTx8cJZ_5serde2de11Deserialize11deserializeNtB5_7___FieldBT_11deserializeINtNtCse3EK68OXEkC_10serde_json2de6MapKeyNtNtB2j_4read9SliceReadEECsj2r3Yn2CUPB_8callisto
FN:29,_RNvNtCskkwNnPUyuBS_8callisto4crew15default_gunnery
FN:34,_RNvMNtCskkwNnPUyuBS_8callisto4crewNtB2_4Crew3new
FN:45,_RNvMNtCskkwNnPUyuBS_8callisto4crewNtB2_4Crew9get_skill
FN:56,_RNvMNtCskkwNnPUyuBS_8callisto4crewNtB2_4Crew9get_pilot
FN:60,_RNvMNtCskkwNnPUyuBS_8callisto4crewNtB2_4Crew20get_engineering_jump
FN:64,_RNvMNtCskkwNnPUyuBS_8callisto4crewNtB2_4Crew21get_engineering_power
FN:68,_RNvMNtCskkwNnPUyuBS_8callisto4crewNtB2_4Crew24get_engineering_maneuver
FN:72,_RNvMNtCskkwNnPUyuBS_8callisto4crewNtB2_4Crew11get_sensors
FN:76,_RNvMNtCskkwNnPUyuBS_8callisto4crewNtB2_4Crew11get_gunnery
FN:83,_RNvMNtCskkwNnPUyuBS_8callisto4crewNtB2_4Crew9set_skill
FN:94,_RNvMNtCskkwNnPUyuBS_8callisto4crewNtB2_4Crew11add_gunnery
FN:100,_RNvXs_NtCskkwNnPUyuBS_8callisto4crewNtB4_4CrewNtNtCs9f3LFPSIp77_4core7default7Default7default
FN:12,_RNvXNvXNvNtCskkwNnPUyuBS_8callisto4crews_1__NtB7_4CrewNtNtCs8pDKiTx8cJZ_5serde2de11Deserialize11deserializeNtB2_14___FieldVisitorNtBS_7Visitor9expecting
FN:12,_RNvXs0_NvXNvNtCskkwNnPUyuBS_8callisto4crews_1__NtBa_4CrewNtNtCs8pDKiTx8cJZ_5serde2de11Deserialize11deserializeNtB5_9___VisitorNtBV_7Visitor9expecting
FN:12,_RINvXNvXNvNtCskkwNnPUyuBS_8callisto4crews_1__NtB8_4CrewNtNtCs8pDKiTx8cJZ_5serde2de11Deserialize11deserializeNtB3_14___FieldVisitorNtBT_7Visitor9visit_strNtNtCse3EK68OXEkC_10serde_json5error5ErrorEBa_
FN:12,_RINvXs_NvXNvNtCskkwNnPUyuBS_8callisto4crews_1__NtBa_4CrewNtNtCs8pDKiTx8cJZ_5serde2de11Deserialize11deserializeNtB5_7___FieldBT_11deserializeINtNtCse3EK68OXEkC_10serde_json2de6MapKeyNtNtB2j_4read7StrReadEEBc_
FN:12,_RINvXs0_NvXNvNtCskkwNnPUyuBS_8callisto4crews_1__NtBb_4CrewNtNtCs8pDKiTx8cJZ_5serde2de11Deserialize11deserializeNtB6_9___VisitorNtBW_7Visitor9visit_seqINtNtCse3EK68OXEkC_10serde_json2de9SeqAccessNtNtB2t_4read7StrReadEEBd_
FN:12,_RINvXs0_NvXNvNtCskkwNnPUyuBS_8callisto4crews_1__NtBb_4CrewNtNtCs8pDKiTx8cJZ_5serde2de11Deserialize11deserializeNtB6_9___VisitorNtBW_7Visitor9visit_mapINtNtCse3EK68OXEkC_10serde_json2de9MapAccessNtNtB2t_4read7StrReadEEBd_
FN:12,_RINvXNvXNvNtCskkwNnPUyuBS_8callisto4crews_1__NtB8_4CrewNtNtCs8pDKiTx8cJZ_5serde2de11Deserialize11deserializeNtB3_14___FieldVisitorNtBT_7Visitor9visit_u64pEBa_
FN:12,_RINvXNvXNvNtCskkwNnPUyuBS_8callisto4crews_1__NtB8_4CrewNtNtCs8pDKiTx8cJZ_5serde2de11Deserialize11deserializeNtB3_14___FieldVisitorNtBT_7Visitor11visit_bytespEBa_
FN:111,_RNvNtNtCscBGMVToPeRm_8callisto4crew5testss_13test_crew_new
FN:111,_RNvNtNvNtNtCscBGMVToPeRm_8callisto4crew5testss_13test_crew_new4init4init
FN:122,_RNvNtNtCscBGMVToPeRm_8callisto4crew5testss_14test_get_skill
FN:122,_RNvNtNvNtNtCscBGMVToPeRm_8callisto4crew5testss_14test_get_skill4init4init
FN:138,_RNvNtNtCscBGMVToPeRm_8callisto4crew5testss_28test_get_skill_gunnery_panic
FN:138,_RNvNtNvNtNtCscBGMVToPeRm_8callisto4crew5testss_28test_get_skill_gunnery_panic4init4init
FN:145,_RNvNtNtCscBGMVToPeRm_8callisto4crew5testss_26test_get_individual_skills
FN:145,_RNvNtNvNtNtCscBGMVToPeRm_8callisto4crew5testss_26test_get_individual_skills4init4init
FN:161,_RNvNtNtCscBGMVToPeRm_8callisto4crew5testss_16test_get_gunnery
FN:161,_RNvNtNvNtNtCscBGMVToPeRm_8callisto4crew5testss_16test_get_gunnery4init4init
FN:172,_RNvNtNtCscBGMVToPeRm_8callisto4crew5testss_14test_set_skill
FN:172,_RNvNtNvNtNtCscBGMVToPeRm_8callisto4crew5testss_14test_set_skill4init4init
FN:189,_RNvNtNtCscBGMVToPeRm_8callisto4crew5testss_28test_set_skill_gunnery_panic
FN:189,_RNvNtNvNtNtCscBGMVToPeRm_8callisto4crew5testss_28test_set_skill_gunnery_panic4init4init
FN:196,_RNvNtNtCscBGMVToPeRm_8callisto4crew5testss_16test_add_gunnery
FN:196,_RNvNtNvNtNtCscBGMVToPeRm_8callisto4crew5testss_16test_add_gunnery4init4init
FN:207,_RNvNtNtCscBGMVToPeRm_8callisto4crew5testss_20test_default_gunnery
FN:207,_RNvNtNvNtNtCscBGMVToPeRm_8callisto4crew5testss_20test_default_gunnery4init4init
FN:213,_RNvNtNtCscBGMVToPeRm_8callisto4crew5testss_39test_crew_serialization_deserialization
FN:213,_RNvNtNvNtNtCscBGMVToPeRm_8callisto4crew5testss_39test_crew_serialization_deserialization4init4init
FN:12,_RNvXNvXNvNtCscBGMVToPeRm_8callisto4crews_1__NtB7_4CrewNtNtCs8pDKiTx8cJZ_5serde2de11Deserialize11deserializeNtB2_14___FieldVisitorNtBS_7Visitor9expecting
FN:12,_RINvXNvXNvNtCscBGMVToPeRm_8callisto4crews_1__NtB8_4CrewNtNtCs8pDKiTx8cJZ_5serde2de11Deserialize11deserializeNtB3_14___FieldVisitorNtBT_7Visitor9visit_u64pEBa_
FN:12,_RINvXNvXNvNtCscBGMVToPeRm_8callisto4crews_1__NtB8_4CrewNtNtCs8pDKiTx8cJZ_5serde2de11Deserialize11deserializeNtB3_14___FieldVisitorNtBT_7Visitor11visit_bytespEBa_
FN:29,_RNvNtCscBGMVToPeRm_8callisto4crew15default_gunnery
FN:34,_RNvMNtCscBGMVToPeRm_8callisto4crewNtB2_4Crew3new
FN:45,_RNvMNtCscBGMVToPeRm_8callisto4crewNtB2_4Crew9get_skill
FN:56,_RNvMNtCscBGMVToPeRm_8callisto4crewNtB2_4Crew9get_pilot
FN:60,_RNvMNtCscBGMVToPeRm_8callisto4crewNtB2_4Crew20get_engineering_jump
FN:64,_RNvMNtCscBGMVToPeRm_8callisto4crewNtB2_4Crew21get_engineering_power
FN:68,_RNvMNtCscBGMVToPeRm_8callisto4crewNtB2_4Crew24get_engineering_maneuver
FN:72,_RNvMNtCscBGMVToPeRm_8callisto4crewNtB2_4Crew11get_sensors
FN:76,_RNvMNtCscBGMVToPeRm_8callisto4crewNtB2_4Crew11get_gunnery
FN:83,_RNvMNtCscBGMVToPeRm_8callisto4crewNtB2_4Crew9set_skill
FN:94,_RNvMNtCscBGMVToPeRm_8callisto4crewNtB2_4Crew11add_gunnery
FN:100,_RNvXs_NtCscBGMVToPeRm_8callisto4crewNtB4_4CrewNtNtCs9f3LFPSIp77_4core7default7Default7default
FN:12,_RNvXs0_NvXNvNtCscBGMVToPeRm_8callisto4crews_1__NtBa_4CrewNtNtCs8pDKiTx8cJZ_5serde2de11Deserialize11deserializeNtB5_9___VisitorNtBV_7Visitor9expecting
FN:12,_RINvXNvXNvNtCscBGMVToPeRm_8callisto4crews_1__NtB8_4CrewNtNtCs8pDKiTx8cJZ_5serde2de11Deserialize11deserializeNtB3_14___FieldVisitorNtBT_7Visitor9visit_strNtNtCse3EK68OXEkC_10serde_json5error5ErrorEBa_
FN:12,_RINvXs_NvXNvNtCscBGMVToPeRm_8callisto4crews_1__NtBa_4CrewNtNtCs8pDKiTx8cJZ_5serde2de11Deserialize11deserializeNtB5_7___FieldBT_11deserializeINtNtCse3EK68OXEkC_10serde_json2de6MapKeyNtNtB2j_4read7StrReadEEBc_
FN:12,_RINvXs_NvXNvNtCscBGMVToPeRm_8callisto4crews_1__NtBa_4CrewNtNtCs8pDKiTx8cJZ_5serde2de11Deserialize11deserializeNtB5_7___FieldBT_11deserializeINtNtCse3EK68OXEkC_10serde_json2de6MapKeyNtNtB2j_4read9SliceReadEEBc_
FN:12,_RINvXs_NvXNvNtCscBGMVToPeRm_8callisto4crews_1__NtBa_4CrewNtNtCs8pDKiTx8cJZ_5serde2de11Deserialize11deserializeNtB5_7___FieldBT_11deserializeNtNtNtCse3EK68OXEkC_10serde_json5value2de18MapKeyDeserializerEBc_
FN:12,_RINvXs0_NvXNvNtCscBGMVToPeRm_8callisto4crews_1__NtBb_4CrewNtNtCs8pDKiTx8cJZ_5serde2de11Deserialize11deserializeNtB6_9___VisitorNtBW_7Visitor9visit_seqINtNtCse3EK68OXEkC_10serde_json2de9SeqAccessNtNtB2t_4read7StrReadEEBd_
FN:12,_RINvXs0_NvXNvNtCscBGMVToPeRm_8callisto4crews_1__NtBb_4CrewNtNtCs8pDKiTx8cJZ_5serde2de11Deserialize11deserializeNtB6_9___VisitorNtBW_7Visitor9visit_seqINtNtCse3EK68OXEkC_10serde_json2de9SeqAccessNtNtB2t_4read9SliceReadEEBd_
FN:12,_RINvXs0_NvXNvNtCscBGMVToPeRm_8callisto4crews_1__NtBb_4CrewNtNtCs8pDKiTx8cJZ_5serde2de11Deserialize11deserializeNtB6_9___VisitorNtBW_7Visitor9visit_seqQNtNtNtCse3EK68OXEkC_10serde_json5value2de15SeqDeserializerEBd_
FN:12,_RINvXs0_NvXNvNtCscBGMVToPeRm_8callisto4crews_1__NtBb_4CrewNtNtCs8pDKiTx8cJZ_5serde2de11Deserialize11deserializeNtB6_9___VisitorNtBW_7Visitor9visit_mapINtNtCse3EK68OXEkC_10serde_json2de9MapAccessNtNtB2t_4read7StrReadEEBd_
FN:12,_RINvXs0_NvXNvNtCscBGMVToPeRm_8callisto4crews_1__NtBb_4CrewNtNtCs8pDKiTx8cJZ_5serde2de11Deserialize11deserializeNtB6_9___VisitorNtBW_7Visitor9visit_mapINtNtCse3EK68OXEkC_10serde_json2de9MapAccessNtNtB2t_4read9SliceReadEEBd_
FN:12,_RINvXs0_NvXNvNtCscBGMVToPeRm_8callisto4crews_1__NtBb_4CrewNtNtCs8pDKiTx8cJZ_5serde2de11Deserialize11deserializeNtB6_9___VisitorNtBW_7Visitor9visit_mapQNtNtNtCse3EK68OXEkC_10serde_json5value2de15MapDeserializerEBd_
FNDA:4,_RINvXs0_NvXNvNtCskkwNnPUyuBS_8callisto4crews_1__NtBb_4CrewNtNtCs8pDKiTx8cJZ_5serde2de11Deserialize11deserializeNtB6_9___VisitorNtBW_7Visitor9visit_mapINtNtCse3EK68OXEkC_10serde_json2de9MapAccessNtNtB2t_4read9SliceReadEECsj2r3Yn2CUPB_8callisto
FNDA:0,_RINvXs0_NvXNvNtCskkwNnPUyuBS_8callisto4crews_1__NtBb_4CrewNtNtCs8pDKiTx8cJZ_5serde2de11Deserialize11deserializeNtB6_9___VisitorNtBW_7Visitor9visit_seqINtNtCse3EK68OXEkC_10serde_json2de9SeqAccessNtNtB2t_4read9SliceReadEECsj2r3Yn2CUPB_8callisto
FNDA:24,_RINvXs_NvXNvNtCskkwNnPUyuBS_8callisto4crews_1__NtBa_4CrewNtNtCs8pDKiTx8cJZ_5serde2de11Deserialize11deserializeNtB5_7___FieldBT_11deserializeINtNtCse3EK68OXEkC_10serde_json2de6MapKeyNtNtB2j_4read9SliceReadEECsj2r3Yn2CUPB_8callisto
FNDA:0,_RNvNtCskkwNnPUyuBS_8callisto4crew15default_gunnery
FNDA:7,_RNvMNtCskkwNnPUyuBS_8callisto4crewNtB2_4Crew3new
FNDA:0,_RNvMNtCskkwNnPUyuBS_8callisto4crewNtB2_4Crew9get_skill
FNDA:1,_RNvMNtCskkwNnPUyuBS_8callisto4crewNtB2_4Crew9get_pilot
FNDA:1,_RNvMNtCskkwNnPUyuBS_8callisto4crewNtB2_4Crew20get_engineering_jump
FNDA:1,_RNvMNtCskkwNnPUyuBS_8callisto4crewNtB2_4Crew21get_engineering_power
FNDA:1,_RNvMNtCskkwNnPUyuBS_8callisto4crewNtB2_4Crew24get_engineering_maneuver
FNDA:0,_RNvMNtCskkwNnPUyuBS_8callisto4crewNtB2_4Crew11get_sensors
FNDA:6,_RNvMNtCskkwNnPUyuBS_8callisto4crewNtB2_4Crew11get_gunnery
FNDA:0,_RNvMNtCskkwNnPUyuBS_8callisto4crewNtB2_4Crew9set_skill
FNDA:0,_RNvMNtCskkwNnPUyuBS_8callisto4crewNtB2_4Crew11add_gunnery
FNDA:7,_RNvXs_NtCskkwNnPUyuBS_8callisto4crewNtB4_4CrewNtNtCs9f3LFPSIp77_4core7default7Default7default
FNDA:0,_RNvXNvXNvNtCskkwNnPUyuBS_8callisto4crews_1__NtB7_4CrewNtNtCs8pDKiTx8cJZ_5serde2de11Deserialize11deserializeNtB2_14___FieldVisitorNtBS_7Visitor9expecting
FNDA:0,_RNvXs0_NvXNvNtCskkwNnPUyuBS_8callisto4crews_1__NtBa_4CrewNtNtCs8pDKiTx8cJZ_5serde2de11Deserialize11deserializeNtB5_9___VisitorNtBV_7Visitor9expecting
FNDA:102,_RINvXNvXNvNtCskkwNnPUyuBS_8callisto4crews_1__NtB8_4CrewNtNtCs8pDKiTx8cJZ_5serde2de11Deserialize11deserializeNtB3_14___FieldVisitorNtBT_7Visitor9visit_strNtNtCse3EK68OXEkC_10serde_json5error5ErrorEBa_
FNDA:78,_RINvXs_NvXNvNtCskkwNnPUyuBS_8callisto4crews_1__NtBa_4CrewNtNtCs8pDKiTx8cJZ_5serde2de11Deserialize11deserializeNtB5_7___FieldBT_11deserializeINtNtCse3EK68OXEkC_10serde_json2de6MapKeyNtNtB2j_4read7StrReadEEBc_
FNDA:0,_RINvXs0_NvXNvNtCskkwNnPUyuBS_8callisto4crews_1__NtBb_4CrewNtNtCs8pDKiTx8cJZ_5serde2de11Deserialize11deserializeNtB6_9___VisitorNtBW_7Visitor9visit_seqINtNtCse3EK68OXEkC_10serde_json2de9SeqAccessNtNtB2t_4read7StrReadEEBd_
FNDA:13,_RINvXs0_NvXNvNtCskkwNnPUyuBS_8callisto4crews_1__NtBb_4CrewNtNtCs8pDKiTx8cJZ_5serde2de11Deserialize11deserializeNtB6_9___VisitorNtBW_7Visitor9visit_mapINtNtCse3EK68OXEkC_10serde_json2de9MapAccessNtNtB2t_4read7StrReadEEBd_
FNDA:0,_RINvXNvXNvNtCskkwNnPUyuBS_8callisto4crews_1__NtB8_4CrewNtNtCs8pDKiTx8cJZ_5serde2de11Deserialize11deserializeNtB3_14___FieldVisitorNtBT_7Visitor9visit_u64pEBa_
FNDA:0,_RINvXNvXNvNtCskkwNnPUyuBS_8callisto4crews_1__NtB8_4CrewNtNtCs8pDKiTx8cJZ_5serde2de11Deserialize11deserializeNtB3_14___FieldVisitorNtBT_7Visitor11visit_bytespEBa_
FNDA:1,_RNvNtNtCscBGMVToPeRm_8callisto4crew5testss_13test_crew_new
FNDA:1,_RNvNtNvNtNtCscBGMVToPeRm_8callisto4crew5testss_13test_crew_new4init4init
FNDA:1,_RNvNtNtCscBGMVToPeRm_8callisto4crew5testss_14test_get_skill
FNDA:1,_RNvNtNvNtNtCscBGMVToPeRm_8callisto4crew5testss_14test_get_skill4init4init
FNDA:1,_RNvNtNtCscBGMVToPeRm_8callisto4crew5testss_28test_get_skill_gunnery_panic
FNDA:1,_RNvNtNvNtNtCscBGMVToPeRm_8callisto4crew5testss_28test_get_skill_gunnery_panic4init4init
FNDA:1,_RNvNtNtCscBGMVToPeRm_8callisto4crew5testss_26test_get_individual_skills
FNDA:1,_RNvNtNvNtNtCscBGMVToPeRm_8callisto4crew5testss_26test_get_individual_skills4init4init
FNDA:1,_RNvNtNtCscBGMVToPeRm_8callisto4crew5testss_16test_get_gunnery
FNDA:1,_RNvNtNvNtNtCscBGMVToPeRm_8callisto4crew5testss_16test_get_gunnery4init4init
FNDA:1,_RNvNtNtCscBGMVToPeRm_8callisto4crew5testss_14test_set_skill
FNDA:1,_RNvNtNvNtNtCscBGMVToPeRm_8callisto4crew5testss_14test_set_skill4init4init
FNDA:1,_RNvNtNtCscBGMVToPeRm_8callisto4crew5testss_28test_set_skill_gunnery_panic
FNDA:1,_RNvNtNvNtNtCscBGMVToPeRm_8callisto4crew5testss_28test_set_skill_gunnery_panic4init4init
FNDA:1,_RNvNtNtCscBGMVToPeRm_8callisto4crew5testss_16test_add_gunnery
FNDA:1,_RNvNtNvNtNtCscBGMVToPeRm_8callisto4crew5testss_16test_add_gunnery4init4init
FNDA:1,_RNvNtNtCscBGMVToPeRm_8callisto4crew5testss_20test_default_gunnery
FNDA:1,_RNvNtNvNtNtCscBGMVToPeRm_8callisto4crew5testss_20test_default_gunnery4init4init
FNDA:1,_RNvNtNtCscBGMVToPeRm_8callisto4crew5testss_39test_crew_serialization_deserialization
FNDA:1,_RNvNtNvNtNtCscBGMVToPeRm_8callisto4crew5testss_39test_crew_serialization_deserialization4init4init
FNDA:0,_RNvXNvXNvNtCscBGMVToPeRm_8callisto4crews_1__NtB7_4CrewNtNtCs8pDKiTx8cJZ_5serde2de11Deserialize11deserializeNtB2_14___FieldVisitorNtBS_7Visitor9expecting
FNDA:0,_RINvXNvXNvNtCscBGMVToPeRm_8callisto4crews_1__NtB8_4CrewNtNtCs8pDKiTx8cJZ_5serde2de11Deserialize11deserializeNtB3_14___FieldVisitorNtBT_7Visitor9visit_u64pEBa_
FNDA:0,_RINvXNvXNvNtCscBGMVToPeRm_8callisto4crews_1__NtB8_4CrewNtNtCs8pDKiTx8cJZ_5serde2de11Deserialize11deserializeNtB3_14___FieldVisitorNtBT_7Visitor11visit_bytespEBa_
FNDA:1,_RNvNtCscBGMVToPeRm_8callisto4crew15default_gunnery
FNDA:88,_RNvMNtCscBGMVToPeRm_8callisto4crewNtB2_4Crew3new
FNDA:6,_RNvMNtCscBGMVToPeRm_8callisto4crewNtB2_4Crew9get_skill
FNDA:8,_RNvMNtCscBGMVToPeRm_8callisto4crewNtB2_4Crew9get_pilot
FNDA:3,_RNvMNtCscBGMVToPeRm_8callisto4crewNtB2_4Crew20get_engineering_jump
FNDA:3,_RNvMNtCscBGMVToPeRm_8callisto4crewNtB2_4Crew21get_engineering_power
FNDA:3,_RNvMNtCscBGMVToPeRm_8callisto4crewNtB2_4Crew24get_engineering_maneuver
FNDA:3,_RNvMNtCscBGMVToPeRm_8callisto4crewNtB2_4Crew11get_sensors
FNDA:97,_RNvMNtCscBGMVToPeRm_8callisto4crewNtB2_4Crew11get_gunnery
FNDA:13,_RNvMNtCscBGMVToPeRm_8callisto4crewNtB2_4Crew9set_skill
FNDA:4,_RNvMNtCscBGMVToPeRm_8callisto4crewNtB2_4Crew11add_gunnery
FNDA:76,_RNvXs_NtCscBGMVToPeRm_8callisto4crewNtB4_4CrewNtNtCs9f3LFPSIp77_4core7default7Default7default
FNDA:0,_RNvXs0_NvXNvNtCscBGMVToPeRm_8callisto4crews_1__NtBa_4CrewNtNtCs8pDKiTx8cJZ_5serde2de11Deserialize11deserializeNtB5_9___VisitorNtBV_7Visitor9expecting
FNDA:210,_RINvXNvXNvNtCscBGMVToPeRm_8callisto4crews_1__NtB8_4CrewNtNtCs8pDKiTx8cJZ_5serde2de11Deserialize11deserializeNtB3_14___FieldVisitorNtBT_7Visitor9visit_strNtNtCse3EK68OXEkC_10serde_json5error5ErrorEBa_
FNDA:210,_RINvXs_NvXNvNtCscBGMVToPeRm_8callisto4crews_1__NtBa_4CrewNtNtCs8pDKiTx8cJZ_5serde2de11Deserialize11deserializeNtB5_7___FieldBT_11deserializeINtNtCse3EK68OXEkC_10serde_json2de6MapKeyNtNtB2j_4read7StrReadEEBc_
FNDA:0,_RINvXs_NvXNvNtCscBGMVToPeRm_8callisto4crews_1__NtBa_4CrewNtNtCs8pDKiTx8cJZ_5serde2de11Deserialize11deserializeNtB5_7___FieldBT_11deserializeINtNtCse3EK68OXEkC_10serde_json2de6MapKeyNtNtB2j_4read9SliceReadEEBc_
FNDA:0,_RINvXs_NvXNvNtCscBGMVToPeRm_8callisto4crews_1__NtBa_4CrewNtNtCs8pDKiTx8cJZ_5serde2de11Deserialize11deserializeNtB5_7___FieldBT_11deserializeNtNtNtCse3EK68OXEkC_10serde_json5value2de18MapKeyDeserializerEBc_
FNDA:0,_RINvXs0_NvXNvNtCscBGMVToPeRm_8callisto4crews_1__NtBb_4CrewNtNtCs8pDKiTx8cJZ_5serde2de11Deserialize11deserializeNtB6_9___VisitorNtBW_7Visitor9visit_seqINtNtCse3EK68OXEkC_10serde_json2de9SeqAccessNtNtB2t_4read7StrReadEEBd_
FNDA:0,_RINvXs0_NvXNvNtCscBGMVToPeRm_8callisto4crews_1__NtBb_4CrewNtNtCs8pDKiTx8cJZ_5serde2de11Deserialize11deserializeNtB6_9___VisitorNtBW_7Visitor9visit_seqINtNtCse3EK68OXEkC_10serde_json2de9SeqAccessNtNtB2t_4read9SliceReadEEBd_
FNDA:0,_RINvXs0_NvXNvNtCscBGMVToPeRm_8callisto4crews_1__NtBb_4CrewNtNtCs8pDKiTx8cJZ_5serde2de11Deserialize11deserializeNtB6_9___VisitorNtBW_7Visitor9visit_seqQNtNtNtCse3EK68OXEkC_10serde_json5value2de15SeqDeserializerEBd_
FNDA:35,_RINvXs0_NvXNvNtCscBGMVToPeRm_8callisto4crews_1__NtBb_4CrewNtNtCs8pDKiTx8cJZ_5serde2de11Deserialize11deserializeNtB6_9___VisitorNtBW_7Visitor9visit_mapINtNtCse3EK68OXEkC_10serde_json2de9MapAccessNtNtB2t_4read7StrReadEEBd_
FNDA:0,_RINvXs0_NvXNvNtCscBGMVToPeRm_8callisto4crews_1__NtBb_4CrewNtNtCs8pDKiTx8cJZ_5serde2de11Deserialize11deserializeNtB6_9___VisitorNtBW_7Visitor9visit_mapINtNtCse3EK68OXEkC_10serde_json2de9MapAccessNtNtB2t_4read9SliceReadEEBd_
FNDA:0,_RINvXs0_NvXNvNtCscBGMVToPeRm_8callisto4crews_1__NtBb_4CrewNtNtCs8pDKiTx8cJZ_5serde2de11Deserialize11deserializeNtB6_9___VisitorNtBW_7Visitor9visit_mapQNtNtNtCse3EK68OXEkC_10serde_json5value2de15MapDeserializerEBd_
FNF:33
FNH:33
DA:12,364
DA:29,1
DA:30,1
DA:31,1
DA:34,95
DA:35,95
DA:36,95
DA:37,95
DA:38,95
DA:39,95
DA:40,95
DA:41,95
DA:42,95
DA:43,95
DA:45,6
DA:46,6
DA:47,1
DA:48,1
DA:49,1
DA:50,1
DA:51,1
DA:52,1
DA:54,5
DA:56,9
DA:57,9
DA:58,9
DA:60,4
DA:61,4
DA:62,4
DA:64,4
DA:65,4
DA:66,4
DA:68,4
DA:69,4
DA:70,4
DA:72,3
DA:73,3
DA:74,3
DA:76,103
DA:77,103
DA:78,77
DA:79,26
DA:80,26
DA:81,103
DA:83,13
DA:84,13
DA:85,3
DA:86,3
DA:87,2
DA:88,2
DA:89,2
DA:90,1
DA:92,12
DA:94,4
DA:95,4
DA:96,4
DA:100,83
DA:101,83
DA:102,83
DA:111,1
DA:122,1
DA:138,1
DA:145,1
DA:161,1
DA:172,1
DA:189,1
DA:196,1
DA:207,1
DA:213,1
BRF:0
BRH:0
LF:79
LH:79
end_of_record
SF:/Users/dan/dev/callisto/callisto/src/entity.rs
FN:619,_RINvXs0_NvXNvNvXs4_NtCskkwNnPUyuBS_8callisto6entityNtBh_8EntitiesNtNtCs8pDKiTx8cJZ_5serde2de11Deserialize11deserialize1__NtBb_8EntitiesB11_11deserializeNtB6_9___VisitorNtB13_7Visitor9visit_mapINtNtCse3EK68OXEkC_10serde_json2de9MapAccessNtNtB39_4read9SliceReadEECsj2r3Yn2CUPB_8callisto
FN:619,_RINvXs0_NvXNvNvXs4_NtCskkwNnPUyuBS_8callisto6entityNtBh_8EntitiesNtNtCs8pDKiTx8cJZ_5serde2de11Deserialize11deserialize1__NtBb_8EntitiesB11_11deserializeNtB6_9___VisitorNtB13_7Visitor9visit_seqINtNtCse3EK68OXEkC_10serde_json2de9SeqAccessNtNtB39_4read9SliceReadEECsj2r3Yn2CUPB_8callisto
FN:615,_RINvXs4_NtCskkwNnPUyuBS_8callisto6entityNtB6_8EntitiesNtNtCs8pDKiTx8cJZ_5serde2de11Deserialize11deserializeQINtNtCse3EK68OXEkC_10serde_json2de12DeserializerNtNtB1N_4read9SliceReadEECsj2r3Yn2CUPB_8callisto
FN:619,_RINvXs_NvXNvNvXs4_NtCskkwNnPUyuBS_8callisto6entityNtBg_8EntitiesNtNtCs8pDKiTx8cJZ_5serde2de11Deserialize11deserialize1__NtBa_8EntitiesB10_11deserializeNtB5_7___FieldB10_11deserializeINtNtCse3EK68OXEkC_10serde_json2de6MapKeyNtNtB2Z_4read9SliceReadEECsj2r3Yn2CUPB_8callisto
FN:634,_RNCINvXs4_NtCskkwNnPUyuBS_8callisto6entityNtB8_8EntitiesNtNtCs8pDKiTx8cJZ_5serde2de11Deserialize11deserializeQINtNtCse3EK68OXEkC_10serde_json2de12DeserializerNtNtB1P_4read9SliceReadEE0Csj2r3Yn2CUPB_8callisto
FN:644,_RNCINvXs4_NtCskkwNnPUyuBS_8callisto6entityNtB8_8EntitiesNtNtCs8pDKiTx8cJZ_5serde2de11Deserialize11deserializeQINtNtCse3EK68OXEkC_10serde_json2de12DeserializerNtNtB1P_4read9SliceReadEEs0_0Csj2r3Yn2CUPB_8callisto
FN:639,_RNCINvXs4_NtCskkwNnPUyuBS_8callisto6entityNtB8_8EntitiesNtNtCs8pDKiTx8cJZ_5serde2de11Deserialize11deserializeQINtNtCse3EK68OXEkC_10serde_json2de12DeserializerNtNtB1P_4read9SliceReadEEs_0Csj2r3Yn2CUPB_8callisto
FN:101,_RNCNvMs_NtCskkwNnPUyuBS_8callisto6entityNtB6_8Entities14load_from_file0Csj2r3Yn2CUPB_8callisto
FN:59,_RNCNvXNtCskkwNnPUyuBS_8callisto6entityNtB4_8EntitiesNtNtCs9f3LFPSIp77_4core3cmp9PartialEq2eq0B6_
FN:60,_RNCNvXNtCskkwNnPUyuBS_8callisto6entityNtB4_8EntitiesNtNtCs9f3LFPSIp77_4core3cmp9PartialEq2eqs_0B6_
FN:61,_RNCNvXNtCskkwNnPUyuBS_8callisto6entityNtB4_8EntitiesNtNtCs9f3LFPSIp77_4core3cmp9PartialEq2eqs0_0B6_
FN:62,_RNCNvXNtCskkwNnPUyuBS_8callisto6entityNtB4_8EntitiesNtNtCs9f3LFPSIp77_4core3cmp9PartialEq2eqs1_0B6_
FN:68,_RNCNvXNtCskkwNnPUyuBS_8callisto6entityNtB4_8EntitiesNtNtCs9f3LFPSIp77_4core3cmp9PartialEq2eqs2_0B6_
FN:74,_RNCNvXNtCskkwNnPUyuBS_8callisto6entityNtB4_8EntitiesNtNtCs9f3LFPSIp77_4core3cmp9PartialEq2eqs3_0B6_
FN:175,_RNCNvMs_NtCskkwNnPUyuBS_8callisto6entityNtB6_8Entities10add_planet0B8_
FN:224,_RNCNvMs_NtCskkwNnPUyuBS_8callisto6entityNtB6_8Entities14launch_missile0B8_
FN:230,_RNCNvMs_NtCskkwNnPUyuBS_8callisto6entityNtB6_8Entities14launch_missiles_0B8_
FN:281,_RNCNvMs_NtCskkwNnPUyuBS_8callisto6entityNtB6_8Entities12fire_actions0B8_
FN:309,_RNCNvMs_NtCskkwNnPUyuBS_8callisto6entityNtB6_8Entities10update_all0B8_
FN:316,_RNCNvMs_NtCskkwNnPUyuBS_8callisto6entityNtB6_8Entities10update_alls_0B8_
FN:325,_RNCNvMs_NtCskkwNnPUyuBS_8callisto6entityNtB6_8Entities10update_alls0_0B8_
FN:333,_RNCNvMs_NtCskkwNnPUyuBS_8callisto6entityNtB6_8Entities10update_alls1_0B8_
FN:362,_RNCNCNvMs_NtCskkwNnPUyuBS_8callisto6entityNtB8_8Entities10update_alls1_00Ba_
FN:363,_RNCNCNvMs_NtCskkwNnPUyuBS_8callisto6entityNtB8_8Entities10update_alls1_0s_0Ba_
FN:409,_RNCNvMs_NtCskkwNnPUyuBS_8callisto6entityNtB6_8Entities10update_alls2_0B8_
FN:439,_RNCNvMs_NtCskkwNnPUyuBS_8callisto6entityNtB6_8Entities10update_alls3_0B8_
FN:444,_RNCNvMs_NtCskkwNnPUyuBS_8callisto6entityNtB6_8Entities10update_alls4_0B8_
FN:495,_RNCNvMs_NtCskkwNnPUyuBS_8callisto6entityNtB6_8Entities14fixup_pointers0B8_
FN:508,_RNCNvMs_NtCskkwNnPUyuBS_8callisto6entityNtB6_8Entities14fixup_pointerss_0B8_
FN:568,_RINvXs3_NtCskkwNnPUyuBS_8callisto6entityNtB6_8EntitiesNtNtCs8pDKiTx8cJZ_5serde3ser9Serialize9serializeQINtNtCse3EK68OXEkC_10serde_json3ser10SerializerQINtNtCsdze8u8oDPro_5alloc3vec3VechEEEB8_
FN:583,_RNCINvXs3_NtCskkwNnPUyuBS_8callisto6entityNtB8_8EntitiesNtNtCs8pDKiTx8cJZ_5serde3ser9Serialize9serializeQINtNtCse3EK68OXEkC_10serde_json3ser10SerializerQINtNtCsdze8u8oDPro_5alloc3vec3VechEEE0Ba_
FN:588,_RNCINvXs3_NtCskkwNnPUyuBS_8callisto6entityNtB8_8EntitiesNtNtCs8pDKiTx8cJZ_5serde3ser9Serialize9serializeQINtNtCse3EK68OXEkC_10serde_json3ser10SerializerQINtNtCsdze8u8oDPro_5alloc3vec3VechEEEs_0Ba_
FN:593,_RNCINvXs3_NtCskkwNnPUyuBS_8callisto6entityNtB8_8EntitiesNtNtCs8pDKiTx8cJZ_5serde3ser9Serialize9serializeQINtNtCse3EK68OXEkC_10serde_json3ser10SerializerQINtNtCsdze8u8oDPro_5alloc3vec3VechEEEs0_0Ba_
FN:601,_RNCINvXs3_NtCskkwNnPUyuBS_8callisto6entityNtB8_8EntitiesNtNtCs8pDKiTx8cJZ_5serde3ser9Serialize9serializeQINtNtCse3EK68OXEkC_10serde_json3ser10SerializerQINtNtCsdze8u8oDPro_5alloc3vec3VechEEEs1_0Ba_
FN:604,_RNCINvXs3_NtCskkwNnPUyuBS_8callisto6entityNtB8_8EntitiesNtNtCs8pDKiTx8cJZ_5serde3ser9Serialize9serializeQINtNtCse3EK68OXEkC_10serde_json3ser10SerializerQINtNtCsdze8u8oDPro_5alloc3vec3VechEEEs2_0Ba_
FN:607,_RNCINvXs3_NtCskkwNnPUyuBS_8callisto6entityNtB8_8EntitiesNtNtCs8pDKiTx8cJZ_5serde3ser9Serialize9serializeQINtNtCse3EK68OXEkC_10serde_json3ser10SerializerQINtNtCsdze8u8oDPro_5alloc3vec3VechEEEs3_0Ba_
FN:615,_RINvXs4_NtCskkwNnPUyuBS_8callisto6entityNtB6_8EntitiesNtNtCs8pDKiTx8cJZ_5serde2de11Deserialize11deserializeQINtNtCse3EK68OXEkC_10serde_json2de12DeserializerNtNtB1N_4read7StrReadEEB8_
FN:634,_RNCINvXs4_NtCskkwNnPUyuBS_8callisto6entityNtB8_8EntitiesNtNtCs8pDKiTx8cJZ_5serde2de11Deserialize11deserializeQINtNtCse3EK68OXEkC_10serde_json2de12DeserializerNtNtB1P_4read7StrReadEE0Ba_
FN:639,_RNCINvXs4_NtCskkwNnPUyuBS_8callisto6entityNtB8_8EntitiesNtNtCs8pDKiTx8cJZ_5serde2de11Deserialize11deserializeQINtNtCse3EK68OXEkC_10serde_json2de12DeserializerNtNtB1P_4read7StrReadEEs_0Ba_
FN:644,_RNCINvXs4_NtCskkwNnPUyuBS_8callisto6entityNtB8_8EntitiesNtNtCs8pDKiTx8cJZ_5serde2de11Deserialize11deserializeQINtNtCse3EK68OXEkC_10serde_json2de12DeserializerNtNtB1P_4read7StrReadEEs0_0Ba_
FN:655,_RNCNvNtCskkwNnPUyuBS_8callisto6entity10deep_clone0B5_
FN:619,_RINvXNvXNvNvXs4_NtCskkwNnPUyuBS_8callisto6entityNtBe_8EntitiesNtNtCs8pDKiTx8cJZ_5serde2de11Deserialize11deserialize1__NtB8_8EntitiesBY_11deserializeNtB3_14___FieldVisitorNtB10_7Visitor9visit_strNtNtCse3EK68OXEkC_10serde_json5error5ErrorEBg_
FN:619,_RINvXs_NvXNvNvXs4_NtCskkwNnPUyuBS_8callisto6entityNtBg_8EntitiesNtNtCs8pDKiTx8cJZ_5serde2de11Deserialize11deserialize1__NtBa_8EntitiesB10_11deserializeNtB5_7___FieldB10_11deserializeINtNtCse3EK68OXEkC_10serde_json2de6MapKeyNtNtB2Z_4read7StrReadEEBi_
FN:619,_RINvXs0_NvXNvNvXs4_NtCskkwNnPUyuBS_8callisto6entityNtBh_8EntitiesNtNtCs8pDKiTx8cJZ_5serde2de11Deserialize11deserialize1__NtBb_8EntitiesB11_11deserializeNtB6_9___VisitorNtB13_7Visitor9visit_seqINtNtCse3EK68OXEkC_10serde_json2de9SeqAccessNtNtB39_4read7StrReadEEBj_
FN:619,_RINvXs0_NvXNvNvXs4_NtCskkwNnPUyuBS_8callisto6entityNtBh_8EntitiesNtNtCs8pDKiTx8cJZ_5serde2de11Deserialize11deserialize1__NtBb_8EntitiesB11_11deserializeNtB6_9___VisitorNtB13_7Visitor9visit_mapINtNtCse3EK68OXEkC_10serde_json2de9MapAccessNtNtB39_4read7StrReadEEBj_
FN:38,_RINvXNvXNvNtCskkwNnPUyuBS_8callisto6entitys_1__NtB8_12UpdateActionNtNtCs8pDKiTx8cJZ_5serde2de11Deserialize11deserializeNtB3_14___FieldVisitorNtB14_7Visitor9visit_u64pEBa_
FN:38,_RINvXNvXNvNtCskkwNnPUyuBS_8callisto6entitys_1__NtB8_12UpdateActionNtNtCs8pDKiTx8cJZ_5serde2de11Deserialize11deserializeNtB3_14___FieldVisitorNtB14_7Visitor9visit_strpEBa_
FN:38,_RINvXNvXNvNtCskkwNnPUyuBS_8callisto6entitys_1__NtB8_12UpdateActionNtNtCs8pDKiTx8cJZ_5serde2de11Deserialize11deserializeNtB3_14___FieldVisitorNtB14_7Visitor11visit_bytespEBa_
FN:38,_RINvXs_NvXNvNtCskkwNnPUyuBS_8callisto6entitys_1__NtBa_12UpdateActionNtNtCs8pDKiTx8cJZ_5serde2de11Deserialize11deserializeNtB5_7___FieldB14_11deserializepEBc_
FN:38,_RINvXs0_NvXNvNtCskkwNnPUyuBS_8callisto6entitys_1__NtBb_12UpdateActionNtNtCs8pDKiTx8cJZ_5serde2de11Deserialize11deserializeNtB6_9___VisitorNtB17_7Visitor10visit_enumpEBd_
FN:38,_RINvXNvXs0_NvXNvNtCskkwNnPUyuBS_8callisto6entitys_1__NtBe_12UpdateActionNtNtCs8pDKiTx8cJZ_5serde2de11Deserialize11deserializeNtB9_9___VisitorNtB1a_7Visitor10visit_enumNtB3_14___FieldVisitorB2f_9visit_u64pEBg_
FN:38,_RINvXNvXs0_NvXNvNtCskkwNnPUyuBS_8callisto6entitys_1__NtBe_12UpdateActionNtNtCs8pDKiTx8cJZ_5serde2de11Deserialize11deserializeNtB9_9___VisitorNtB1a_7Visitor10visit_enumNtB3_14___FieldVisitorB2f_9visit_strpEBg_
FN:38,_RINvXNvXs0_NvXNvNtCskkwNnPUyuBS_8callisto6entitys_1__NtBe_12UpdateActionNtNtCs8pDKiTx8cJZ_5serde2de11Deserialize11deserializeNtB9_9___VisitorNtB1a_7Visitor10visit_enumNtB3_14___FieldVisitorB2f_11visit_bytespEBg_
FN:38,_RINvXs_NvXs0_NvXNvNtCskkwNnPUyuBS_8callisto6entitys_1__NtBg_12UpdateActionNtNtCs8pDKiTx8cJZ_5serde2de11Deserialize11deserializeNtBb_9___VisitorNtB1c_7Visitor10visit_enumNtB5_7___FieldB1a_11deserializepEBi_
FN:38,_RINvXs0_NvXs0_NvXNvNtCskkwNnPUyuBS_8callisto6entitys_1__NtBh_12UpdateActionNtNtCs8pDKiTx8cJZ_5serde2de11Deserialize11deserializeNtBc_9___VisitorNtB1d_7Visitor10visit_enumNtB6_9___VisitorB2i_9visit_seqpEBj_
FN:38,_RINvXs0_NvXs0_NvXNvNtCskkwNnPUyuBS_8callisto6entitys_1__NtBh_12UpdateActionNtNtCs8pDKiTx8cJZ_5serde2de11Deserialize11deserializeNtBc_9___VisitorNtB1d_7Visitor10visit_enumNtB6_9___VisitorB2i_9visit_mappEBj_
FN:38,_RINvXs1_NvXs0_NvXNvNtCskkwNnPUyuBS_8callisto6entitys_1__NtBh_12UpdateActionNtNtCs8pDKiTx8cJZ_5serde2de11Deserialize11deserializeNtBc_9___VisitorNtB1d_7Visitor10visit_enumNtB6_s_14___FieldVisitorB2i_9visit_u64pEBj_
FN:38,_RINvXs1_NvXs0_NvXNvNtCskkwNnPUyuBS_8callisto6entitys_1__NtBh_12UpdateActionNtNtCs8pDKiTx8cJZ_5serde2de11Deserialize11deserializeNtBc_9___VisitorNtB1d_7Visitor10visit_enumNtB6_s_14___FieldVisitorB2i_9visit_strpEBj_
FN:38,_RINvXs1_NvXs0_NvXNvNtCskkwNnPUyuBS_8callisto6entitys_1__NtBh_12UpdateActionNtNtCs8pDKiTx8cJZ_5serde2de11Deserialize11deserializeNtBc_9___VisitorNtB1d_7Visitor10visit_enumNtB6_s_14___FieldVisitorB2i_11visit_bytespEBj_
FN:38,_RINvXs2_NvXs0_NvXNvNtCskkwNnPUyuBS_8callisto6entitys_1__NtBh_12UpdateActionNtNtCs8pDKiTx8cJZ_5serde2de11Deserialize11deserializeNtBc_9___VisitorNtB1d_7Visitor10visit_enumNtB6_s_7___FieldB1b_11deserializepEBj_
FN:38,_RINvXs3_NvXs0_NvXNvNtCskkwNnPUyuBS_8callisto6entitys_1__NtBh_12UpdateActionNtNtCs8pDKiTx8cJZ_5serde2de11Deserialize11deserializeNtBc_9___VisitorNtB1d_7Visitor10visit_enumNtB6_s_9___VisitorB2i_9visit_seqpEBj_
FN:38,_RINvXs3_NvXs0_NvXNvNtCskkwNnPUyuBS_8callisto6entitys_1__NtBh_12UpdateActionNtNtCs8pDKiTx8cJZ_5serde2de11Deserialize11deserializeNtBc_9___VisitorNtB1d_7Visitor10visit_enumNtB6_s_9___VisitorB2i_9visit_mappEBj_
FN:101,_RNCNvMs_NtCskkwNnPUyuBS_8callisto6entityNtB6_8Entities14load_from_file0B8_
FN:619,_RINvXNvXNvNvXs4_NtCskkwNnPUyuBS_8callisto6entityNtBe_8EntitiesNtNtCs8pDKiTx8cJZ_5serde2de11Deserialize11deserialize1__NtB8_8EntitiesBY_11deserializeNtB3_14___FieldVisitorNtB10_7Visitor9visit_u64pEBg_
FN:619,_RINvXNvXNvNvXs4_NtCskkwNnPUyuBS_8callisto6entityNtBe_8EntitiesNtNtCs8pDKiTx8cJZ_5serde2de11Deserialize11deserialize1__NtB8_8EntitiesBY_11deserializeNtB3_14___FieldVisitorNtB10_7Visitor11visit_bytespEBg_
FN:55,_RNvXNtCskkwNnPUyuBS_8callisto6entityNtB2_8EntitiesNtNtCs9f3LFPSIp77_4core3cmp9PartialEq2eq
FN:84,_RNvMs_NtCskkwNnPUyuBS_8callisto6entityNtB4_8Entities3new
FN:93,_RNvMs_NtCskkwNnPUyuBS_8callisto6entityNtB4_8Entities3len
FN:97,_RNvMs_NtCskkwNnPUyuBS_8callisto6entityNtB4_8Entities8is_empty
FN:101,_RNvMs_NtCskkwNnPUyuBS_8callisto6entityNtB4_8Entities14load_from_file
FN:135,_RNvMs_NtCskkwNnPUyuBS_8callisto6entityNtB4_8Entities8add_ship
FN:155,_RNvMs_NtCskkwNnPUyuBS_8callisto6entityNtB4_8Entities10add_planet
FN:214,_RNvMs_NtCskkwNnPUyuBS_8callisto6entityNtB4_8Entities14launch_missile
FN:259,_RNvMs_NtCskkwNnPUyuBS_8callisto6entityNtB4_8Entities15set_flight_plan
FN:270,_RNvMs_NtCskkwNnPUyuBS_8callisto6entityNtB4_8Entities12fire_actions
FN:303,_RNvMs_NtCskkwNnPUyuBS_8callisto6entityNtB4_8Entities10update_all
FN:452,_RNvMs_NtCskkwNnPUyuBS_8callisto6entityNtB4_8Entities8validate
FN:490,_RNvMs_NtCskkwNnPUyuBS_8callisto6entityNtB4_8Entities14fixup_pointers
FN:519,_RNvMs_NtCskkwNnPUyuBS_8callisto6entityNtB4_8Entities19reset_gravity_wells
FN:529,_RNvXs0_NtCskkwNnPUyuBS_8callisto6entityNtB5_8EntitiesNtNtCs9f3LFPSIp77_4core3fmt5Debug3fmt
FN:535,_RNvXs1_NtCskkwNnPUyuBS_8callisto6entityNtB5_8EntitiesNtNtCs9f3LFPSIp77_4core3fmt7Display3fmt
FN:562,_RNvXs2_NtCskkwNnPUyuBS_8callisto6entityNtB5_8EntitiesNtNtCs9f3LFPSIp77_4core5clone5Clone5clone
FN:652,_RNvNtCskkwNnPUyuBS_8callisto6entity10deep_clone
FN:38,_RNvXNvXNvNtCskkwNnPUyuBS_8callisto6entitys_1__NtB7_12UpdateActionNtNtCs8pDKiTx8cJZ_5serde2de11Deserialize11deserializeNtB2_14___FieldVisitorNtB13_7Visitor9expecting
FN:38,_RNvXs0_NvXNvNtCskkwNnPUyuBS_8callisto6entitys_1__NtBa_12UpdateActionNtNtCs8pDKiTx8cJZ_5serde2de11Deserialize11deserializeNtB5_9___VisitorNtB16_7Visitor9expecting
FN:38,_RNvXNvXs0_NvXNvNtCskkwNnPUyuBS_8callisto6entitys_1__NtBd_12UpdateActionNtNtCs8pDKiTx8cJZ_5serde2de11Deserialize11deserializeNtB8_9___VisitorNtB19_7Visitor10visit_enumNtB2_14___FieldVisitorB2e_9expecting
FN:38,_RNvXs0_NvXs0_NvXNvNtCskkwNnPUyuBS_8callisto6entitys_1__NtBg_12UpdateActionNtNtCs8pDKiTx8cJZ_5serde2de11Deserialize11deserializeNtBb_9___VisitorNtB1c_7Visitor10visit_enumNtB5_9___VisitorB2h_9expecting
FN:38,_RNvXs1_NvXs0_NvXNvNtCskkwNnPUyuBS_8callisto6entitys_1__NtBg_12UpdateActionNtNtCs8pDKiTx8cJZ_5serde2de11Deserialize11deserializeNtBb_9___VisitorNtB1c_7Visitor10visit_enumNtB5_s_14___FieldVisitorB2h_9expecting
FN:38,_RNvXs3_NvXs0_NvXNvNtCskkwNnPUyuBS_8callisto6entitys_1__NtBg_12UpdateActionNtNtCs8pDKiTx8cJZ_5serde2de11Deserialize11deserializeNtBb_9___VisitorNtB1c_7Visitor10visit_enumNtB5_s_9___VisitorB2h_9expecting
FN:619,_RNvXNvXNvNvXs4_NtCskkwNnPUyuBS_8callisto6entityNtBd_8EntitiesNtNtCs8pDKiTx8cJZ_5serde2de11Deserialize11deserialize1__NtB7_8EntitiesBX_11deserializeNtB2_14___FieldVisitorNtBZ_7Visitor9expecting
FN:619,_RNvXs0_NvXNvNvXs4_NtCskkwNnPUyuBS_8callisto6entityNtBg_8EntitiesNtNtCs8pDKiTx8cJZ_5serde2de11Deserialize11deserialize1__NtBa_8EntitiesB10_11deserializeNtB5_9___VisitorNtB12_7Visitor9expecting
FN:55,_RNvXNtCscBGMVToPeRm_8callisto6entityNtB2_8EntitiesNtNtCs9f3LFPSIp77_4core3cmp9PartialEq2eq
FN:84,_RNvMs_NtCscBGMVToPeRm_8callisto6entityNtB4_8Entities3new
FN:93,_RNvMs_NtCscBGMVToPeRm_8callisto6entityNtB4_8Entities3len
FN:97,_RNvMs_NtCscBGMVToPeRm_8callisto6entityNtB4_8Entities8is_empty
FN:101,_RNvMs_NtCscBGMVToPeRm_8callisto6entityNtB4_8Entities14load_from_file
FN:135,_RNvMs_NtCscBGMVToPeRm_8callisto6entityNtB4_8Entities8add_ship
FN:155,_RNvMs_NtCscBGMVToPeRm_8callisto6entityNtB4_8Entities10add_planet
FN:214,_RNvMs_NtCscBGMVToPeRm_8callisto6entityNtB4_8Entities14launch_missile
FN:259,_RNvMs_NtCscBGMVToPeRm_8callisto6entityNtB4_8Entities15set_flight_plan
FN:270,_RNvMs_NtCscBGMVToPeRm_8callisto6entityNtB4_8Entities12fire_actions
FN:303,_RNvMs_NtCscBGMVToPeRm_8callisto6entityNtB4_8Entities10update_all
FN:452,_RNvMs_NtCscBGMVToPeRm_8callisto6entityNtB4_8Entities8validate
FN:490,_RNvMs_NtCscBGMVToPeRm_8callisto6entityNtB4_8Entities14fixup_pointers
FN:519,_RNvMs_NtCscBGMVToPeRm_8callisto6entityNtB4_8Entities19reset_gravity_wells
FN:529,_RNvXs0_NtCscBGMVToPeRm_8callisto6entityNtB5_8EntitiesNtNtCs9f3LFPSIp77_4core3fmt5Debug3fmt
FN:535,_RNvXs1_NtCscBGMVToPeRm_8callisto6entityNtB5_8EntitiesNtNtCs9f3LFPSIp77_4core3fmt7Display3fmt
FN:562,_RNvXs2_NtCscBGMVToPeRm_8callisto6entityNtB5_8EntitiesNtNtCs9f3LFPSIp77_4core5clone5Clone5clone
FN:652,_RNvNtCscBGMVToPeRm_8callisto6entity10deep_clone
FN:619,_RNvXs0_NvXNvNvXs4_NtCscBGMVToPeRm_8callisto6entityNtBg_8EntitiesNtNtCs8pDKiTx8cJZ_5serde2de11Deserialize11deserialize1__NtBa_8EntitiesB10_11deserializeNtB5_9___VisitorNtB12_7Visitor9expecting
FN:38,_RNvXNvXNvNtCscBGMVToPeRm_8callisto6entitys_1__NtB7_12UpdateActionNtNtCs8pDKiTx8cJZ_5serde2de11Deserialize11deserializeNtB2_14___FieldVisitorNtB13_7Visitor9expecting
FN:38,_RINvXNvXNvNtCscBGMVToPeRm_8callisto6entitys_1__NtB8_12UpdateActionNtNtCs8pDKiTx8cJZ_5serde2de11Deserialize11deserializeNtB3_14___FieldVisitorNtB14_7Visitor9visit_u64pEBa_
FN:38,_RINvXNvXNvNtCscBGMVToPeRm_8callisto6entitys_1__NtB8_12UpdateActionNtNtCs8pDKiTx8cJZ_5serde2de11Deserialize11deserializeNtB3_14___FieldVisitorNtB14_7Visitor9visit_strpEBa_
FN:38,_RINvXNvXNvNtCscBGMVToPeRm_8callisto6entitys_1__NtB8_12UpdateActionNtNtCs8pDKiTx8cJZ_5serde2de11Deserialize11deserializeNtB3_14___FieldVisitorNtB14_7Visitor11visit_bytespEBa_
FN:38,_RINvXs_NvXNvNtCscBGMVToPeRm_8callisto6entitys_1__NtBa_12UpdateActionNtNtCs8pDKiTx8cJZ_5serde2de11Deserialize11deserializeNtB5_7___FieldB14_11deserializepEBc_
FN:38,_RNvXs0_NvXNvNtCscBGMVToPeRm_8callisto6entitys_1__NtBa_12UpdateActionNtNtCs8pDKiTx8cJZ_5serde2de11Deserialize11deserializeNtB5_9___VisitorNtB16_7Visitor9expecting
FN:38,_RINvXs0_NvXNvNtCscBGMVToPeRm_8callisto6entitys_1__NtBb_12UpdateActionNtNtCs8pDKiTx8cJZ_5serde2de11Deserialize11deserializeNtB6_9___VisitorNtB17_7Visitor10visit_enumpEBd_
FN:38,_RNvXNvXs0_NvXNvNtCscBGMVToPeRm_8callisto6entitys_1__NtBd_12UpdateActionNtNtCs8pDKiTx8cJZ_5serde2de11Deserialize11deserializeNtB8_9___VisitorNtB19_7Visitor10visit_enumNtB2_14___FieldVisitorB2e_9expecting
FN:38,_RINvXNvXs0_NvXNvNtCscBGMVToPeRm_8callisto6entitys_1__NtBe_12UpdateActionNtNtCs8pDKiTx8cJZ_5serde2de11Deserialize11deserializeNtB9_9___VisitorNtB1a_7Visitor10visit_enumNtB3_14___FieldVisitorB2f_9visit_u64pEBg_
FN:38,_RINvXNvXs0_NvXNvNtCscBGMVToPeRm_8callisto6entitys_1__NtBe_12UpdateActionNtNtCs8pDKiTx8cJZ_5serde2de11Deserialize11deserializeNtB9_9___VisitorNtB1a_7Visitor10visit_enumNtB3_14___FieldVisitorB2f_9visit_strpEBg_
FN:38,_RINvXNvXs0_NvXNvNtCscBGMVToPeRm_8callisto6entitys_1__NtBe_12UpdateActionNtNtCs8pDKiTx8cJZ_5serde2de11Deserialize11deserializeNtB9_9___VisitorNtB1a_7Visitor10visit_enumNtB3_14___FieldVisitorB2f_11visit_bytespEBg_
FN:38,_RINvXs_NvXs0_NvXNvNtCscBGMVToPeRm_8callisto6entitys_1__NtBg_12UpdateActionNtNtCs8pDKiTx8cJZ_5serde2de11Deserialize11deserializeNtBb_9___VisitorNtB1c_7Visitor10visit_enumNtB5_7___FieldB1a_11deserializepEBi_
FN:38,_RNvXs0_NvXs0_NvXNvNtCscBGMVToPeRm_8callisto6entitys_1__NtBg_12UpdateActionNtNtCs8pDKiTx8cJZ_5serde2de11Deserialize11deserializeNtBb_9___VisitorNtB1c_7Visitor10visit_enumNtB5_9___VisitorB2h_9expecting
FN:38,_RINvXs0_NvXs0_NvXNvNtCscBGMVToPeRm_8callisto6entitys_1__NtBh_12UpdateActionNtNtCs8pDKiTx8cJZ_5serde2de11Deserialize11deserializeNtBc_9___VisitorNtB1d_7Visitor10visit_enumNtB6_9___VisitorB2i_9visit_seqpEBj_
FN:38,_RINvXs0_NvXs0_NvXNvNtCscBGMVToPeRm_8callisto6entitys_1__NtBh_12UpdateActionNtNtCs8pDKiTx8cJZ_5serde2de11Deserialize11deserializeNtBc_9___VisitorNtB1d_7Visitor10visit_enumNtB6_9___VisitorB2i_9visit_mappEBj_
FN:38,_RNvXs1_NvXs0_NvXNvNtCscBGMVToPeRm_8callisto6entitys_1__NtBg_12UpdateActionNtNtCs8pDKiTx8cJZ_5serde2de11Deserialize11deserializeNtBb_9___VisitorNtB1c_7Visitor10visit_enumNtB5_s_14___FieldVisitorB2h_9expecting
FN:38,_RINvXs1_NvXs0_NvXNvNtCscBGMVToPeRm_8callisto6entitys_1__NtBh_12UpdateActionNtNtCs8pDKiTx8cJZ_5serde2de11Deserialize11deserializeNtBc_9___VisitorNtB1d_7Visitor10visit_enumNtB6_s_14___FieldVisitorB2i_9visit_u64pEBj_
FN:38,_RINvXs1_NvXs0_NvXNvNtCscBGMVToPeRm_8callisto6entitys_1__NtBh_12UpdateActionNtNtCs8pDKiTx8cJZ_5serde2de11Deserialize11deserializeNtBc_9___VisitorNtB1d_7Visitor10visit_enumNtB6_s_14___FieldVisitorB2i_9visit_strpEBj_
FN:38,_RINvXs1_NvXs0_NvXNvNtCscBGMVToPeRm_8callisto6entitys_1__NtBh_12UpdateActionNtNtCs8pDKiTx8cJZ_5serde2de11Deserialize11deserializeNtBc_9___VisitorNtB1d_7Visitor10visit_enumNtB6_s_14___FieldVisitorB2i_11visit_bytespEBj_
FN:38,_RINvXs2_NvXs0_NvXNvNtCscBGMVToPeRm_8callisto6entitys_1__NtBh_12UpdateActionNtNtCs8pDKiTx8cJZ_5serde2de11Deserialize11deserializeNtBc_9___VisitorNtB1d_7Visitor10visit_enumNtB6_s_7___FieldB1b_11deserializepEBj_
FN:38,_RNvXs3_NvXs0_NvXNvNtCscBGMVToPeRm_8callisto6entitys_1__NtBg_12UpdateActionNtNtCs8pDKiTx8cJZ_5serde2de11Deserialize11deserializeNtBb_9___VisitorNtB1c_7Visitor10visit_enumNtB5_s_9___VisitorB2h_9expecting
FN:38,_RINvXs3_NvXs0_NvXNvNtCscBGMVToPeRm_8callisto6entitys_1__NtBh_12UpdateActionNtNtCs8pDKiTx8cJZ_5serde2de11Deserialize11deserializeNtBc_9___VisitorNtB1d_7Visitor10visit_enumNtB6_s_9___VisitorB2i_9visit_seqpEBj_
FN:38,_RINvXs3_NvXs0_NvXNvNtCscBGMVToPeRm_8callisto6entitys_1__NtBh_12UpdateActionNtNtCs8pDKiTx8cJZ_5serde2de11Deserialize11deserializeNtBc_9___VisitorNtB1d_7Visitor10visit_enumNtB6_s_9___VisitorB2i_9visit_mappEBj_
FN:619,_RNvXNvXNvNvXs4_NtCscBGMVToPeRm_8callisto6entityNtBd_8EntitiesNtNtCs8pDKiTx8cJZ_5serde2de11Deserialize11deserialize1__NtB7_8EntitiesBX_11deserializeNtB2_14___FieldVisitorNtBZ_7Visitor9expecting
FN:619,_RINvXNvXNvNvXs4_NtCscBGMVToPeRm_8callisto6entityNtBe_8EntitiesNtNtCs8pDKiTx8cJZ_5serde2de11Deserialize11deserialize1__NtB8_8EntitiesBY_11deserializeNtB3_14___FieldVisitorNtB10_7Visitor9visit_u64pEBg_
FN:619,_RINvXNvXNvNvXs4_NtCscBGMVToPeRm_8callisto6entityNtBe_8EntitiesNtNtCs8pDKiTx8cJZ_5serde2de11Deserialize11deserialize1__NtB8_8EntitiesBY_11deserializeNtB3_14___FieldVisitorNtB10_7Visitor11visit_bytespEBg_
FN:1438,_RNCNvNtNtCscBGMVToPeRm_8callisto6entity5testss_28test_unordered_scenario_file0B7_
FN:59,_RNCNvXNtCscBGMVToPeRm_8callisto6entityNtB4_8EntitiesNtNtCs9f3LFPSIp77_4core3cmp9PartialEq2eq0B6_
FN:60,_RNCNvXNtCscBGMVToPeRm_8callisto6entityNtB4_8EntitiesNtNtCs9f3LFPSIp77_4core3cmp9PartialEq2eqs_0B6_
FN:61,_RNCNvXNtCscBGMVToPeRm_8callisto6entityNtB4_8EntitiesNtNtCs9f3LFPSIp77_4core3cmp9PartialEq2eqs0_0B6_
FN:62,_RNCNvXNtCscBGMVToPeRm_8callisto6entityNtB4_8EntitiesNtNtCs9f3LFPSIp77_4core3cmp9PartialEq2eqs1_0B6_
FN:68,_RNCNvXNtCscBGMVToPeRm_8callisto6entityNtB4_8EntitiesNtNtCs9f3LFPSIp77_4core3cmp9PartialEq2eqs2_0B6_
FN:74,_RNCNvXNtCscBGMVToPeRm_8callisto6entityNtB4_8EntitiesNtNtCs9f3LFPSIp77_4core3cmp9PartialEq2eqs3_0B6_
FN:101,_RNCNvMs_NtCscBGMVToPeRm_8callisto6entityNtB6_8Entities14load_from_file0B8_
FN:175,_RNCNvMs_NtCscBGMVToPeRm_8callisto6entityNtB6_8Entities10add_planet0B8_
FN:224,_RNCNvMs_NtCscBGMVToPeRm_8callisto6entityNtB6_8Entities14launch_missile0B8_
FN:230,_RNCNvMs_NtCscBGMVToPeRm_8callisto6entityNtB6_8Entities14launch_missiles_0B8_
FN:281,_RNCNvMs_NtCscBGMVToPeRm_8callisto6entityNtB6_8Entities12fire_actions0B8_
FN:309,_RNCNvMs_NtCscBGMVToPeRm_8callisto6entityNtB6_8Entities10update_all0B8_
FN:316,_RNCNvMs_NtCscBGMVToPeRm_8callisto6entityNtB6_8Entities10update_alls_0B8_
FN:325,_RNCNvMs_NtCscBGMVToPeRm_8callisto6entityNtB6_8Entities10update_alls0_0B8_
FN:333,_RNCNvMs_NtCscBGMVToPeRm_8callisto6entityNtB6_8Entities10update_alls1_0B8_
FN:362,_RNCNCNvMs_NtCscBGMVToPeRm_8callisto6entityNtB8_8Entities10update_alls1_00Ba_
FN:363,_RNCNCNvMs_NtCscBGMVToPeRm_8callisto6entityNtB8_8Entities10update_alls1_0s_0Ba_
FN:409,_RNCNvMs_NtCscBGMVToPeRm_8callisto6entityNtB6_8Entities10update_alls2_0B8_
FN:439,_RNCNvMs_NtCscBGMVToPeRm_8callisto6entityNtB6_8Entities10update_alls3_0B8_
FN:444,_RNCNvMs_NtCscBGMVToPeRm_8callisto6entityNtB6_8Entities10update_alls4_0B8_
FN:495,_RNCNvMs_NtCscBGMVToPeRm_8callisto6entityNtB6_8Entities14fixup_pointers0B8_
FN:508,_RNCNvMs_NtCscBGMVToPeRm_8callisto6entityNtB6_8Entities14fixup_pointerss_0B8_
FN:568,_RINvXs3_NtCscBGMVToPeRm_8callisto6entityNtB6_8EntitiesNtNtCs8pDKiTx8cJZ_5serde3ser9Serialize9serializeNtNtNtCse3EK68OXEkC_10serde_json5value3ser10SerializerEB8_
FN:568,_RINvXs3_NtCscBGMVToPeRm_8callisto6entityNtB6_8EntitiesNtNtCs8pDKiTx8cJZ_5serde3ser9Serialize9serializeQINtNtCse3EK68OXEkC_10serde_json3ser10SerializerQINtNtCsdze8u8oDPro_5alloc3vec3VechEEEB8_
FN:583,_RNCINvXs3_NtCscBGMVToPeRm_8callisto6entityNtB8_8EntitiesNtNtCs8pDKiTx8cJZ_5serde3ser9Serialize9serializeNtNtNtCse3EK68OXEkC_10serde_json5value3ser10SerializerE0Ba_
FN:583,_RNCINvXs3_NtCscBGMVToPeRm_8callisto6entityNtB8_8EntitiesNtNtCs8pDKiTx8cJZ_5serde3ser9Serialize9serializeQINtNtCse3EK68OXEkC_10serde_json3ser10SerializerQINtNtCsdze8u8oDPro_5alloc3vec3VechEEE0Ba_
FN:588,_RNCINvXs3_NtCscBGMVToPeRm_8callisto6entityNtB8_8EntitiesNtNtCs8pDKiTx8cJZ_5serde3ser9Serialize9serializeNtNtNtCse3EK68OXEkC_10serde_json5value3ser10SerializerEs_0Ba_
FN:588,_RNCINvXs3_NtCscBGMVToPeRm_8callisto6entityNtB8_8EntitiesNtNtCs8pDKiTx8cJZ_5serde3ser9Serialize9serializeQINtNtCse3EK68OXEkC_10serde_json3ser10SerializerQINtNtCsdze8u8oDPro_5alloc3vec3VechEEEs_0Ba_
FN:593,_RNCINvXs3_NtCscBGMVToPeRm_8callisto6entityNtB8_8EntitiesNtNtCs8pDKiTx8cJZ_5serde3ser9Serialize9serializeNtNtNtCse3EK68OXEkC_10serde_json5value3ser10SerializerEs0_0Ba_
FN:593,_RNCINvXs3_NtCscBGMVToPeRm_8callisto6entityNtB8_8EntitiesNtNtCs8pDKiTx8cJZ_5serde3ser9Serialize9serializeQINtNtCse3EK68OXEkC_10serde_json3ser10SerializerQINtNtCsdze8u8oDPro_5alloc3vec3VechEEEs0_0Ba_
FN:601,_RNCINvXs3_NtCscBGMVToPeRm_8callisto6entityNtB8_8EntitiesNtNtCs8pDKiTx8cJZ_5serde3ser9Serialize9serializeNtNtNtCse3EK68OXEkC_10serde_json5value3ser10SerializerEs1_0Ba_
FN:601,_RNCINvXs3_NtCscBGMVToPeRm_8callisto6entityNtB8_8EntitiesNtNtCs8pDKiTx8cJZ_5serde3ser9Serialize9serializeQINtNtCse3EK68OXEkC_10serde_json3ser10SerializerQINtNtCsdze8u8oDPro_5alloc3vec3VechEEEs1_0Ba_
FN:604,_RNCINvXs3_NtCscBGMVToPeRm_8callisto6entityNtB8_8EntitiesNtNtCs8pDKiTx8cJZ_5serde3ser9Serialize9serializeNtNtNtCse3EK68OXEkC_10serde_json5value3ser10SerializerEs2_0Ba_
FN:604,_RNCINvXs3_NtCscBGMVToPeRm_8callisto6entityNtB8_8EntitiesNtNtCs8pDKiTx8cJZ_5serde3ser9Serialize9serializeQINtNtCse3EK68OXEkC_10serde_json3ser10SerializerQINtNtCsdze8u8oDPro_5alloc3vec3VechEEEs2_0Ba_
FN:607,_RNCINvXs3_NtCscBGMVToPeRm_8callisto6entityNtB8_8EntitiesNtNtCs8pDKiTx8cJZ_5serde3ser9Serialize9serializeNtNtNtCse3EK68OXEkC_10serde_json5value3ser10SerializerEs3_0Ba_
FN:607,_RNCINvXs3_NtCscBGMVToPeRm_8callisto6entityNtB8_8EntitiesNtNtCs8pDKiTx8cJZ_5serde3ser9Serialize9serializeQINtNtCse3EK68OXEkC_10serde_json3ser10SerializerQINtNtCsdze8u8oDPro_5alloc3vec3VechEEEs3_0Ba_
FN:615,_RINvXs4_NtCscBGMVToPeRm_8callisto6entityNtB6_8EntitiesNtNtCs8pDKiTx8cJZ_5serde2de11Deserialize11deserializeNtNtCse3EK68OXEkC_10serde_json5value5ValueEB8_
FN:615,_RINvXs4_NtCscBGMVToPeRm_8callisto6entityNtB6_8EntitiesNtNtCs8pDKiTx8cJZ_5serde2de11Deserialize11deserializeQINtNtCse3EK68OXEkC_10serde_json2de12DeserializerNtNtB1N_4read7StrReadEEB8_
FN:615,_RINvXs4_NtCscBGMVToPeRm_8callisto6entityNtB6_8EntitiesNtNtCs8pDKiTx8cJZ_5serde2de11Deserialize11deserializeQINtNtCse3EK68OXEkC_10serde_json2de12DeserializerNtNtB1N_4read9SliceReadEEB8_
FN:634,_RNCINvXs4_NtCscBGMVToPeRm_8callisto6entityNtB8_8EntitiesNtNtCs8pDKiTx8cJZ_5serde2de11Deserialize11deserializeNtNtCse3EK68OXEkC_10serde_json5value5ValueE0Ba_
FN:634,_RNCINvXs4_NtCscBGMVToPeRm_8callisto6entityNtB8_8EntitiesNtNtCs8pDKiTx8cJZ_5serde2de11Deserialize11deserializeQINtNtCse3EK68OXEkC_10serde_json2de12DeserializerNtNtB1P_4read7StrReadEE0Ba_
FN:634,_RNCINvXs4_NtCscBGMVToPeRm_8callisto6entityNtB8_8EntitiesNtNtCs8pDKiTx8cJZ_5serde2de11Deserialize11deserializeQINtNtCse3EK68OXEkC_10serde_json2de12DeserializerNtNtB1P_4read9SliceReadEE0Ba_
FN:639,_RNCINvXs4_NtCscBGMVToPeRm_8callisto6entityNtB8_8EntitiesNtNtCs8pDKiTx8cJZ_5serde2de11Deserialize11deserializeNtNtCse3EK68OXEkC_10serde_json5value5ValueEs_0Ba_
FN:639,_RNCINvXs4_NtCscBGMVToPeRm_8callisto6entityNtB8_8EntitiesNtNtCs8pDKiTx8cJZ_5serde2de11Deserialize11deserializeQINtNtCse3EK68OXEkC_10serde_json2de12DeserializerNtNtB1P_4read7StrReadEEs_0Ba_
FN:639,_RNCINvXs4_NtCscBGMVToPeRm_8callisto6entityNtB8_8EntitiesNtNtCs8pDKiTx8cJZ_5serde2de11Deserialize11deserializeQINtNtCse3EK68OXEkC_10serde_json2de12DeserializerNtNtB1P_4read9SliceReadEEs_0Ba_
FN:644,_RNCINvXs4_NtCscBGMVToPeRm_8callisto6entityNtB8_8EntitiesNtNtCs8pDKiTx8cJZ_5serde2de11Deserialize11deserializeNtNtCse3EK68OXEkC_10serde_json5value5ValueEs0_0Ba_
FN:644,_RNCINvXs4_NtCscBGMVToPeRm_8callisto6entityNtB8_8EntitiesNtNtCs8pDKiTx8cJZ_5serde2de11Deserialize11deserializeQINtNtCse3EK68OXEkC_10serde_json2de12DeserializerNtNtB1P_4read7StrReadEEs0_0Ba_
FN:644,_RNCINvXs4_NtCscBGMVToPeRm_8callisto6entityNtB8_8EntitiesNtNtCs8pDKiTx8cJZ_5serde2de11Deserialize11deserializeQINtNtCse3EK68OXEkC_10serde_json2de12DeserializerNtNtB1P_4read9SliceReadEEs0_0Ba_
FN:655,_RNCNvNtCscBGMVToPeRm_8callisto6entity10deep_clone0B5_
FN:619,_RINvXNvXNvNvXs4_NtCscBGMVToPeRm_8callisto6entityNtBe_8EntitiesNtNtCs8pDKiTx8cJZ_5serde2de11Deserialize11deserialize1__NtB8_8EntitiesBY_11deserializeNtB3_14___FieldVisitorNtB10_7Visitor9visit_strNtNtCse3EK68OXEkC_10serde_json5error5ErrorEBg_
FN:619,_RINvXs_NvXNvNvXs4_NtCscBGMVToPeRm_8callisto6entityNtBg_8EntitiesNtNtCs8pDKiTx8cJZ_5serde2de11Deserialize11deserialize1__NtBa_8EntitiesB10_11deserializeNtB5_7___FieldB10_11deserializeINtNtCse3EK68OXEkC_10serde_json2de6MapKeyNtNtB2Z_4read7StrReadEEBi_
FN:619,_RINvXs_NvXNvNvXs4_NtCscBGMVToPeRm_8callisto6entityNtBg_8EntitiesNtNtCs8pDKiTx8cJZ_5serde2de11Deserialize11deserialize1__NtBa_8EntitiesB10_11deserializeNtB5_7___FieldB10_11deserializeINtNtCse3EK68OXEkC_10serde_json2de6MapKeyNtNtB2Z_4read9SliceReadEEBi_
FN:619,_RINvXs_NvXNvNvXs4_NtCscBGMVToPeRm_8callisto6entityNtBg_8EntitiesNtNtCs8pDKiTx8cJZ_5serde2de11Deserialize11deserialize1__NtBa_8EntitiesB10_11deserializeNtB5_7___FieldB10_11deserializeNtNtNtCse3EK68OXEkC_10serde_json5value2de18MapKeyDeserializerEBi_
FN:619,_RINvXs0_NvXNvNvXs4_NtCscBGMVToPeRm_8callisto6entityNtBh_8EntitiesNtNtCs8pDKiTx8cJZ_5serde2de11Deserialize11deserialize1__NtBb_8EntitiesB11_11deserializeNtB6_9___VisitorNtB13_7Visitor9visit_seqINtNtCse3EK68OXEkC_10serde_json2de9SeqAccessNtNtB39_4read7StrReadEEBj_
FN:619,_RINvXs0_NvXNvNvXs4_NtCscBGMVToPeRm_8callisto6entityNtBh_8EntitiesNtNtCs8pDKiTx8cJZ_5serde2de11Deserialize11deserialize1__NtBb_8EntitiesB11_11deserializeNtB6_9___VisitorNtB13_7Visitor9visit_seqINtNtCse3EK68OXEkC_10serde_json2de9SeqAccessNtNtB39_4read9SliceReadEEBj_
FN:619,_RINvXs0_NvXNvNvXs4_NtCscBGMVToPeRm_8callisto6entityNtBh_8EntitiesNtNtCs8pDKiTx8cJZ_5serde2de11Deserialize11deserialize1__NtBb_8EntitiesB11_11deserializeNtB6_9___VisitorNtB13_7Visitor9visit_seqQNtNtNtCse3EK68OXEkC_10serde_json5value2de15SeqDeserializerEBj_
FN:619,_RINvXs0_NvXNvNvXs4_NtCscBGMVToPeRm_8callisto6entityNtBh_8EntitiesNtNtCs8pDKiTx8cJZ_5serde2de11Deserialize11deserialize1__NtBb_8EntitiesB11_11deserializeNtB6_9___VisitorNtB13_7Visitor9visit_mapINtNtCse3EK68OXEkC_10serde_json2de9MapAccessNtNtB39_4read7StrReadEEBj_
FN:619,_RINvXs0_NvXNvNvXs4_NtCscBGMVToPeRm_8callisto6entityNtBh_8EntitiesNtNtCs8pDKiTx8cJZ_5serde2de11Deserialize11deserialize1__NtBb_8EntitiesB11_11deserializeNtB6_9___VisitorNtB13_7Visitor9visit_mapINtNtCse3EK68OXEkC_10serde_json2de9MapAccessNtNtB39_4read9SliceReadEEBj_
FN:619,_RINvXs0_NvXNvNvXs4_NtCscBGMVToPeRm_8callisto6entityNtBh_8EntitiesNtNtCs8pDKiTx8cJZ_5serde2de11Deserialize11deserialize1__NtBb_8EntitiesB11_11deserializeNtB6_9___VisitorNtB13_7Visitor9visit_mapQNtNtNtCse3EK68OXEkC_10serde_json5value2de15MapDeserializerEBj_
FN:671,_RNvNtNtCscBGMVToPeRm_8callisto6entity5testss_31test_entities_display_and_debug
FN:671,_RNvNtNvNtNtCscBGMVToPeRm_8callisto6entity5testss_31test_entities_display_and_debug4init4init
FN:738,_RNvNtNtCscBGMVToPeRm_8callisto6entity5testss_13test_add_ship
FN:738,_RNvNtNvNtNtCscBGMVToPeRm_8callisto6entity5testss_13test_add_ship4init4init
FN:800,_RNvNtNtCscBGMVToPeRm_8callisto6entity5testss_15test_update_all
FN:800,_RNvNtNvNtNtCscBGMVToPeRm_8callisto6entity5testss_15test_update_all4init4init
FN:895,_RNvNtNtCscBGMVToPeRm_8callisto6entity5testss_22test_entities_validate
FN:895,_RNvNtNvNtNtCscBGMVToPeRm_8callisto6entity5testss_22test_entities_validate4init4init
FN:1098,_RNvNtNtCscBGMVToPeRm_8callisto6entity5testss_15test_sun_update
FN:1098,_RNvNtNvNtNtCscBGMVToPeRm_8callisto6entity5testss_15test_sun_update4init4init
FN:1137,_RNvNtNtCscBGMVToPeRm_8callisto6entity5testss_26test_complex_planet_update
FN:1137,_RNvNtNvNtNtCscBGMVToPeRm_8callisto6entity5testss_26test_complex_planet_update4init4init
FN:1143,_RNvNvNtNtCscBGMVToPeRm_8callisto6entity5testss_26test_complex_planet_update18check_radius_and_y
FN:1254,_RNvNtNtCscBGMVToPeRm_8callisto6entity5testss_21test_serialize_planet
FN:1254,_RNvNtNvNtNtCscBGMVToPeRm_8callisto6entity5testss_21test_serialize_planet4init4init
FN:1316,_RNvNtNtCscBGMVToPeRm_8callisto6entity5testss_29test_mixed_entities_serialize
FN:1316,_RNvNtNvNtNtCscBGMVToPeRm_8callisto6entity5testss_29test_mixed_entities_serialize4init4init
FN:1438,_RNvNtNtCscBGMVToPeRm_8callisto6entity5testss_28test_unordered_scenario_file
FN:1447,_RNvNtNtCscBGMVToPeRm_8callisto6entity5testss_22test_entities_equality
FN:1447,_RNvNtNCNvNtNtCscBGMVToPeRm_8callisto6entity5testss_22test_entities_equality04init4init
FN:1609,_RNvNtNtCscBGMVToPeRm_8callisto6entity5testss_30test_entities_len_and_is_empty
FN:1609,_RNvNtNvNtNtCscBGMVToPeRm_8callisto6entity5testss_30test_entities_len_and_is_empty4init4init
FN:1652,_RNvNtNtCscBGMVToPeRm_8callisto6entity5testss_34test_launch_missile_invalid_target
FN:1652,_RNvNtNvNtNtCscBGMVToPeRm_8callisto6entity5testss_34test_launch_missile_invalid_target4init4init
FN:1679,_RNvNtNtCscBGMVToPeRm_8callisto6entity5testss_19test_fixup_pointers
FN:1679,_RNvNtNCNvNtNtCscBGMVToPeRm_8callisto6entity5testss_19test_fixup_pointers04init4init
FN:1744,_RNvNtNtCscBGMVToPeRm_8callisto6entity5testss_20test_set_flight_plan
FN:1744,_RNvNtNvNtNtCscBGMVToPeRm_8callisto6entity5testss_20test_set_flight_plan4init4init
FN:568,_RINvXs3_NtCskkwNnPUyuBS_8callisto6entityNtB6_8EntitiesNtNtCs8pDKiTx8cJZ_5serde3ser9Serialize9serializeNtNtNtCse3EK68OXEkC_10serde_json5value3ser10SerializerECseGnTZYlWoAf_9webserver
FN:583,_RNCINvXs3_NtCskkwNnPUyuBS_8callisto6entityNtB8_8EntitiesNtNtCs8pDKiTx8cJZ_5serde3ser9Serialize9serializeNtNtNtCse3EK68OXEkC_10serde_json5value3ser10SerializerE0CseGnTZYlWoAf_9webserver
FN:593,_RNCINvXs3_NtCskkwNnPUyuBS_8callisto6entityNtB8_8EntitiesNtNtCs8pDKiTx8cJZ_5serde3ser9Serialize9serializeNtNtNtCse3EK68OXEkC_10serde_json5value3ser10SerializerEs0_0CseGnTZYlWoAf_9webserver
FN:601,_RNCINvXs3_NtCskkwNnPUyuBS_8callisto6entityNtB8_8EntitiesNtNtCs8pDKiTx8cJZ_5serde3ser9Serialize9serializeNtNtNtCse3EK68OXEkC_10serde_json5value3ser10SerializerEs1_0CseGnTZYlWoAf_9webserver
FN:604,_RNCINvXs3_NtCskkwNnPUyuBS_8callisto6entityNtB8_8EntitiesNtNtCs8pDKiTx8cJZ_5serde3ser9Serialize9serializeNtNtNtCse3EK68OXEkC_10serde_json5value3ser10SerializerEs2_0CseGnTZYlWoAf_9webserver
FN:607,_RNCINvXs3_NtCskkwNnPUyuBS_8callisto6entityNtB8_8EntitiesNtNtCs8pDKiTx8cJZ_5serde3ser9Serialize9serializeNtNtNtCse3EK68OXEkC_10serde_json5value3ser10SerializerEs3_0CseGnTZYlWoAf_9webserver
FN:588,_RNCINvXs3_NtCskkwNnPUyuBS_8callisto6entityNtB8_8EntitiesNtNtCs8pDKiTx8cJZ_5serde3ser9Serialize9serializeNtNtNtCse3EK68OXEkC_10serde_json5value3ser10SerializerEs_0CseGnTZYlWoAf_9webserver
FNDA:2,_RINvXs0_NvXNvNvXs4_NtCskkwNnPUyuBS_8callisto6entityNtBh_8EntitiesNtNtCs8pDKiTx8cJZ_5serde2de11Deserialize11deserialize1__NtBb_8EntitiesB11_11deserializeNtB6_9___VisitorNtB13_7Visitor9visit_mapINtNtCse3EK68OXEkC_10serde_json2de9MapAccessNtNtB39_4read9SliceReadEECsj2r3Yn2CUPB_8callisto
FNDA:0,_RINvXs0_NvXNvNvXs4_NtCskkwNnPUyuBS_8callisto6entityNtBh_8EntitiesNtNtCs8pDKiTx8cJZ_5serde2de11Deserialize11deserialize1__NtBb_8EntitiesB11_11deserializeNtB6_9___VisitorNtB13_7Visitor9visit_seqINtNtCse3EK68OXEkC_10serde_json2de9SeqAccessNtNtB39_4read9SliceReadEECsj2r3Yn2CUPB_8callisto
FNDA:2,_RINvXs4_NtCskkwNnPUyuBS_8callisto6entityNtB6_8EntitiesNtNtCs8pDKiTx8cJZ_5serde2de11Deserialize11deserializeQINtNtCse3EK68OXEkC_10serde_json2de12DeserializerNtNtB1N_4read9SliceReadEECsj2r3Yn2CUPB_8callisto
FNDA:2,_RINvXs_NvXNvNvXs4_NtCskkwNnPUyuBS_8callisto6entityNtBg_8EntitiesNtNtCs8pDKiTx8cJZ_5serde2de11Deserialize11deserialize1__NtBa_8EntitiesB10_11deserializeNtB5_7___FieldB10_11deserializeINtNtCse3EK68OXEkC_10serde_json2de6MapKeyNtNtB2Z_4read9SliceReadEECsj2r3Yn2CUPB_8callisto
FNDA:0,_RNCINvXs4_NtCskkwNnPUyuBS_8callisto6entityNtB8_8EntitiesNtNtCs8pDKiTx8cJZ_5serde2de11Deserialize11deserializeQINtNtCse3EK68OXEkC_10serde_json2de12DeserializerNtNtB1P_4read9SliceReadEE0Csj2r3Yn2CUPB_8callisto
FNDA:6,_RNCINvXs4_NtCskkwNnPUyuBS_8callisto6entityNtB8_8EntitiesNtNtCs8pDKiTx8cJZ_5serde2de11Deserialize11deserializeQINtNtCse3EK68OXEkC_10serde_json2de12DeserializerNtNtB1P_4read9SliceReadEEs0_0Csj2r3Yn2CUPB_8callisto
FNDA:0,_RNCINvXs4_NtCskkwNnPUyuBS_8callisto6entityNtB8_8EntitiesNtNtCs8pDKiTx8cJZ_5serde2de11Deserialize11deserializeQINtNtCse3EK68OXEkC_10serde_json2de12DeserializerNtNtB1P_4read9SliceReadEEs_0Csj2r3Yn2CUPB_8callisto
FNDA:5,_RNCNvMs_NtCskkwNnPUyuBS_8callisto6entityNtB6_8Entities14load_from_file0Csj2r3Yn2CUPB_8callisto
FNDA:0,_RNCNvXNtCskkwNnPUyuBS_8callisto6entityNtB4_8EntitiesNtNtCs9f3LFPSIp77_4core3cmp9PartialEq2eq0B6_
FNDA:0,_RNCNvXNtCskkwNnPUyuBS_8callisto6entityNtB4_8EntitiesNtNtCs9f3LFPSIp77_4core3cmp9PartialEq2eqs_0B6_
FNDA:0,_RNCNvXNtCskkwNnPUyuBS_8callisto6entityNtB4_8EntitiesNtNtCs9f3LFPSIp77_4core3cmp9PartialEq2eqs0_0B6_
FNDA:0,_RNCNvXNtCskkwNnPUyuBS_8callisto6entityNtB4_8EntitiesNtNtCs9f3LFPSIp77_4core3cmp9PartialEq2eqs1_0B6_
FNDA:0,_RNCNvXNtCskkwNnPUyuBS_8callisto6entityNtB4_8EntitiesNtNtCs9f3LFPSIp77_4core3cmp9PartialEq2eqs2_0B6_
FNDA:0,_RNCNvXNtCskkwNnPUyuBS_8callisto6entityNtB4_8EntitiesNtNtCs9f3LFPSIp77_4core3cmp9PartialEq2eqs3_0B6_
FNDA:1,_RNCNvMs_NtCskkwNnPUyuBS_8callisto6entityNtB6_8Entities10add_planet0B8_
FNDA:0,_RNCNvMs_NtCskkwNnPUyuBS_8callisto6entityNtB6_8Entities14launch_missile0B8_
FNDA:0,_RNCNvMs_NtCskkwNnPUyuBS_8callisto6entityNtB6_8Entities14launch_missiles_0B8_
FNDA:1,_RNCNvMs_NtCskkwNnPUyuBS_8callisto6entityNtB6_8Entities12fire_actions0B8_
FNDA:0,_RNCNvMs_NtCskkwNnPUyuBS_8callisto6entityNtB6_8Entities10update_all0B8_
FNDA:0,_RNCNvMs_NtCskkwNnPUyuBS_8callisto6entityNtB6_8Entities10update_alls_0B8_
FNDA:3,_RNCNvMs_NtCskkwNnPUyuBS_8callisto6entityNtB6_8Entities10update_alls0_0B8_
FNDA:3,_RNCNvMs_NtCskkwNnPUyuBS_8callisto6entityNtB6_8Entities10update_alls1_0B8_
FNDA:0,_RNCNCNvMs_NtCskkwNnPUyuBS_8callisto6entityNtB8_8Entities10update_alls1_00Ba_
FNDA:3,_RNCNCNvMs_NtCskkwNnPUyuBS_8callisto6entityNtB8_8Entities10update_alls1_0s_0Ba_
FNDA:3,_RNCNvMs_NtCskkwNnPUyuBS_8callisto6entityNtB6_8Entities10update_alls2_0B8_
FNDA:3,_RNCNvMs_NtCskkwNnPUyuBS_8callisto6entityNtB6_8Entities10update_alls3_0B8_
FNDA:0,_RNCNvMs_NtCskkwNnPUyuBS_8callisto6entityNtB6_8Entities10update_alls4_0B8_
FNDA:0,_RNCNvMs_NtCskkwNnPUyuBS_8callisto6entityNtB6_8Entities14fixup_pointers0B8_
FNDA:0,_RNCNvMs_NtCskkwNnPUyuBS_8callisto6entityNtB6_8Entities14fixup_pointerss_0B8_
FNDA:12,_RINvXs3_NtCskkwNnPUyuBS_8callisto6entityNtB6_8EntitiesNtNtCs8pDKiTx8cJZ_5serde3ser9Serialize9serializeQINtNtCse3EK68OXEkC_10serde_json3ser10SerializerQINtNtCsdze8u8oDPro_5alloc3vec3VechEEEB8_
FNDA:13,_RNCINvXs3_NtCskkwNnPUyuBS_8callisto6entityNtB8_8EntitiesNtNtCs8pDKiTx8cJZ_5serde3ser9Serialize9serializeQINtNtCse3EK68OXEkC_10serde_json3ser10SerializerQINtNtCsdze8u8oDPro_5alloc3vec3VechEEE0Ba_
FNDA:0,_RNCINvXs3_NtCskkwNnPUyuBS_8callisto6entityNtB8_8EntitiesNtNtCs8pDKiTx8cJZ_5serde3ser9Serialize9serializeQINtNtCse3EK68OXEkC_10serde_json3ser10SerializerQINtNtCsdze8u8oDPro_5alloc3vec3VechEEEs_0Ba_
FNDA:6,_RNCINvXs3_NtCskkwNnPUyuBS_8callisto6entityNtB8_8EntitiesNtNtCs8pDKiTx8cJZ_5serde3ser9Serialize9serializeQINtNtCse3EK68OXEkC_10serde_json3ser10SerializerQINtNtCsdze8u8oDPro_5alloc3vec3VechEEEs0_0Ba_
FNDA:4,_RNCINvXs3_NtCskkwNnPUyuBS_8callisto6entityNtB8_8EntitiesNtNtCs8pDKiTx8cJZ_5serde3ser9Serialize9serializeQINtNtCse3EK68OXEkC_10serde_json3ser10SerializerQINtNtCsdze8u8oDPro_5alloc3vec3VechEEEs1_0Ba_
FNDA:0,_RNCINvXs3_NtCskkwNnPUyuBS_8callisto6entityNtB8_8EntitiesNtNtCs8pDKiTx8cJZ_5serde3ser9Serialize9serializeQINtNtCse3EK68OXEkC_10serde_json3ser10SerializerQINtNtCsdze8u8oDPro_5alloc3vec3VechEEEs2_0Ba_
FNDA:4,_RNCINvXs3_NtCskkwNnPUyuBS_8callisto6entityNtB8_8EntitiesNtNtCs8pDKiTx8cJZ_5serde3ser9Serialize9serializeQINtNtCse3EK68OXEkC_10serde_json3ser10SerializerQINtNtCsdze8u8oDPro_5alloc3vec3VechEEEs3_0Ba_
FNDA:10,_RINvXs4_NtCskkwNnPUyuBS_8callisto6entityNtB6_8EntitiesNtNtCs8pDKiTx8cJZ_5serde2de11Deserialize11deserializeQINtNtCse3EK68OXEkC_10serde_json2de12DeserializerNtNtB1N_4read7StrReadEEB8_
FNDA:13,_RNCINvXs4_NtCskkwNnPUyuBS_8callisto6entityNtB8_8EntitiesNtNtCs8pDKiTx8cJZ_5serde2de11Deserialize11deserializeQINtNtCse3EK68OXEkC_10serde_json2de12DeserializerNtNtB1P_4read7StrReadEE0Ba_
FNDA:0,_RNCINvXs4_NtCskkwNnPUyuBS_8callisto6entityNtB8_8EntitiesNtNtCs8pDKiTx8cJZ_5serde2de11Deserialize11deserializeQINtNtCse3EK68OXEkC_10serde_json2de12DeserializerNtNtB1P_4read7StrReadEEs_0Ba_
FNDA:6,_RNCINvXs4_NtCskkwNnPUyuBS_8callisto6entityNtB8_8EntitiesNtNtCs8pDKiTx8cJZ_5serde2de11Deserialize11deserializeQINtNtCse3EK68OXEkC_10serde_json2de12DeserializerNtNtB1P_4read7StrReadEEs0_0Ba_
FNDA:3,_RNCNvNtCskkwNnPUyuBS_8callisto6entity10deep_clone0B5_
FNDA:32,_RINvXNvXNvNvXs4_NtCskkwNnPUyuBS_8callisto6entityNtBe_8EntitiesNtNtCs8pDKiTx8cJZ_5serde2de11Deserialize11deserialize1__NtB8_8EntitiesBY_11deserializeNtB3_14___FieldVisitorNtB10_7Visitor9visit_strNtNtCse3EK68OXEkC_10serde_json5error5ErrorEBg_
FNDA:30,_RINvXs_NvXNvNvXs4_NtCskkwNnPUyuBS_8callisto6entityNtBg_8EntitiesNtNtCs8pDKiTx8cJZ_5serde2de11Deserialize11deserialize1__NtBa_8EntitiesB10_11deserializeNtB5_7___FieldB10_11deserializeINtNtCse3EK68OXEkC_10serde_json2de6MapKeyNtNtB2Z_4read7StrReadEEBi_
FNDA:0,_RINvXs0_NvXNvNvXs4_NtCskkwNnPUyuBS_8callisto6entityNtBh_8EntitiesNtNtCs8pDKiTx8cJZ_5serde2de11Deserialize11deserialize1__NtBb_8EntitiesB11_11deserializeNtB6_9___VisitorNtB13_7Visitor9visit_seqINtNtCse3EK68OXEkC_10serde_json2de9SeqAccessNtNtB39_4read7StrReadEEBj_
FNDA:10,_RINvXs0_NvXNvNvXs4_NtCskkwNnPUyuBS_8callisto6entityNtBh_8EntitiesNtNtCs8pDKiTx8cJZ_5serde2de11Deserialize11deserialize1__NtBb_8EntitiesB11_11deserializeNtB6_9___VisitorNtB13_7Visitor9visit_mapINtNtCse3EK68OXEkC_10serde_json2de9MapAccessNtNtB39_4read7StrReadEEBj_
FNDA:0,_RINvXNvXNvNtCskkwNnPUyuBS_8callisto6entitys_1__NtB8_12UpdateActionNtNtCs8pDKiTx8cJZ_5serde2de11Deserialize11deserializeNtB3_14___FieldVisitorNtB14_7Visitor9visit_u64pEBa_
FNDA:0,_RINvXNvXNvNtCskkwNnPUyuBS_8callisto6entitys_1__NtB8_12UpdateActionNtNtCs8pDKiTx8cJZ_5serde2de11Deserialize11deserializeNtB3_14___FieldVisitorNtB14_7Visitor9visit_strpEBa_
FNDA:0,_RINvXNvXNvNtCskkwNnPUyuBS_8callisto6entitys_1__NtB8_12UpdateActionNtNtCs8pDKiTx8cJZ_5serde2de11Deserialize11deserializeNtB3_14___FieldVisitorNtB14_7Visitor11visit_bytespEBa_
FNDA:0,_RINvXs_NvXNvNtCskkwNnPUyuBS_8callisto6entitys_1__NtBa_12UpdateActionNtNtCs8pDKiTx8cJZ_5serde2de11Deserialize11deserializeNtB5_7___FieldB14_11deserializepEBc_
FNDA:0,_RINvXs0_NvXNvNtCskkwNnPUyuBS_8callisto6entitys_1__NtBb_12UpdateActionNtNtCs8pDKiTx8cJZ_5serde2de11Deserialize11deserializeNtB6_9___VisitorNtB17_7Visitor10visit_enumpEBd_
FNDA:0,_RINvXNvXs0_NvXNvNtCskkwNnPUyuBS_8callisto6entitys_1__NtBe_12UpdateActionNtNtCs8pDKiTx8cJZ_5serde2de11Deserialize11deserializeNtB9_9___VisitorNtB1a_7Visitor10visit_enumNtB3_14___FieldVisitorB2f_9visit_u64pEBg_
FNDA:0,_RINvXNvXs0_NvXNvNtCskkwNnPUyuBS_8callisto6entitys_1__NtBe_12UpdateActionNtNtCs8pDKiTx8cJZ_5serde2de11Deserialize11deserializeNtB9_9___VisitorNtB1a_7Visitor10visit_enumNtB3_14___FieldVisitorB2f_9visit_strpEBg_
FNDA:0,_RINvXNvXs0_NvXNvNtCskkwNnPUyuBS_8callisto6entitys_1__NtBe_12UpdateActionNtNtCs8pDKiTx8cJZ_5serde2de11Deserialize11deserializeNtB9_9___VisitorNtB1a_7Visitor10visit_enumNtB3_14___FieldVisitorB2f_11visit_bytespEBg_
FNDA:0,_RINvXs_NvXs0_NvXNvNtCskkwNnPUyuBS_8callisto6entitys_1__NtBg_12UpdateActionNtNtCs8pDKiTx8cJZ_5serde2de11Deserialize11deserializeNtBb_9___VisitorNtB1c_7Visitor10visit_enumNtB5_7___FieldB1a_11deserializepEBi_
FNDA:0,_RINvXs0_NvXs0_NvXNvNtCskkwNnPUyuBS_8callisto6entitys_1__NtBh_12UpdateActionNtNtCs8pDKiTx8cJZ_5serde2de11Deserialize11deserializeNtBc_9___VisitorNtB1d_7Visitor10visit_enumNtB6_9___VisitorB2i_9visit_seqpEBj_
FNDA:0,_RINvXs0_NvXs0_NvXNvNtCskkwNnPUyuBS_8callisto6entitys_1__NtBh_12UpdateActionNtNtCs8pDKiTx8cJZ_5serde2de11Deserialize11deserializeNtBc_9___VisitorNtB1d_7Visitor10visit_enumNtB6_9___VisitorB2i_9visit_mappEBj_
FNDA:0,_RINvXs1_NvXs0_NvXNvNtCskkwNnPUyuBS_8callisto6entitys_1__NtBh_12UpdateActionNtNtCs8pDKiTx8cJZ_5serde2de11Deserialize11deserializeNtBc_9___VisitorNtB1d_7Visitor10visit_enumNtB6_s_14___FieldVisitorB2i_9visit_u64pEBj_
FNDA:0,_RINvXs1_NvXs0_NvXNvNtCskkwNnPUyuBS_8callisto6entitys_1__NtBh_12UpdateActionNtNtCs8pDKiTx8cJZ_5serde2de11Deserialize11deserializeNtBc_9___VisitorNtB1d_7Visitor10visit_enumNtB6_s_14___FieldVisitorB2i_9visit_strpEBj_
FNDA:0,_RINvXs1_NvXs0_NvXNvNtCskkwNnPUyuBS_8callisto6entitys_1__NtBh_12UpdateActionNtNtCs8pDKiTx8cJZ_5serde2de11Deserialize11deserializeNtBc_9___VisitorNtB1d_7Visitor10visit_enumNtB6_s_14___FieldVisitorB2i_11visit_bytespEBj_
FNDA:0,_RINvXs2_NvXs0_NvXNvNtCskkwNnPUyuBS_8callisto6entitys_1__NtBh_12UpdateActionNtNtCs8pDKiTx8cJZ_5serde2de11Deserialize11deserializeNtBc_9___VisitorNtB1d_7Visitor10visit_enumNtB6_s_7___FieldB1b_11deserializepEBj_
FNDA:0,_RINvXs3_NvXs0_NvXNvNtCskkwNnPUyuBS_8callisto6entitys_1__NtBh_12UpdateActionNtNtCs8pDKiTx8cJZ_5serde2de11Deserialize11deserializeNtBc_9___VisitorNtB1d_7Visitor10visit_enumNtB6_s_9___VisitorB2i_9visit_seqpEBj_
FNDA:0,_RINvXs3_NvXs0_NvXNvNtCskkwNnPUyuBS_8callisto6entitys_1__NtBh_12UpdateActionNtNtCs8pDKiTx8cJZ_5serde2de11Deserialize11deserializeNtBc_9___VisitorNtB1d_7Visitor10visit_enumNtB6_s_9___VisitorB2i_9visit_mappEBj_
FNDA:0,_RNCNvMs_NtCskkwNnPUyuBS_8callisto6entityNtB6_8Entities14load_from_file0B8_
FNDA:0,_RINvXNvXNvNvXs4_NtCskkwNnPUyuBS_8callisto6entityNtBe_8EntitiesNtNtCs8pDKiTx8cJZ_5serde2de11Deserialize11deserialize1__NtB8_8EntitiesBY_11deserializeNtB3_14___FieldVisitorNtB10_7Visitor9visit_u64pEBg_
FNDA:0,_RINvXNvXNvNvXs4_NtCskkwNnPUyuBS_8callisto6entityNtBe_8EntitiesNtNtCs8pDKiTx8cJZ_5serde2de11Deserialize11deserialize1__NtB8_8EntitiesBY_11deserializeNtB3_14___FieldVisitorNtB10_7Visitor11visit_bytespEBg_
FNDA:0,_RNvXNtCskkwNnPUyuBS_8callisto6entityNtB2_8EntitiesNtNtCs9f3LFPSIp77_4core3cmp9PartialEq2eq
FNDA:16,_RNvMs_NtCskkwNnPUyuBS_8callisto6entityNtB4_8Entities3new
FNDA:0,_RNvMs_NtCskkwNnPUyuBS_8callisto6entityNtB4_8Entities3len
FNDA:0,_RNvMs_NtCskkwNnPUyuBS_8callisto6entityNtB4_8Entities8is_empty
FNDA:5,_RNvMs_NtCskkwNnPUyuBS_8callisto6entityNtB4_8Entities14load_from_file
FNDA:11,_RNvMs_NtCskkwNnPUyuBS_8callisto6entityNtB4_8Entities8add_ship
FNDA:3,_RNvMs_NtCskkwNnPUyuBS_8callisto6entityNtB4_8Entities10add_planet
FNDA:3,_RNvMs_NtCskkwNnPUyuBS_8callisto6entityNtB4_8Entities14launch_missile
FNDA:2,_RNvMs_NtCskkwNnPUyuBS_8callisto6entityNtB4_8Entities15set_flight_plan
FNDA:2,_RNvMs_NtCskkwNnPUyuBS_8callisto6entityNtB4_8Entities12fire_actions
FNDA:2,_RNvMs_NtCskkwNnPUyuBS_8callisto6entityNtB4_8Entities10update_all
FNDA:2,_RNvMs_NtCskkwNnPUyuBS_8callisto6entityNtB4_8Entities8validate
FNDA:2,_RNvMs_NtCskkwNnPUyuBS_8callisto6entityNtB4_8Entities14fixup_pointers
FNDA:2,_RNvMs_NtCskkwNnPUyuBS_8callisto6entityNtB4_8Entities19reset_gravity_wells
FNDA:0,_RNvXs0_NtCskkwNnPUyuBS_8callisto6entityNtB5_8EntitiesNtNtCs9f3LFPSIp77_4core3fmt5Debug3fmt
FNDA:0,_RNvXs1_NtCskkwNnPUyuBS_8callisto6entityNtB5_8EntitiesNtNtCs9f3LFPSIp77_4core3fmt7Display3fmt
FNDA:0,_RNvXs2_NtCskkwNnPUyuBS_8callisto6entityNtB5_8EntitiesNtNtCs9f3LFPSIp77_4core5clone5Clone5clone
FNDA:2,_RNvNtCskkwNnPUyuBS_8callisto6entity10deep_clone
FNDA:0,_RNvXNvXNvNtCskkwNnPUyuBS_8callisto6entitys_1__NtB7_12UpdateActionNtNtCs8pDKiTx8cJZ_5serde2de11Deserialize11deserializeNtB2_14___FieldVisitorNtB13_7Visitor9expecting
FNDA:0,_RNvXs0_NvXNvNtCskkwNnPUyuBS_8callisto6entitys_1__NtBa_12UpdateActionNtNtCs8pDKiTx8cJZ_5serde2de11Deserialize11deserializeNtB5_9___VisitorNtB16_7Visitor9expecting
FNDA:0,_RNvXNvXs0_NvXNvNtCskkwNnPUyuBS_8callisto6entitys_1__NtBd_12UpdateActionNtNtCs8pDKiTx8cJZ_5serde2de11Deserialize11deserializeNtB8_9___VisitorNtB19_7Visitor10visit_enumNtB2_14___FieldVisitorB2e_9expecting
FNDA:0,_RNvXs0_NvXs0_NvXNvNtCskkwNnPUyuBS_8callisto6entitys_1__NtBg_12UpdateActionNtNtCs8pDKiTx8cJZ_5serde2de11Deserialize11deserializeNtBb_9___VisitorNtB1c_7Visitor10visit_enumNtB5_9___VisitorB2h_9expecting
FNDA:0,_RNvXs1_NvXs0_NvXNvNtCskkwNnPUyuBS_8callisto6entitys_1__NtBg_12UpdateActionNtNtCs8pDKiTx8cJZ_5serde2de11Deserialize11deserializeNtBb_9___VisitorNtB1c_7Visitor10visit_enumNtB5_s_14___FieldVisitorB2h_9expecting
FNDA:0,_RNvXs3_NvXs0_NvXNvNtCskkwNnPUyuBS_8callisto6entitys_1__NtBg_12UpdateActionNtNtCs8pDKiTx8cJZ_5serde2de11Deserialize11deserializeNtBb_9___VisitorNtB1c_7Visitor10visit_enumNtB5_s_9___VisitorB2h_9expecting
FNDA:0,_RNvXNvXNvNvXs4_NtCskkwNnPUyuBS_8callisto6entityNtBd_8EntitiesNtNtCs8pDKiTx8cJZ_5serde2de11Deserialize11deserialize1__NtB7_8EntitiesBX_11deserializeNtB2_14___FieldVisitorNtBZ_7Visitor9expecting
FNDA:0,_RNvXs0_NvXNvNvXs4_NtCskkwNnPUyuBS_8callisto6entityNtBg_8EntitiesNtNtCs8pDKiTx8cJZ_5serde2de11Deserialize11deserialize1__NtBa_8EntitiesB10_11deserializeNtB5_9___VisitorNtB12_7Visitor9expecting
FNDA:11,_RNvXNtCscBGMVToPeRm_8callisto6entityNtB2_8EntitiesNtNtCs9f3LFPSIp77_4core3cmp9PartialEq2eq
FNDA:36,_RNvMs_NtCscBGMVToPeRm_8callisto6entityNtB4_8Entities3new
FNDA:4,_RNvMs_NtCscBGMVToPeRm_8callisto6entityNtB4_8Entities3len
FNDA:4,_RNvMs_NtCscBGMVToPeRm_8callisto6entityNtB4_8Entities8is_empty
FNDA:3,_RNvMs_NtCscBGMVToPeRm_8callisto6entityNtB4_8Entities14load_from_file
FNDA:52,_RNvMs_NtCscBGMVToPeRm_8callisto6entityNtB4_8Entities8add_ship
FNDA:16,_RNvMs_NtCscBGMVToPeRm_8callisto6entityNtB4_8Entities10add_planet
FNDA:40,_RNvMs_NtCscBGMVToPeRm_8callisto6entityNtB4_8Entities14launch_missile
FNDA:6,_RNvMs_NtCscBGMVToPeRm_8callisto6entityNtB4_8Entities15set_flight_plan
FNDA:19,_RNvMs_NtCscBGMVToPeRm_8callisto6entityNtB4_8Entities12fire_actions
FNDA:28,_RNvMs_NtCscBGMVToPeRm_8callisto6entityNtB4_8Entities10update_all
FNDA:15,_RNvMs_NtCscBGMVToPeRm_8callisto6entityNtB4_8Entities8validate
FNDA:5,_RNvMs_NtCscBGMVToPeRm_8callisto6entityNtB4_8Entities14fixup_pointers
FNDA:2,_RNvMs_NtCscBGMVToPeRm_8callisto6entityNtB4_8Entities19reset_gravity_wells
FNDA:2,_RNvXs0_NtCscBGMVToPeRm_8callisto6entityNtB5_8EntitiesNtNtCs9f3LFPSIp77_4core3fmt5Debug3fmt
FNDA:4,_RNvXs1_NtCscBGMVToPeRm_8callisto6entityNtB5_8EntitiesNtNtCs9f3LFPSIp77_4core3fmt7Display3fmt
FNDA:9,_RNvXs2_NtCscBGMVToPeRm_8callisto6entityNtB5_8EntitiesNtNtCs9f3LFPSIp77_4core5clone5Clone5clone
FNDA:29,_RNvNtCscBGMVToPeRm_8callisto6entity10deep_clone
FNDA:0,_RNvXs0_NvXNvNvXs4_NtCscBGMVToPeRm_8callisto6entityNtBg_8EntitiesNtNtCs8pDKiTx8cJZ_5serde2de11Deserialize11deserialize1__NtBa_8EntitiesB10_11deserializeNtB5_9___VisitorNtB12_7Visitor9expecting
FNDA:0,_RNvXNvXNvNtCscBGMVToPeRm_8callisto6entitys_1__NtB7_12UpdateActionNtNtCs8pDKiTx8cJZ_5serde2de11Deserialize11deserializeNtB2_14___FieldVisitorNtB13_7Visitor9expecting
FNDA:0,_RINvXNvXNvNtCscBGMVToPeRm_8callisto6entitys_1__NtB8_12UpdateActionNtNtCs8pDKiTx8cJZ_5serde2de11Deserialize11deserializeNtB3_14___FieldVisitorNtB14_7Visitor9visit_u64pEBa_
FNDA:0,_RINvXNvXNvNtCscBGMVToPeRm_8callisto6entitys_1__NtB8_12UpdateActionNtNtCs8pDKiTx8cJZ_5serde2de11Deserialize11deserializeNtB3_14___FieldVisitorNtB14_7Visitor9visit_strpEBa_
FNDA:0,_RINvXNvXNvNtCscBGMVToPeRm_8callisto6entitys_1__NtB8_12UpdateActionNtNtCs8pDKiTx8cJZ_5serde2de11Deserialize11deserializeNtB3_14___FieldVisitorNtB14_7Visitor11visit_bytespEBa_
FNDA:0,_RINvXs_NvXNvNtCscBGMVToPeRm_8callisto6entitys_1__NtBa_12UpdateActionNtNtCs8pDKiTx8cJZ_5serde2de11Deserialize11deserializeNtB5_7___FieldB14_11deserializepEBc_
FNDA:0,_RNvXs0_NvXNvNtCscBGMVToPeRm_8callisto6entitys_1__NtBa_12UpdateActionNtNtCs8pDKiTx8cJZ_5serde2de11Deserialize11deserializeNtB5_9___VisitorNtB16_7Visitor9expecting
FNDA:0,_RINvXs0_NvXNvNtCscBGMVToPeRm_8callisto6entitys_1__NtBb_12UpdateActionNtNtCs8pDKiTx8cJZ_5serde2de11Deserialize11deserializeNtB6_9___VisitorNtB17_7Visitor10visit_enumpEBd_
FNDA:0,_RNvXNvXs0_NvXNvNtCscBGMVToPeRm_8callisto6entitys_1__NtBd_12UpdateActionNtNtCs8pDKiTx8cJZ_5serde2de11Deserialize11deserializeNtB8_9___VisitorNtB19_7Visitor10visit_enumNtB2_14___FieldVisitorB2e_9expecting
FNDA:0,_RINvXNvXs0_NvXNvNtCscBGMVToPeRm_8callisto6entitys_1__NtBe_12UpdateActionNtNtCs8pDKiTx8cJZ_5serde2de11Deserialize11deserializeNtB9_9___VisitorNtB1a_7Visitor10visit_enumNtB3_14___FieldVisitorB2f_9visit_u64pEBg_
FNDA:0,_RINvXNvXs0_NvXNvNtCscBGMVToPeRm_8callisto6entitys_1__NtBe_12UpdateActionNtNtCs8pDKiTx8cJZ_5serde2de11Deserialize11deserializeNtB9_9___VisitorNtB1a_7Visitor10visit_enumNtB3_14___FieldVisitorB2f_9visit_strpEBg_
FNDA:0,_RINvXNvXs0_NvXNvNtCscBGMVToPeRm_8callisto6entitys_1__NtBe_12UpdateActionNtNtCs8pDKiTx8cJZ_5serde2de11Deserialize11deserializeNtB9_9___VisitorNtB1a_7Visitor10visit_enumNtB3_14___FieldVisitorB2f_11visit_bytespEBg_
FNDA:0,_RINvXs_NvXs0_NvXNvNtCscBGMVToPeRm_8callisto6entitys_1__NtBg_12UpdateActionNtNtCs8pDKiTx8cJZ_5serde2de11Deserialize11deserializeNtBb_9___VisitorNtB1c_7Visitor10visit_enumNtB5_7___FieldB1a_11deserializepEBi_
FNDA:0,_RNvXs0_NvXs0_NvXNvNtCscBGMVToPeRm_8callisto6entitys_1__NtBg_12UpdateActionNtNtCs8pDKiTx8cJZ_5serde2de11Deserialize11deserializeNtBb_9___VisitorNtB1c_7Visitor10visit_enumNtB5_9___VisitorB2h_9expecting
FNDA:0,_RINvXs0_NvXs0_NvXNvNtCscBGMVToPeRm_8callisto6entitys_1__NtBh_12UpdateActionNtNtCs8pDKiTx8cJZ_5serde2de11Deserialize11deserializeNtBc_9___VisitorNtB1d_7Visitor10visit_enumNtB6_9___VisitorB2i_9visit_seqpEBj_
FNDA:0,_RINvXs0_NvXs0_NvXNvNtCscBGMVToPeRm_8callisto6entitys_1__NtBh_12UpdateActionNtNtCs8pDKiTx8cJZ_5serde2de11Deserialize11deserializeNtBc_9___VisitorNtB1d_7Visitor10visit_enumNtB6_9___VisitorB2i_9visit_mappEBj_
FNDA:0,_RNvXs1_NvXs0_NvXNvNtCscBGMVToPeRm_8callisto6entitys_1__NtBg_12UpdateActionNtNtCs8pDKiTx8cJZ_5serde2de11Deserialize11deserializeNtBb_9___VisitorNtB1c_7Visitor10visit_enumNtB5_s_14___FieldVisitorB2h_9expecting
FNDA:0,_RINvXs1_NvXs0_NvXNvNtCscBGMVToPeRm_8callisto6entitys_1__NtBh_12UpdateActionNtNtCs8pDKiTx8cJZ_5serde2de11Deserialize11deserializeNtBc_9___VisitorNtB1d_7Visitor10visit_enumNtB6_s_14___FieldVisitorB2i_9visit_u64pEBj_
FNDA:0,_RINvXs1_NvXs0_NvXNvNtCscBGMVToPeRm_8callisto6entitys_1__NtBh_12UpdateActionNtNtCs8pDKiTx8cJZ_5serde2de11Deserialize11deserializeNtBc_9___VisitorNtB1d_7Visitor10visit_enumNtB6_s_14___FieldVisitorB2i_9visit_strpEBj_
FNDA:0,_RINvXs1_NvXs0_NvXNvNtCscBGMVToPeRm_8callisto6entitys_1__NtBh_12UpdateActionNtNtCs8pDKiTx8cJZ_5serde2de11Deserialize11deserializeNtBc_9___VisitorNtB1d_7Visitor10visit_enumNtB6_s_14___FieldVisitorB2i_11visit_bytespEBj_
FNDA:0,_RINvXs2_NvXs0_NvXNvNtCscBGMVToPeRm_8callisto6entitys_1__NtBh_12UpdateActionNtNtCs8pDKiTx8cJZ_5serde2de11Deserialize11deserializeNtBc_9___VisitorNtB1d_7Visitor10visit_enumNtB6_s_7___FieldB1b_11deserializepEBj_
FNDA:0,_RNvXs3_NvXs0_NvXNvNtCscBGMVToPeRm_8callisto6entitys_1__NtBg_12UpdateActionNtNtCs8pDKiTx8cJZ_5serde2de11Deserialize11deserializeNtBb_9___VisitorNtB1c_7Visitor10visit_enumNtB5_s_9___VisitorB2h_9expecting
FNDA:0,_RINvXs3_NvXs0_NvXNvNtCscBGMVToPeRm_8callisto6entitys_1__NtBh_12UpdateActionNtNtCs8pDKiTx8cJZ_5serde2de11Deserialize11deserializeNtBc_9___VisitorNtB1d_7Visitor10visit_enumNtB6_s_9___VisitorB2i_9visit_seqpEBj_
FNDA:0,_RINvXs3_NvXs0_NvXNvNtCscBGMVToPeRm_8callisto6entitys_1__NtBh_12UpdateActionNtNtCs8pDKiTx8cJZ_5serde2de11Deserialize11deserializeNtBc_9___VisitorNtB1d_7Visitor10visit_enumNtB6_s_9___VisitorB2i_9visit_mappEBj_
FNDA:0,_RNvXNvXNvNvXs4_NtCscBGMVToPeRm_8callisto6entityNtBd_8EntitiesNtNtCs8pDKiTx8cJZ_5serde2de11Deserialize11deserialize1__NtB7_8EntitiesBX_11deserializeNtB2_14___FieldVisitorNtBZ_7Visitor9expecting
FNDA:0,_RINvXNvXNvNvXs4_NtCscBGMVToPeRm_8callisto6entityNtBe_8EntitiesNtNtCs8pDKiTx8cJZ_5serde2de11Deserialize11deserialize1__NtB8_8EntitiesBY_11deserializeNtB3_14___FieldVisitorNtB10_7Visitor9visit_u64pEBg_
FNDA:0,_RINvXNvXNvNvXs4_NtCscBGMVToPeRm_8callisto6entityNtBe_8EntitiesNtNtCs8pDKiTx8cJZ_5serde2de11Deserialize11deserialize1__NtB8_8EntitiesBY_11deserializeNtB3_14___FieldVisitorNtB10_7Visitor11visit_bytespEBg_
FNDA:1,_RNCNvNtNtCscBGMVToPeRm_8callisto6entity5testss_28test_unordered_scenario_file0B7_
FNDA:14,_RNCNvXNtCscBGMVToPeRm_8callisto6entityNtB4_8EntitiesNtNtCs9f3LFPSIp77_4core3cmp9PartialEq2eq0B6_
FNDA:9,_RNCNvXNtCscBGMVToPeRm_8callisto6entityNtB4_8EntitiesNtNtCs9f3LFPSIp77_4core3cmp9PartialEq2eqs_0B6_
FNDA:8,_RNCNvXNtCscBGMVToPeRm_8callisto6entityNtB4_8EntitiesNtNtCs9f3LFPSIp77_4core3cmp9PartialEq2eqs0_0B6_
FNDA:14,_RNCNvXNtCscBGMVToPeRm_8callisto6entityNtB4_8EntitiesNtNtCs9f3LFPSIp77_4core3cmp9PartialEq2eqs1_0B6_
FNDA:8,_RNCNvXNtCscBGMVToPeRm_8callisto6entityNtB4_8EntitiesNtNtCs9f3LFPSIp77_4core3cmp9PartialEq2eqs2_0B6_
FNDA:6,_RNCNvXNtCscBGMVToPeRm_8callisto6entityNtB4_8EntitiesNtNtCs9f3LFPSIp77_4core3cmp9PartialEq2eqs3_0B6_
FNDA:3,_RNCNvMs_NtCscBGMVToPeRm_8callisto6entityNtB6_8Entities14load_from_file0B8_
FNDA:0,_RNCNvMs_NtCscBGMVToPeRm_8callisto6entityNtB6_8Entities10add_planet0B8_
FNDA:1,_RNCNvMs_NtCscBGMVToPeRm_8callisto6entityNtB6_8Entities14launch_missile0B8_
FNDA:1,_RNCNvMs_NtCscBGMVToPeRm_8callisto6entityNtB6_8Entities14launch_missiles_0B8_
FNDA:13,_RNCNvMs_NtCscBGMVToPeRm_8callisto6entityNtB6_8Entities12fire_actions0B8_
FNDA:6,_RNCNvMs_NtCscBGMVToPeRm_8callisto6entityNtB6_8Entities10update_all0B8_
FNDA:12,_RNCNvMs_NtCscBGMVToPeRm_8callisto6entityNtB6_8Entities10update_alls_0B8_
FNDA:119,_RNCNvMs_NtCscBGMVToPeRm_8callisto6entityNtB6_8Entities10update_alls0_0B8_
FNDA:61,_RNCNvMs_NtCscBGMVToPeRm_8callisto6entityNtB6_8Entities10update_alls1_0B8_
FNDA:0,_RNCNCNvMs_NtCscBGMVToPeRm_8callisto6entityNtB8_8Entities10update_alls1_00Ba_
FNDA:28,_RNCNCNvMs_NtCscBGMVToPeRm_8callisto6entityNtB8_8Entities10update_alls1_0s_0Ba_
FNDA:48,_RNCNvMs_NtCscBGMVToPeRm_8callisto6entityNtB6_8Entities10update_alls2_0B8_
FNDA:31,_RNCNvMs_NtCscBGMVToPeRm_8callisto6entityNtB6_8Entities10update_alls3_0B8_
FNDA:2,_RNCNvMs_NtCscBGMVToPeRm_8callisto6entityNtB6_8Entities10update_alls4_0B8_
FNDA:1,_RNCNvMs_NtCscBGMVToPeRm_8callisto6entityNtB6_8Entities14fixup_pointers0B8_
FNDA:1,_RNCNvMs_NtCscBGMVToPeRm_8callisto6entityNtB6_8Entities14fixup_pointerss_0B8_
FNDA:8,_RINvXs3_NtCscBGMVToPeRm_8callisto6entityNtB6_8EntitiesNtNtCs8pDKiTx8cJZ_5serde3ser9Serialize9serializeNtNtNtCse3EK68OXEkC_10serde_json5value3ser10SerializerEB8_
FNDA:24,_RINvXs3_NtCscBGMVToPeRm_8callisto6entityNtB6_8EntitiesNtNtCs8pDKiTx8cJZ_5serde3ser9Serialize9serializeQINtNtCse3EK68OXEkC_10serde_json3ser10SerializerQINtNtCsdze8u8oDPro_5alloc3vec3VechEEEB8_
FNDA:16,_RNCINvXs3_NtCscBGMVToPeRm_8callisto6entityNtB8_8EntitiesNtNtCs8pDKiTx8cJZ_5serde3ser9Serialize9serializeNtNtNtCse3EK68OXEkC_10serde_json5value3ser10SerializerE0Ba_
FNDA:32,_RNCINvXs3_NtCscBGMVToPeRm_8callisto6entityNtB8_8EntitiesNtNtCs8pDKiTx8cJZ_5serde3ser9Serialize9serializeQINtNtCse3EK68OXEkC_10serde_json3ser10SerializerQINtNtCsdze8u8oDPro_5alloc3vec3VechEEE0Ba_
FNDA:0,_RNCINvXs3_NtCscBGMVToPeRm_8callisto6entityNtB8_8EntitiesNtNtCs8pDKiTx8cJZ_5serde3ser9Serialize9serializeNtNtNtCse3EK68OXEkC_10serde_json5value3ser10SerializerEs_0Ba_
FNDA:4,_RNCINvXs3_NtCscBGMVToPeRm_8callisto6entityNtB8_8EntitiesNtNtCs8pDKiTx8cJZ_5serde3ser9Serialize9serializeQINtNtCse3EK68OXEkC_10serde_json3ser10SerializerQINtNtCsdze8u8oDPro_5alloc3vec3VechEEEs_0Ba_
FNDA:6,_RNCINvXs3_NtCscBGMVToPeRm_8callisto6entityNtB8_8EntitiesNtNtCs8pDKiTx8cJZ_5serde3ser9Serialize9serializeNtNtNtCse3EK68OXEkC_10serde_json5value3ser10SerializerEs0_0Ba_
FNDA:13,_RNCINvXs3_NtCscBGMVToPeRm_8callisto6entityNtB8_8EntitiesNtNtCs8pDKiTx8cJZ_5serde3ser9Serialize9serializeQINtNtCse3EK68OXEkC_10serde_json3ser10SerializerQINtNtCsdze8u8oDPro_5alloc3vec3VechEEEs0_0Ba_
FNDA:9,_RNCINvXs3_NtCscBGMVToPeRm_8callisto6entityNtB8_8EntitiesNtNtCs8pDKiTx8cJZ_5serde3ser9Serialize9serializeNtNtNtCse3EK68OXEkC_10serde_json5value3ser10SerializerEs1_0Ba_
FNDA:13,_RNCINvXs3_NtCscBGMVToPeRm_8callisto6entityNtB8_8EntitiesNtNtCs8pDKiTx8cJZ_5serde3ser9Serialize9serializeQINtNtCse3EK68OXEkC_10serde_json3ser10SerializerQINtNtCsdze8u8oDPro_5alloc3vec3VechEEEs1_0Ba_
FNDA:0,_RNCINvXs3_NtCscBGMVToPeRm_8callisto6entityNtB8_8EntitiesNtNtCs8pDKiTx8cJZ_5serde3ser9Serialize9serializeNtNtNtCse3EK68OXEkC_10serde_json5value3ser10SerializerEs2_0Ba_
FNDA:2,_RNCINvXs3_NtCscBGMVToPeRm_8callisto6entityNtB8_8EntitiesNtNtCs8pDKiTx8cJZ_5serde3ser9Serialize9serializeQINtNtCse3EK68OXEkC_10serde_json3ser10SerializerQINtNtCsdze8u8oDPro_5alloc3vec3VechEEEs2_0Ba_
FNDA:3,_RNCINvXs3_NtCscBGMVToPeRm_8callisto6entityNtB8_8EntitiesNtNtCs8pDKiTx8cJZ_5serde3ser9Serialize9serializeNtNtNtCse3EK68OXEkC_10serde_json5value3ser10SerializerEs3_0Ba_
FNDA:14,_RNCINvXs3_NtCscBGMVToPeRm_8callisto6entityNtB8_8EntitiesNtNtCs8pDKiTx8cJZ_5serde3ser9Serialize9serializeQINtNtCse3EK68OXEkC_10serde_json3ser10SerializerQINtNtCsdze8u8oDPro_5alloc3vec3VechEEEs3_0Ba_
FNDA:3,_RINvXs4_NtCscBGMVToPeRm_8callisto6entityNtB6_8EntitiesNtNtCs8pDKiTx8cJZ_5serde2de11Deserialize11deserializeNtNtCse3EK68OXEkC_10serde_json5value5ValueEB8_
FNDA:22,_RINvXs4_NtCscBGMVToPeRm_8callisto6entityNtB6_8EntitiesNtNtCs8pDKiTx8cJZ_5serde2de11Deserialize11deserializeQINtNtCse3EK68OXEkC_10serde_json2de12DeserializerNtNtB1N_4read7StrReadEEB8_
FNDA:2,_RINvXs4_NtCscBGMVToPeRm_8callisto6entityNtB6_8EntitiesNtNtCs8pDKiTx8cJZ_5serde2de11Deserialize11deserializeQINtNtCse3EK68OXEkC_10serde_json2de12DeserializerNtNtB1N_4read9SliceReadEEB8_
FNDA:6,_RNCINvXs4_NtCscBGMVToPeRm_8callisto6entityNtB8_8EntitiesNtNtCs8pDKiTx8cJZ_5serde2de11Deserialize11deserializeNtNtCse3EK68OXEkC_10serde_json5value5ValueE0Ba_
FNDA:32,_RNCINvXs4_NtCscBGMVToPeRm_8callisto6entityNtB8_8EntitiesNtNtCs8pDKiTx8cJZ_5serde2de11Deserialize11deserializeQINtNtCse3EK68OXEkC_10serde_json2de12DeserializerNtNtB1P_4read7StrReadEE0Ba_
FNDA:0,_RNCINvXs4_NtCscBGMVToPeRm_8callisto6entityNtB8_8EntitiesNtNtCs8pDKiTx8cJZ_5serde2de11Deserialize11deserializeQINtNtCse3EK68OXEkC_10serde_json2de12DeserializerNtNtB1P_4read9SliceReadEE0Ba_
FNDA:4,_RNCINvXs4_NtCscBGMVToPeRm_8callisto6entityNtB8_8EntitiesNtNtCs8pDKiTx8cJZ_5serde2de11Deserialize11deserializeNtNtCse3EK68OXEkC_10serde_json5value5ValueEs_0Ba_
FNDA:4,_RNCINvXs4_NtCscBGMVToPeRm_8callisto6entityNtB8_8EntitiesNtNtCs8pDKiTx8cJZ_5serde2de11Deserialize11deserializeQINtNtCse3EK68OXEkC_10serde_json2de12DeserializerNtNtB1P_4read7StrReadEEs_0Ba_
FNDA:0,_RNCINvXs4_NtCscBGMVToPeRm_8callisto6entityNtB8_8EntitiesNtNtCs8pDKiTx8cJZ_5serde2de11Deserialize11deserializeQINtNtCse3EK68OXEkC_10serde_json2de12DeserializerNtNtB1P_4read9SliceReadEEs_0Ba_
FNDA:6,_RNCINvXs4_NtCscBGMVToPeRm_8callisto6entityNtB8_8EntitiesNtNtCs8pDKiTx8cJZ_5serde2de11Deserialize11deserializeNtNtCse3EK68OXEkC_10serde_json5value5ValueEs0_0Ba_
FNDA:13,_RNCINvXs4_NtCscBGMVToPeRm_8callisto6entityNtB8_8EntitiesNtNtCs8pDKiTx8cJZ_5serde2de11Deserialize11deserializeQINtNtCse3EK68OXEkC_10serde_json2de12DeserializerNtNtB1P_4read7StrReadEEs0_0Ba_
FNDA:9,_RNCINvXs4_NtCscBGMVToPeRm_8callisto6entityNtB8_8EntitiesNtNtCs8pDKiTx8cJZ_5serde2de11Deserialize11deserializeQINtNtCse3EK68OXEkC_10serde_json2de12DeserializerNtNtB1P_4read9SliceReadEEs0_0Ba_
FNDA:49,_RNCNvNtCscBGMVToPeRm_8callisto6entity10deep_clone0B5_
FNDA:77,_RINvXNvXNvNvXs4_NtCscBGMVToPeRm_8callisto6entityNtBe_8EntitiesNtNtCs8pDKiTx8cJZ_5serde2de11Deserialize11deserialize1__NtB8_8EntitiesBY_11deserializeNtB3_14___FieldVisitorNtB10_7Visitor9visit_strNtNtCse3EK68OXEkC_10serde_json5error5ErrorEBg_
FNDA:66,_RINvXs_NvXNvNvXs4_NtCscBGMVToPeRm_8callisto6entityNtBg_8EntitiesNtNtCs8pDKiTx8cJZ_5serde2de11Deserialize11deserialize1__NtBa_8EntitiesB10_11deserializeNtB5_7___FieldB10_11deserializeINtNtCse3EK68OXEkC_10serde_json2de6MapKeyNtNtB2Z_4read7StrReadEEBi_
FNDA:2,_RINvXs_NvXNvNvXs4_NtCscBGMVToPeRm_8callisto6entityNtBg_8EntitiesNtNtCs8pDKiTx8cJZ_5serde2de11Deserialize11deserialize1__NtBa_8EntitiesB10_11deserializeNtB5_7___FieldB10_11deserializeINtNtCse3EK68OXEkC_10serde_json2de6MapKeyNtNtB2Z_4read9SliceReadEEBi_
FNDA:9,_RINvXs_NvXNvNvXs4_NtCscBGMVToPeRm_8callisto6entityNtBg_8EntitiesNtNtCs8pDKiTx8cJZ_5serde2de11Deserialize11deserialize1__NtBa_8EntitiesB10_11deserializeNtB5_7___FieldB10_11deserializeNtNtNtCse3EK68OXEkC_10serde_json5value2de18MapKeyDeserializerEBi_
FNDA:0,_RINvXs0_NvXNvNvXs4_NtCscBGMVToPeRm_8callisto6entityNtBh_8EntitiesNtNtCs8pDKiTx8cJZ_5serde2de11Deserialize11deserialize1__NtBb_8EntitiesB11_11deserializeNtB6_9___VisitorNtB13_7Visitor9visit_seqINtNtCse3EK68OXEkC_10serde_json2de9SeqAccessNtNtB39_4read7StrReadEEBj_
FNDA:0,_RINvXs0_NvXNvNvXs4_NtCscBGMVToPeRm_8callisto6entityNtBh_8EntitiesNtNtCs8pDKiTx8cJZ_5serde2de11Deserialize11deserialize1__NtBb_8EntitiesB11_11deserializeNtB6_9___VisitorNtB13_7Visitor9visit_seqINtNtCse3EK68OXEkC_10serde_json2de9SeqAccessNtNtB39_4read9SliceReadEEBj_
FNDA:0,_RINvXs0_NvXNvNvXs4_NtCscBGMVToPeRm_8callisto6entityNtBh_8EntitiesNtNtCs8pDKiTx8cJZ_5serde2de11Deserialize11deserialize1__NtBb_8EntitiesB11_11deserializeNtB6_9___VisitorNtB13_7Visitor9visit_seqQNtNtNtCse3EK68OXEkC_10serde_json5value2de15SeqDeserializerEBj_
FNDA:22,_RINvXs0_NvXNvNvXs4_NtCscBGMVToPeRm_8callisto6entityNtBh_8EntitiesNtNtCs8pDKiTx8cJZ_5serde2de11Deserialize11deserialize1__NtBb_8EntitiesB11_11deserializeNtB6_9___VisitorNtB13_7Visitor9visit_mapINtNtCse3EK68OXEkC_10serde_json2de9MapAccessNtNtB39_4read7StrReadEEBj_
FNDA:2,_RINvXs0_NvXNvNvXs4_NtCscBGMVToPeRm_8callisto6entityNtBh_8EntitiesNtNtCs8pDKiTx8cJZ_5serde2de11Deserialize11deserialize1__NtBb_8EntitiesB11_11deserializeNtB6_9___VisitorNtB13_7Visitor9visit_mapINtNtCse3EK68OXEkC_10serde_json2de9MapAccessNtNtB39_4read9SliceReadEEBj_
FNDA:3,_RINvXs0_NvXNvNvXs4_NtCscBGMVToPeRm_8callisto6entityNtBh_8EntitiesNtNtCs8pDKiTx8cJZ_5serde2de11Deserialize11deserialize1__NtBb_8EntitiesB11_11deserializeNtB6_9___VisitorNtB13_7Visitor9visit_mapQNtNtNtCse3EK68OXEkC_10serde_json5value2de15MapDeserializerEBj_
FNDA:1,_RNvNtNtCscBGMVToPeRm_8callisto6entity5testss_31test_entities_display_and_debug
FNDA:1,_RNvNtNvNtNtCscBGMVToPeRm_8callisto6entity5testss_31test_entities_display_and_debug4init4init
FNDA:1,_RNvNtNtCscBGMVToPeRm_8callisto6entity5testss_13test_add_ship
FNDA:1,_RNvNtNvNtNtCscBGMVToPeRm_8callisto6entity5testss_13test_add_ship4init4init
FNDA:1,_RNvNtNtCscBGMVToPeRm_8callisto6entity5testss_15test_update_all
FNDA:1,_RNvNtNvNtNtCscBGMVToPeRm_8callisto6entity5testss_15test_update_all4init4init
FNDA:1,_RNvNtNtCscBGMVToPeRm_8callisto6entity5testss_22test_entities_validate
FNDA:1,_RNvNtNvNtNtCscBGMVToPeRm_8callisto6entity5testss_22test_entities_validate4init4init
FNDA:1,_RNvNtNtCscBGMVToPeRm_8callisto6entity5testss_15test_sun_update
FNDA:1,_RNvNtNvNtNtCscBGMVToPeRm_8callisto6entity5testss_15test_sun_update4init4init
FNDA:1,_RNvNtNtCscBGMVToPeRm_8callisto6entity5testss_26test_complex_planet_update
FNDA:1,_RNvNtNvNtNtCscBGMVToPeRm_8callisto6entity5testss_26test_complex_planet_update4init4init
FNDA:3,_RNvNvNtNtCscBGMVToPeRm_8callisto6entity5testss_26test_complex_planet_update18check_radius_and_y
FNDA:1,_RNvNtNtCscBGMVToPeRm_8callisto6entity5testss_21test_serialize_planet
FNDA:1,_RNvNtNvNtNtCscBGMVToPeRm_8callisto6entity5testss_21test_serialize_planet4init4init
FNDA:1,_RNvNtNtCscBGMVToPeRm_8callisto6entity5testss_29test_mixed_entities_serialize
FNDA:1,_RNvNtNvNtNtCscBGMVToPeRm_8callisto6entity5testss_29test_mixed_entities_serialize4init4init
FNDA:1,_RNvNtNtCscBGMVToPeRm_8callisto6entity5testss_28test_unordered_scenario_file
FNDA:1,_RNvNtNtCscBGMVToPeRm_8callisto6entity5testss_22test_entities_equality
FNDA:1,_RNvNtNCNvNtNtCscBGMVToPeRm_8callisto6entity5testss_22test_entities_equality04init4init
FNDA:1,_RNvNtNtCscBGMVToPeRm_8callisto6entity5testss_30test_entities_len_and_is_empty
FNDA:1,_RNvNtNvNtNtCscBGMVToPeRm_8callisto6entity5testss_30test_entities_len_and_is_empty4init4init
FNDA:1,_RNvNtNtCscBGMVToPeRm_8callisto6entity5testss_34test_launch_missile_invalid_target
FNDA:1,_RNvNtNvNtNtCscBGMVToPeRm_8callisto6entity5testss_34test_launch_missile_invalid_target4init4init
FNDA:1,_RNvNtNtCscBGMVToPeRm_8callisto6entity5testss_19test_fixup_pointers
FNDA:1,_RNvNtNCNvNtNtCscBGMVToPeRm_8callisto6entity5testss_19test_fixup_pointers04init4init
FNDA:1,_RNvNtNtCscBGMVToPeRm_8callisto6entity5testss_20test_set_flight_plan
FNDA:1,_RNvNtNvNtNtCscBGMVToPeRm_8callisto6entity5testss_20test_set_flight_plan4init4init
FNDA:5,_RINvXs3_NtCskkwNnPUyuBS_8callisto6entityNtB6_8EntitiesNtNtCs8pDKiTx8cJZ_5serde3ser9Serialize9serializeNtNtNtCse3EK68OXEkC_10serde_json5value3ser10SerializerECseGnTZYlWoAf_9webserver
FNDA:9,_RNCINvXs3_NtCskkwNnPUyuBS_8callisto6entityNtB8_8EntitiesNtNtCs8pDKiTx8cJZ_5serde3ser9Serialize9serializeNtNtNtCse3EK68OXEkC_10serde_json5value3ser10SerializerE0CseGnTZYlWoAf_9webserver
FNDA:3,_RNCINvXs3_NtCskkwNnPUyuBS_8callisto6entityNtB8_8EntitiesNtNtCs8pDKiTx8cJZ_5serde3ser9Serialize9serializeNtNtNtCse3EK68OXEkC_10serde_json5value3ser10SerializerEs0_0CseGnTZYlWoAf_9webserver
FNDA:4,_RNCINvXs3_NtCskkwNnPUyuBS_8callisto6entityNtB8_8EntitiesNtNtCs8pDKiTx8cJZ_5serde3ser9Serialize9serializeNtNtNtCse3EK68OXEkC_10serde_json5value3ser10SerializerEs1_0CseGnTZYlWoAf_9webserver
FNDA:0,_RNCINvXs3_NtCskkwNnPUyuBS_8callisto6entityNtB8_8EntitiesNtNtCs8pDKiTx8cJZ_5serde3ser9Serialize9serializeNtNtNtCse3EK68OXEkC_10serde_json5value3ser10SerializerEs2_0CseGnTZYlWoAf_9webserver
FNDA:1,_RNCINvXs3_NtCskkwNnPUyuBS_8callisto6entityNtB8_8EntitiesNtNtCs8pDKiTx8cJZ_5serde3ser9Serialize9serializeNtNtNtCse3EK68OXEkC_10serde_json5value3ser10SerializerEs3_0CseGnTZYlWoAf_9webserver
FNDA:0,_RNCINvXs3_NtCskkwNnPUyuBS_8callisto6entityNtB8_8EntitiesNtNtCs8pDKiTx8cJZ_5serde3ser9Serialize9serializeNtNtNtCse3EK68OXEkC_10serde_json5value3ser10SerializerEs_0CseGnTZYlWoAf_9webserver
FNF:82
FNH:79
DA:38,0
DA:55,11
DA:56,11
DA:57,10
DA:58,8
DA:59,14
DA:60,9
DA:61,8
DA:62,14
DA:63,14
DA:64,14
DA:65,14
DA:66,14
DA:67,14
DA:68,8
DA:69,8
DA:70,8
DA:71,8
DA:72,8
DA:73,8
DA:74,6
DA:75,6
DA:76,6
DA:77,6
DA:78,6
DA:79,6
DA:80,11
DA:84,52
DA:85,52
DA:86,52
DA:87,52
DA:88,52
DA:89,52
DA:90,52
DA:91,52
DA:93,4
DA:94,4
DA:95,4
DA:97,4
DA:98,4
DA:99,4
DA:101,8
DA:104,4
DA:105,8
DA:107,4
DA:108,4
DA:113,4
DA:114,0
DA:115,0
DA:131,4
DA:132,4
DA:133,8
DA:135,63
DA:136,63
DA:137,63
DA:138,63
DA:139,63
DA:140,63
DA:141,63
DA:142,63
DA:143,63
DA:144,63
DA:145,63
DA:146,63
DA:147,63
DA:148,63
DA:149,63
DA:150,63
DA:151,63
DA:152,63
DA:153,63
DA:155,19
DA:156,19
DA:157,19
DA:158,19
DA:159,19
DA:160,19
DA:161,19
DA:162,19
DA:163,19
DA:174,19
DA:175,3
DA:176,1
DA:177,1
DA:178,1
DA:179,1
DA:180,3
DA:182,2
DA:183,2
DA:184,2
DA:185,2
DA:187,16
DA:191,18
DA:192,0
DA:193,0
DA:194,0
DA:195,0
DA:196,18
DA:197,18
DA:198,18
DA:199,18
DA:200,18
DA:201,18
DA:202,18
DA:203,18
DA:204,18
DA:205,18
DA:206,18
DA:207,18
DA:208,18
DA:209,18
DA:210,18
DA:211,18
DA:212,19
DA:214,43
DA:215,43
DA:216,43
DA:217,43
DA:218,43
DA:219,43
DA:220,43
DA:221,43
DA:222,43
DA:223,43
DA:224,43
DA:225,42
DA:227,42
DA:228,42
DA:229,42
DA:230,42
DA:231,41
DA:232,41
DA:233,41
DA:234,41
DA:235,41
DA:236,41
DA:237,41
DA:238,41
DA:239,41
DA:240,41
DA:241,41
DA:242,41
DA:243,41
DA:244,41
DA:245,41
DA:246,41
DA:247,41
DA:248,41
DA:249,41
DA:250,41
DA:251,41
DA:252,41
DA:253,41
DA:254,41
DA:255,41
DA:256,43
DA:259,8
DA:260,8
DA:261,6
DA:263,2
DA:264,2
DA:265,2
DA:266,2
DA:268,8
DA:270,21
DA:271,21
DA:272,21
DA:273,21
DA:274,21
DA:275,21
DA:276,21
DA:277,21
DA:278,21
DA:279,21
DA:280,21
DA:281,21
DA:282,14
DA:285,0
DA:287,14
DA:288,14
DA:289,14
DA:290,14
DA:291,14
DA:292,48
DA:293,34
DA:294,0
DA:295,34
DA:297,14
DA:298,21
DA:299,21
DA:300,21
DA:301,21
DA:303,30
DA:304,30
DA:305,30
DA:306,30
DA:307,30
DA:308,30
DA:309,30
DA:310,6
DA:311,6
DA:312,6
DA:313,30
DA:314,30
DA:315,30
DA:316,30
DA:317,12
DA:318,30
DA:319,30
DA:320,30
DA:321,30
DA:322,30
DA:323,30
DA:324,30
DA:325,122
DA:326,122
DA:327,122
DA:328,122
DA:329,122
DA:330,30
DA:331,30
DA:332,30
DA:333,64
DA:334,64
DA:335,64
DA:336,64
DA:337,64
DA:338,64
DA:341,0
DA:343,64
DA:344,64
DA:345,64
DA:346,64
DA:347,64
DA:348,64
DA:349,31
DA:359,31
DA:360,31
DA:361,31
DA:362,31
DA:363,31
DA:364,31
DA:365,31
DA:366,31
DA:367,31
DA:368,31
DA:369,31
DA:370,31
DA:371,31
DA:372,31
DA:373,31
DA:374,31
DA:375,31
DA:376,31
DA:382,0
DA:383,0
DA:384,0
DA:387,3
DA:388,3
DA:390,3
DA:391,3
DA:392,3
DA:393,3
DA:395,0
DA:396,0
DA:397,0
DA:398,0
DA:400,64
DA:401,30
DA:402,30
DA:403,30
DA:404,30
DA:405,30
DA:406,30
DA:407,30
DA:408,30
DA:409,51
DA:410,51
DA:411,51
DA:412,51
DA:413,51
DA:414,51
DA:415,51
DA:421,2
DA:422,2
DA:423,2
DA:424,2
DA:425,2
DA:426,2
DA:427,2
DA:429,0
DA:430,0
DA:431,0
DA:432,0
DA:434,51
DA:435,30
DA:436,30
DA:437,30
DA:438,30
DA:439,34
DA:440,34
DA:441,34
DA:442,34
DA:443,30
DA:444,30
DA:445,2
DA:446,2
DA:447,30
DA:448,30
DA:449,30
DA:450,30
DA:452,17
DA:453,34
DA:454,34
DA:455,34
DA:456,34
DA:457,1
DA:458,33
DA:459,33
DA:460,33
DA:461,1
DA:462,0
DA:463,15
DA:464,15
DA:465,1
DA:466,14
DA:468,17
DA:472,14
DA:473,5
DA:474,5
DA:475,4
DA:476,4
DA:477,4
DA:478,4
DA:479,4
DA:480,4
DA:481,4
DA:482,4
DA:484,1
DA:485,4
DA:487,13
DA:488,17
DA:490,7
DA:491,20
DA:492,20
DA:493,20
DA:494,20
DA:495,14
DA:496,1
DA:497,1
DA:498,1
DA:499,1
DA:500,14
DA:501,13
DA:502,6
DA:505,6
DA:506,2
DA:507,2
DA:508,2
DA:509,1
DA:510,1
DA:511,1
DA:512,1
DA:513,2
DA:514,1
DA:516,5
DA:517,7
DA:519,4
DA:520,15
DA:521,15
DA:522,15
DA:523,15
DA:524,4
DA:529,2
DA:530,2
DA:531,2
DA:535,4
DA:536,4
DA:537,4
DA:539,2
DA:540,2
DA:541,2
DA:542,2
DA:543,2
DA:544,4
DA:545,4
DA:547,2
DA:548,2
DA:550,2
DA:551,2
DA:553,2
DA:554,2
DA:555,4
DA:562,9
DA:563,9
DA:564,9
DA:568,49
DA:569,49
DA:570,49
DA:571,49
DA:579,49
DA:580,49
DA:581,49
DA:582,49
DA:583,70
DA:584,49
DA:585,49
DA:586,49
DA:587,49
DA:588,49
DA:589,49
DA:590,49
DA:591,49
DA:592,49
DA:593,49
DA:594,49
DA:595,49
DA:596,49
DA:597,49
DA:598,49
DA:599,49
DA:600,49
DA:601,49
DA:602,49
DA:603,49
DA:604,49
DA:605,49
DA:606,49
DA:607,49
DA:608,49
DA:609,49
DA:610,49
DA:615,39
DA:616,39
DA:617,39
DA:618,39
DA:619,148
DA:629,39
DA:630,39
DA:631,39
DA:632,39
DA:633,39
DA:634,51
DA:635,39
DA:636,39
DA:637,39
DA:638,39
DA:639,39
DA:640,39
DA:641,39
DA:642,39
DA:643,39
DA:644,40
DA:645,39
DA:646,39
DA:647,39
DA:648,39
DA:652,31
DA:653,31
DA:654,31
DA:655,52
DA:656,31
DA:657,31
DA:671,1
DA:738,1
DA:800,1
DA:895,1
DA:1098,1
DA:1137,1
DA:1143,3
DA:1144,3
DA:1145,3
DA:1146,3
DA:1147,3
DA:1148,3
DA:1150,3
DA:1151,3
DA:1152,3
DA:1153,3
DA:1154,3
DA:1155,3
DA:1156,3
DA:1157,3
DA:1158,3
DA:1159,3
DA:1160,3
DA:1161,3
DA:1162,3
DA:1254,1
DA:1316,1
DA:1438,1
DA:1439,1
DA:1440,1
DA:1441,1
DA:1442,1
DA:1443,1
DA:1444,1
DA:1445,1
DA:1447,2
DA:1609,1
DA:1652,1
DA:1679,2
DA:1744,1
BRF:0
BRH:0
LF:567
LH:543
end_of_record
SF:/Users/dan/dev/callisto/callisto/src/lib.rs
FN:154,_RNCNCNCNvCskkwNnPUyuBS_8callisto14handle_request000Csj2r3Yn2CUPB_8callisto
FN:151,_RNCNCNvCskkwNnPUyuBS_8callisto14handle_request00Csj2r3Yn2CUPB_8callisto
FN:156,_RNCNCNvCskkwNnPUyuBS_8callisto14handle_request0s_0Csj2r3Yn2CUPB_8callisto
FN:454,_RNCNCNvCskkwNnPUyuBS_8callisto24read_local_or_cloud_file00Csj2r3Yn2CUPB_8callisto
FN:136,_RNCNvCskkwNnPUyuBS_8callisto14handle_request0Csj2r3Yn2CUPB_8callisto
FN:95,_RNCNvCskkwNnPUyuBS_8callisto19get_body_size_check0Csj2r3Yn2CUPB_8callisto
FN:445,_RNCNvCskkwNnPUyuBS_8callisto24read_local_or_cloud_file0Csj2r3Yn2CUPB_8callisto
FN:95,_RNCNvCskkwNnPUyuBS_8callisto19get_body_size_check0B3_
FN:136,_RNCNvCskkwNnPUyuBS_8callisto14handle_request0B3_
FN:151,_RNCNCNvCskkwNnPUyuBS_8callisto14handle_request00B5_
FN:154,_RNCNCNCNvCskkwNnPUyuBS_8callisto14handle_request000B7_
FN:156,_RNCNCNvCskkwNnPUyuBS_8callisto14handle_request0s_0B5_
FN:445,_RNCNvCskkwNnPUyuBS_8callisto24read_local_or_cloud_file0B3_
FN:454,_RNCNCNvCskkwNnPUyuBS_8callisto24read_local_or_cloud_file00B5_
FN:57,_RNvXCskkwNnPUyuBS_8callistoNtB2_14SizeCheckErrorINtNtCs9f3LFPSIp77_4core7convert4FromNtNtCse8h9HdYukW1_5hyper5error5ErrorE4from
FN:65,_RNvCskkwNnPUyuBS_8callisto16add_auth_headers
FN:73,_RNvCskkwNnPUyuBS_8callisto17build_ok_response
FN:86,_RNvCskkwNnPUyuBS_8callisto18build_err_response
FN:95,_RNvCskkwNnPUyuBS_8callisto19get_body_size_check
FN:131,_RNvCskkwNnPUyuBS_8callisto14handle_request
FN:443,_RNvCskkwNnPUyuBS_8callisto24read_local_or_cloud_file
FN:57,_RNvXCscBGMVToPeRm_8callistoNtB2_14SizeCheckErrorINtNtCs9f3LFPSIp77_4core7convert4FromNtNtCse8h9HdYukW1_5hyper5error5ErrorE4from
FN:65,_RNvCscBGMVToPeRm_8callisto16add_auth_headers
FN:73,_RNvCscBGMVToPeRm_8callisto17build_ok_response
FN:86,_RNvCscBGMVToPeRm_8callisto18build_err_response
FN:95,_RNvCscBGMVToPeRm_8callisto19get_body_size_check
FN:95,_RNCNvCscBGMVToPeRm_8callisto19get_body_size_check0B3_
FN:131,_RNvCscBGMVToPeRm_8callisto14handle_request
FN:136,_RNCNvCscBGMVToPeRm_8callisto14handle_request0B3_
FN:151,_RNCNCNvCscBGMVToPeRm_8callisto14handle_request00B5_
FN:154,_RNCNCNCNvCscBGMVToPeRm_8callisto14handle_request000B7_
FN:156,_RNCNCNvCscBGMVToPeRm_8callisto14handle_request0s_0B5_
FN:445,_RNCNvCscBGMVToPeRm_8callisto24read_local_or_cloud_file0B3_
FN:454,_RNCNCNvCscBGMVToPeRm_8callisto24read_local_or_cloud_file00B5_
FN:443,_RNvCscBGMVToPeRm_8callisto24read_local_or_cloud_file
FN:454,_RNCNCNvCskkwNnPUyuBS_8callisto24read_local_or_cloud_file00CseGnTZYlWoAf_9webserver
FN:445,_RNCNvCskkwNnPUyuBS_8callisto24read_local_or_cloud_file0CseGnTZYlWoAf_9webserver
FNDA:63,_RNCNCNCNvCskkwNnPUyuBS_8callisto14handle_request000Csj2r3Yn2CUPB_8callisto
FNDA:63,_RNCNCNvCskkwNnPUyuBS_8callisto14handle_request00Csj2r3Yn2CUPB_8callisto
FNDA:63,_RNCNCNvCskkwNnPUyuBS_8callisto14handle_request0s_0Csj2r3Yn2CUPB_8callisto
FNDA:0,_RNCNCNvCskkwNnPUyuBS_8callisto24read_local_or_cloud_file00Csj2r3Yn2CUPB_8callisto
FNDA:82,_RNCNvCskkwNnPUyuBS_8callisto14handle_request0Csj2r3Yn2CUPB_8callisto
FNDA:50,_RNCNvCskkwNnPUyuBS_8callisto19get_body_size_check0Csj2r3Yn2CUPB_8callisto
FNDA:24,_RNCNvCskkwNnPUyuBS_8callisto24read_local_or_cloud_file0Csj2r3Yn2CUPB_8callisto
FNDA:0,_RNCNvCskkwNnPUyuBS_8callisto19get_body_size_check0B3_
FNDA:0,_RNCNvCskkwNnPUyuBS_8callisto14handle_request0B3_
FNDA:0,_RNCNCNvCskkwNnPUyuBS_8callisto14handle_request00B5_
FNDA:0,_RNCNCNCNvCskkwNnPUyuBS_8callisto14handle_request000B7_
FNDA:0,_RNCNCNvCskkwNnPUyuBS_8callisto14handle_request0s_0B5_
FNDA:0,_RNCNvCskkwNnPUyuBS_8callisto24read_local_or_cloud_file0B3_
FNDA:0,_RNCNCNvCskkwNnPUyuBS_8callisto24read_local_or_cloud_file00B5_
FNDA:0,_RNvXCskkwNnPUyuBS_8callistoNtB2_14SizeCheckErrorINtNtCs9f3LFPSIp77_4core7convert4FromNtNtCse8h9HdYukW1_5hyper5error5ErrorE4from
FNDA:61,_RNvCskkwNnPUyuBS_8callisto16add_auth_headers
FNDA:32,_RNvCskkwNnPUyuBS_8callisto17build_ok_response
FNDA:10,_RNvCskkwNnPUyuBS_8callisto18build_err_response
FNDA:50,_RNvCskkwNnPUyuBS_8callisto19get_body_size_check
FNDA:82,_RNvCskkwNnPUyuBS_8callisto14handle_request
FNDA:30,_RNvCskkwNnPUyuBS_8callisto24read_local_or_cloud_file
FNDA:0,_RNvXCscBGMVToPeRm_8callistoNtB2_14SizeCheckErrorINtNtCs9f3LFPSIp77_4core7convert4FromNtNtCse8h9HdYukW1_5hyper5error5ErrorE4from
FNDA:0,_RNvCscBGMVToPeRm_8callisto16add_auth_headers
FNDA:0,_RNvCscBGMVToPeRm_8callisto17build_ok_response
FNDA:0,_RNvCscBGMVToPeRm_8callisto18build_err_response
FNDA:0,_RNvCscBGMVToPeRm_8callisto19get_body_size_check
FNDA:0,_RNCNvCscBGMVToPeRm_8callisto19get_body_size_check0B3_
FNDA:0,_RNvCscBGMVToPeRm_8callisto14handle_request
FNDA:0,_RNCNvCscBGMVToPeRm_8callisto14handle_request0B3_
FNDA:0,_RNCNCNvCscBGMVToPeRm_8callisto14handle_request00B5_
FNDA:0,_RNCNCNCNvCscBGMVToPeRm_8callisto14handle_request000B7_
FNDA:0,_RNCNCNvCscBGMVToPeRm_8callisto14handle_request0s_0B5_
FNDA:28,_RNCNvCscBGMVToPeRm_8callisto24read_local_or_cloud_file0B3_
FNDA:0,_RNCNCNvCscBGMVToPeRm_8callisto24read_local_or_cloud_file00B5_
FNDA:28,_RNvCscBGMVToPeRm_8callisto24read_local_or_cloud_file
FNDA:0,_RNCNCNvCskkwNnPUyuBS_8callisto24read_local_or_cloud_file00CseGnTZYlWoAf_9webserver
FNDA:6,_RNCNvCskkwNnPUyuBS_8callisto24read_local_or_cloud_file0CseGnTZYlWoAf_9webserver
FNF:14
FNH:12
DA:57,0
DA:58,0
DA:59,0
DA:65,61
DA:66,61
DA:67,61
DA:68,61
DA:69,61
DA:70,61
DA:71,61
DA:73,32
DA:74,32
DA:75,32
DA:76,32
DA:77,32
DA:78,32
DA:79,32
DA:80,32
DA:81,32
DA:82,32
DA:83,32
DA:84,32
DA:86,10
DA:87,10
DA:88,10
DA:89,10
DA:90,10
DA:91,10
DA:92,10
DA:95,50
DA:96,50
DA:97,50
DA:98,0
DA:99,0
DA:100,0
DA:101,50
DA:102,50
DA:103,50
DA:104,50
DA:131,82
DA:132,82
DA:133,82
DA:134,82
DA:135,82
DA:136,82
DA:137,82
DA:138,82
DA:139,82
DA:140,82
DA:141,82
DA:142,82
DA:143,82
DA:144,82
DA:145,82
DA:146,82
DA:147,82
DA:148,82
DA:149,82
DA:150,82
DA:151,82
DA:152,63
DA:153,63
DA:154,63
DA:155,82
DA:156,82
DA:157,63
DA:158,63
DA:159,63
DA:160,63
DA:161,63
DA:162,63
DA:163,63
DA:164,82
DA:170,82
DA:171,63
DA:172,63
DA:173,19
DA:176,1
DA:177,1
DA:178,1
DA:179,1
DA:180,18
DA:181,18
DA:182,18
DA:183,0
DA:184,0
DA:186,81
DA:187,81
DA:188,81
DA:189,81
DA:190,1
DA:191,1
DA:192,1
DA:193,1
DA:194,1
DA:195,1
DA:196,1
DA:197,1
DA:198,1
DA:199,1
DA:200,1
DA:201,1
DA:202,1
DA:203,1
DA:204,1
DA:205,1
DA:206,1
DA:207,1
DA:208,1
DA:209,1
DA:210,1
DA:211,1
DA:212,1
DA:213,1
DA:214,1
DA:215,1
DA:216,1
DA:218,50
DA:219,17
DA:221,17
DA:222,16
DA:223,16
DA:224,16
DA:225,16
DA:226,16
DA:227,16
DA:228,16
DA:229,16
DA:230,16
DA:231,16
DA:232,16
DA:233,16
DA:234,16
DA:235,16
DA:236,16
DA:237,16
DA:238,16
DA:239,16
DA:240,16
DA:241,16
DA:242,16
DA:243,16
DA:244,16
DA:245,16
DA:247,1
DA:248,1
DA:249,1
DA:250,1
DA:251,1
DA:252,1
DA:253,1
DA:254,1
DA:255,1
DA:256,1
DA:257,1
DA:258,1
DA:259,1
DA:260,1
DA:264,33
DA:265,11
DA:267,11
DA:268,11
DA:269,0
DA:270,0
DA:271,0
DA:272,0
DA:273,0
DA:276,22
DA:277,5
DA:279,3
DA:280,1
DA:281,2
DA:282,2
DA:283,2
DA:284,2
DA:285,2
DA:288,17
DA:289,3
DA:291,3
DA:292,2
DA:293,1
DA:294,1
DA:295,1
DA:296,1
DA:297,1
DA:301,14
DA:302,2
DA:304,2
DA:305,1
DA:306,1
DA:307,1
DA:308,1
DA:309,1
DA:310,1
DA:313,12
DA:315,2
DA:317,2
DA:318,1
DA:319,1
DA:320,1
DA:321,1
DA:322,1
DA:323,1
DA:324,1
DA:325,1
DA:329,10
DA:335,3
DA:337,2
DA:338,2
DA:339,2
DA:340,2
DA:341,2
DA:342,2
DA:343,2
DA:346,7
DA:347,2
DA:348,2
DA:349,2
DA:350,2
DA:351,2
DA:352,2
DA:353,2
DA:354,2
DA:355,2
DA:357,0
DA:358,0
DA:359,0
DA:360,0
DA:361,0
DA:365,5
DA:366,5
DA:368,4
DA:369,1
DA:370,1
DA:371,1
DA:372,1
DA:373,1
DA:374,1
DA:375,1
DA:376,1
DA:377,1
DA:378,1
DA:379,1
DA:381,3
DA:382,3
DA:383,3
DA:384,3
DA:385,3
DA:386,3
DA:387,3
DA:388,3
DA:389,3
DA:390,3
DA:395,30
DA:396,16
DA:397,0
DA:398,16
DA:400,16
DA:403,14
DA:405,12
DA:406,12
DA:407,12
DA:408,12
DA:409,12
DA:410,12
DA:411,12
DA:414,2
DA:416,1
DA:417,1
DA:418,1
DA:419,1
DA:420,1
DA:421,1
DA:422,1
DA:425,1
DA:426,1
DA:427,1
DA:428,1
DA:429,1
DA:430,1
DA:431,1
DA:432,1
DA:435,66
DA:443,58
DA:444,58
DA:445,58
DA:446,58
DA:447,58
DA:449,2
DA:450,2
DA:451,2
DA:454,2
DA:455,0
DA:456,2
DA:457,2
DA:458,2
DA:461,2
DA:462,2
DA:463,2
DA:464,2
DA:465,2
DA:466,2
DA:467,2
DA:468,2
DA:469,2
DA:470,2
DA:471,1
DA:474,56
DA:475,52
DA:476,52
DA:477,52
DA:478,52
DA:480,58
BRF:0
BRH:0
LF:322
LH:301
end_of_record
SF:/Users/dan/dev/callisto/callisto/src/main.rs
FN:33,_RNCNvXs0_Csj2r3Yn2CUPB_8callistoNtB7_4ArgsNtNtCs3Qx1quphLfk_12clap_builder6derive14FromArgMatches20from_arg_matches_mut0B7_
FN:41,_RNCNvXs0_Csj2r3Yn2CUPB_8callistoNtB7_4ArgsNtNtCs3Qx1quphLfk_12clap_builder6derive14FromArgMatches20from_arg_matches_muts_0B7_
FN:45,_RNCNvXs0_Csj2r3Yn2CUPB_8callistoNtB7_4ArgsNtNtCs3Qx1quphLfk_12clap_builder6derive14FromArgMatches20from_arg_matches_muts0_0B7_
FN:49,_RNCNvXs0_Csj2r3Yn2CUPB_8callistoNtB7_4ArgsNtNtCs3Qx1quphLfk_12clap_builder6derive14FromArgMatches20from_arg_matches_muts1_0B7_
FN:53,_RNCNvXs0_Csj2r3Yn2CUPB_8callistoNtB7_4ArgsNtNtCs3Qx1quphLfk_12clap_builder6derive14FromArgMatches20from_arg_matches_muts2_0B7_
FN:57,_RNCNvXs0_Csj2r3Yn2CUPB_8callistoNtB7_4ArgsNtNtCs3Qx1quphLfk_12clap_builder6derive14FromArgMatches20from_arg_matches_muts3_0B7_
FN:32,_RNCNvXs1_Csj2r3Yn2CUPB_8callistoNtB7_4ArgsNtNtCs3Qx1quphLfk_12clap_builder6derive4Args12augment_args0B7_
FN:62,_RNCNCNvCsj2r3Yn2CUPB_8callisto4main00B5_
FN:83,_RNCNCNCNvCsj2r3Yn2CUPB_8callisto4main000B7_
FN:122,_RNCNCNCNvCsj2r3Yn2CUPB_8callisto4main00s_0B7_
FN:136,_RNCNCNCNvCsj2r3Yn2CUPB_8callisto4main00s0_0B7_
FN:163,_RNCNCNCNvCsj2r3Yn2CUPB_8callisto4main00s1_0B7_
FN:165,_RNCNCNCNCNvCsj2r3Yn2CUPB_8callisto4main00s1_00B9_
FN:33,_RNCNvXs0_Csj2r3Yn2CUPB_8callistoNtB7_4ArgsNtNtCs3Qx1quphLfk_12clap_builder6derive14FromArgMatches27update_from_arg_matches_mut0B7_
FN:41,_RNCNvXs0_Csj2r3Yn2CUPB_8callistoNtB7_4ArgsNtNtCs3Qx1quphLfk_12clap_builder6derive14FromArgMatches27update_from_arg_matches_muts_0B7_
FN:45,_RNCNvXs0_Csj2r3Yn2CUPB_8callistoNtB7_4ArgsNtNtCs3Qx1quphLfk_12clap_builder6derive14FromArgMatches27update_from_arg_matches_muts0_0B7_
FN:49,_RNCNvXs0_Csj2r3Yn2CUPB_8callistoNtB7_4ArgsNtNtCs3Qx1quphLfk_12clap_builder6derive14FromArgMatches27update_from_arg_matches_muts1_0B7_
FN:53,_RNCNvXs0_Csj2r3Yn2CUPB_8callistoNtB7_4ArgsNtNtCs3Qx1quphLfk_12clap_builder6derive14FromArgMatches27update_from_arg_matches_muts2_0B7_
FN:57,_RNCNvXs0_Csj2r3Yn2CUPB_8callistoNtB7_4ArgsNtNtCs3Qx1quphLfk_12clap_builder6derive14FromArgMatches27update_from_arg_matches_muts3_0B7_
FN:32,_RNCNvXs1_Csj2r3Yn2CUPB_8callistoNtB7_4ArgsNtNtCs3Qx1quphLfk_12clap_builder6derive4Args23augment_args_for_update0B7_
FN:33,_RNCNvXs0_CsfUXJPqfUWtP_8callistoNtB7_4ArgsNtNtCs3Qx1quphLfk_12clap_builder6derive14FromArgMatches20from_arg_matches_mut0B7_
FN:41,_RNCNvXs0_CsfUXJPqfUWtP_8callistoNtB7_4ArgsNtNtCs3Qx1quphLfk_12clap_builder6derive14FromArgMatches20from_arg_matches_muts_0B7_
FN:45,_RNCNvXs0_CsfUXJPqfUWtP_8callistoNtB7_4ArgsNtNtCs3Qx1quphLfk_12clap_builder6derive14FromArgMatches20from_arg_matches_muts0_0B7_
FN:49,_RNCNvXs0_CsfUXJPqfUWtP_8callistoNtB7_4ArgsNtNtCs3Qx1quphLfk_12clap_builder6derive14FromArgMatches20from_arg_matches_muts1_0B7_
FN:53,_RNCNvXs0_CsfUXJPqfUWtP_8callistoNtB7_4ArgsNtNtCs3Qx1quphLfk_12clap_builder6derive14FromArgMatches20from_arg_matches_muts2_0B7_
FN:57,_RNCNvXs0_CsfUXJPqfUWtP_8callistoNtB7_4ArgsNtNtCs3Qx1quphLfk_12clap_builder6derive14FromArgMatches20from_arg_matches_muts3_0B7_
FN:33,_RNCNvXs0_CsfUXJPqfUWtP_8callistoNtB7_4ArgsNtNtCs3Qx1quphLfk_12clap_builder6derive14FromArgMatches27update_from_arg_matches_mut0B7_
FN:41,_RNCNvXs0_CsfUXJPqfUWtP_8callistoNtB7_4ArgsNtNtCs3Qx1quphLfk_12clap_builder6derive14FromArgMatches27update_from_arg_matches_muts_0B7_
FN:45,_RNCNvXs0_CsfUXJPqfUWtP_8callistoNtB7_4ArgsNtNtCs3Qx1quphLfk_12clap_builder6derive14FromArgMatches27update_from_arg_matches_muts0_0B7_
FN:49,_RNCNvXs0_CsfUXJPqfUWtP_8callistoNtB7_4ArgsNtNtCs3Qx1quphLfk_12clap_builder6derive14FromArgMatches27update_from_arg_matches_muts1_0B7_
FN:53,_RNCNvXs0_CsfUXJPqfUWtP_8callistoNtB7_4ArgsNtNtCs3Qx1quphLfk_12clap_builder6derive14FromArgMatches27update_from_arg_matches_muts2_0B7_
FN:57,_RNCNvXs0_CsfUXJPqfUWtP_8callistoNtB7_4ArgsNtNtCs3Qx1quphLfk_12clap_builder6derive14FromArgMatches27update_from_arg_matches_muts3_0B7_
FN:32,_RNCNvXs1_CsfUXJPqfUWtP_8callistoNtB7_4ArgsNtNtCs3Qx1quphLfk_12clap_builder6derive4Args12augment_args0B7_
FN:32,_RNCNvXs1_CsfUXJPqfUWtP_8callistoNtB7_4ArgsNtNtCs3Qx1quphLfk_12clap_builder6derive4Args23augment_args_for_update0B7_
FN:62,_RNCNCNvCsfUXJPqfUWtP_8callisto4main00B5_
FN:83,_RNCNCNCNvCsfUXJPqfUWtP_8callisto4main000B7_
FN:122,_RNCNCNCNvCsfUXJPqfUWtP_8callisto4main00s_0B7_
FN:136,_RNCNCNCNvCsfUXJPqfUWtP_8callisto4main00s0_0B7_
FN:163,_RNCNCNCNvCsfUXJPqfUWtP_8callisto4main00s1_0B7_
FN:165,_RNCNCNCNCNvCsfUXJPqfUWtP_8callisto4main00s1_00B9_
FNDA:0,_RNCNvXs0_Csj2r3Yn2CUPB_8callistoNtB7_4ArgsNtNtCs3Qx1quphLfk_12clap_builder6derive14FromArgMatches20from_arg_matches_mut0B7_
FNDA:0,_RNCNvXs0_Csj2r3Yn2CUPB_8callistoNtB7_4ArgsNtNtCs3Qx1quphLfk_12clap_builder6derive14FromArgMatches20from_arg_matches_muts_0B7_
FNDA:0,_RNCNvXs0_Csj2r3Yn2CUPB_8callistoNtB7_4ArgsNtNtCs3Qx1quphLfk_12clap_builder6derive14FromArgMatches20from_arg_matches_muts0_0B7_
FNDA:0,_RNCNvXs0_Csj2r3Yn2CUPB_8callistoNtB7_4ArgsNtNtCs3Qx1quphLfk_12clap_builder6derive14FromArgMatches20from_arg_matches_muts1_0B7_
FNDA:0,_RNCNvXs0_Csj2r3Yn2CUPB_8callistoNtB7_4ArgsNtNtCs3Qx1quphLfk_12clap_builder6derive14FromArgMatches20from_arg_matches_muts2_0B7_
FNDA:0,_RNCNvXs0_Csj2r3Yn2CUPB_8callistoNtB7_4ArgsNtNtCs3Qx1quphLfk_12clap_builder6derive14FromArgMatches20from_arg_matches_muts3_0B7_
FNDA:20,_RNCNvXs1_Csj2r3Yn2CUPB_8callistoNtB7_4ArgsNtNtCs3Qx1quphLfk_12clap_builder6derive4Args12augment_args0B7_
FNDA:20,_RNCNCNvCsj2r3Yn2CUPB_8callisto4main00B5_
FNDA:1,_RNCNCNCNvCsj2r3Yn2CUPB_8callisto4main000B7_
FNDA:0,_RNCNCNCNvCsj2r3Yn2CUPB_8callisto4main00s_0B7_
FNDA:16,_RNCNCNCNvCsj2r3Yn2CUPB_8callisto4main00s0_0B7_
FNDA:48,_RNCNCNCNvCsj2r3Yn2CUPB_8callisto4main00s1_0B7_
FNDA:82,_RNCNCNCNCNvCsj2r3Yn2CUPB_8callisto4main00s1_00B9_
FNDA:0,_RNCNvXs0_Csj2r3Yn2CUPB_8callistoNtB7_4ArgsNtNtCs3Qx1quphLfk_12clap_builder6derive14FromArgMatches27update_from_arg_matches_mut0B7_
FNDA:0,_RNCNvXs0_Csj2r3Yn2CUPB_8callistoNtB7_4ArgsNtNtCs3Qx1quphLfk_12clap_builder6derive14FromArgMatches27update_from_arg_matches_muts_0B7_
FNDA:0,_RNCNvXs0_Csj2r3Yn2CUPB_8callistoNtB7_4ArgsNtNtCs3Qx1quphLfk_12clap_builder6derive14FromArgMatches27update_from_arg_matches_muts0_0B7_
FNDA:0,_RNCNvXs0_Csj2r3Yn2CUPB_8callistoNtB7_4ArgsNtNtCs3Qx1quphLfk_12clap_builder6derive14FromArgMatches27update_from_arg_matches_muts1_0B7_
FNDA:0,_RNCNvXs0_Csj2r3Yn2CUPB_8callistoNtB7_4ArgsNtNtCs3Qx1quphLfk_12clap_builder6derive14FromArgMatches27update_from_arg_matches_muts2_0B7_
FNDA:0,_RNCNvXs0_Csj2r3Yn2CUPB_8callistoNtB7_4ArgsNtNtCs3Qx1quphLfk_12clap_builder6derive14FromArgMatches27update_from_arg_matches_muts3_0B7_
FNDA:0,_RNCNvXs1_Csj2r3Yn2CUPB_8callistoNtB7_4ArgsNtNtCs3Qx1quphLfk_12clap_builder6derive4Args23augment_args_for_update0B7_
FNDA:0,_RNCNvXs0_CsfUXJPqfUWtP_8callistoNtB7_4ArgsNtNtCs3Qx1quphLfk_12clap_builder6derive14FromArgMatches20from_arg_matches_mut0B7_
FNDA:0,_RNCNvXs0_CsfUXJPqfUWtP_8callistoNtB7_4ArgsNtNtCs3Qx1quphLfk_12clap_builder6derive14FromArgMatches20from_arg_matches_muts_0B7_
FNDA:0,_RNCNvXs0_CsfUXJPqfUWtP_8callistoNtB7_4ArgsNtNtCs3Qx1quphLfk_12clap_builder6derive14FromArgMatches20from_arg_matches_muts0_0B7_
FNDA:0,_RNCNvXs0_CsfUXJPqfUWtP_8callistoNtB7_4ArgsNtNtCs3Qx1quphLfk_12clap_builder6derive14FromArgMatches20from_arg_matches_muts1_0B7_
FNDA:0,_RNCNvXs0_CsfUXJPqfUWtP_8callistoNtB7_4ArgsNtNtCs3Qx1quphLfk_12clap_builder6derive14FromArgMatches20from_arg_matches_muts2_0B7_
FNDA:0,_RNCNvXs0_CsfUXJPqfUWtP_8callistoNtB7_4ArgsNtNtCs3Qx1quphLfk_12clap_builder6derive14FromArgMatches20from_arg_matches_muts3_0B7_
FNDA:0,_RNCNvXs0_CsfUXJPqfUWtP_8callistoNtB7_4ArgsNtNtCs3Qx1quphLfk_12clap_builder6derive14FromArgMatches27update_from_arg_matches_mut0B7_
FNDA:0,_RNCNvXs0_CsfUXJPqfUWtP_8callistoNtB7_4ArgsNtNtCs3Qx1quphLfk_12clap_builder6derive14FromArgMatches27update_from_arg_matches_muts_0B7_
FNDA:0,_RNCNvXs0_CsfUXJPqfUWtP_8callistoNtB7_4ArgsNtNtCs3Qx1quphLfk_12clap_builder6derive14FromArgMatches27update_from_arg_matches_muts0_0B7_
FNDA:0,_RNCNvXs0_CsfUXJPqfUWtP_8callistoNtB7_4ArgsNtNtCs3Qx1quphLfk_12clap_builder6derive14FromArgMatches27update_from_arg_matches_muts1_0B7_
FNDA:0,_RNCNvXs0_CsfUXJPqfUWtP_8callistoNtB7_4ArgsNtNtCs3Qx1quphLfk_12clap_builder6derive14FromArgMatches27update_from_arg_matches_muts2_0B7_
FNDA:0,_RNCNvXs0_CsfUXJPqfUWtP_8callistoNtB7_4ArgsNtNtCs3Qx1quphLfk_12clap_builder6derive14FromArgMatches27update_from_arg_matches_muts3_0B7_
FNDA:0,_RNCNvXs1_CsfUXJPqfUWtP_8callistoNtB7_4ArgsNtNtCs3Qx1quphLfk_12clap_builder6derive4Args12augment_args0B7_
FNDA:0,_RNCNvXs1_CsfUXJPqfUWtP_8callistoNtB7_4ArgsNtNtCs3Qx1quphLfk_12clap_builder6derive4Args23augment_args_for_update0B7_
FNDA:0,_RNCNCNvCsfUXJPqfUWtP_8callisto4main00B5_
FNDA:0,_RNCNCNCNvCsfUXJPqfUWtP_8callisto4main000B7_
FNDA:0,_RNCNCNCNvCsfUXJPqfUWtP_8callisto4main00s_0B7_
FNDA:0,_RNCNCNCNvCsfUXJPqfUWtP_8callisto4main00s0_0B7_
FNDA:0,_RNCNCNCNvCsfUXJPqfUWtP_8callisto4main00s1_0B7_
FNDA:0,_RNCNCNCNCNvCsfUXJPqfUWtP_8callisto4main00s1_00B9_
FNF:13
FNH:6
DA:32,20
DA:33,0
DA:41,0
DA:45,0
DA:49,0
DA:53,0
DA:57,0
DA:62,20
DA:63,20
DA:64,20
DA:65,20
DA:66,20
DA:67,20
DA:69,20
DA:70,20
DA:71,20
DA:72,20
DA:73,16
DA:75,4
DA:76,0
DA:81,20
DA:82,20
DA:83,18
DA:84,1
DA:85,1
DA:86,1
DA:87,1
DA:88,18
DA:89,18
DA:90,18
DA:92,18
DA:93,18
DA:94,18
DA:97,18
DA:98,16
DA:99,16
DA:100,16
DA:101,16
DA:102,16
DA:103,16
DA:104,16
DA:106,2
DA:107,2
DA:108,2
DA:109,2
DA:110,2
DA:111,2
DA:112,2
DA:115,17
DA:116,17
DA:117,17
DA:119,17
DA:120,1
DA:121,1
DA:122,1
DA:124,16
DA:127,17
DA:128,0
DA:129,0
DA:132,17
DA:134,17
DA:135,16
DA:136,16
DA:137,16
DA:138,16
DA:139,16
DA:140,16
DA:141,16
DA:142,0
DA:143,0
DA:144,16
DA:145,16
DA:146,16
DA:147,16
DA:150,17
DA:154,64
DA:158,48
DA:159,48
DA:160,48
DA:161,48
DA:162,48
DA:163,48
DA:164,48
DA:165,82
DA:168,48
DA:169,48
DA:170,0
DA:171,16
DA:172,48
BRF:0
BRH:0
LF:95
LH:82
end_of_record
SF:/Users/dan/dev/callisto/callisto/src/missile.rs
FN:22,_RINvXNvXs0_NvXNvNtCskkwNnPUyuBS_8callisto7missiles_1__NtBe_7MissileNtNtCs8pDKiTx8cJZ_5serde2de11Deserialize11deserializeNtB9_9___VisitorNtB15_7Visitor9visit_mapNtB3_17___DeserializeWithB13_11deserializeQINtNtCse3EK68OXEkC_10serde_json2de12DeserializerNtNtB3k_4read9SliceReadEECsj2r3Yn2CUPB_8callisto
FN:22,_RINvXNvXs0_NvXNvNtCskkwNnPUyuBS_8callisto7missiles_1__NtBe_7MissileNtNtCs8pDKiTx8cJZ_5serde2de11Deserialize11deserializeNtB9_9___VisitorNtB15_7Visitor9visit_seqNtB3_17___DeserializeWithB13_11deserializeQINtNtCse3EK68OXEkC_10serde_json2de12DeserializerNtNtB3k_4read9SliceReadEECsj2r3Yn2CUPB_8callisto
FN:22,_RINvXs0_NvXNvNtCskkwNnPUyuBS_8callisto7missiles_1__NtBb_7MissileNtNtCs8pDKiTx8cJZ_5serde2de11Deserialize11deserializeNtB6_9___VisitorNtB12_7Visitor9visit_mapINtNtCse3EK68OXEkC_10serde_json2de9MapAccessNtNtB2A_4read9SliceReadEECsj2r3Yn2CUPB_8callisto
FN:22,_RINvXs0_NvXNvNtCskkwNnPUyuBS_8callisto7missiles_1__NtBb_7MissileNtNtCs8pDKiTx8cJZ_5serde2de11Deserialize11deserializeNtB6_9___VisitorNtB12_7Visitor9visit_seqINtNtCse3EK68OXEkC_10serde_json2de9SeqAccessNtNtB2A_4read9SliceReadEECsj2r3Yn2CUPB_8callisto
FN:22,_RINvXs0_NvXs0_NvXNvNtCskkwNnPUyuBS_8callisto7missiles_1__NtBh_7MissileNtNtCs8pDKiTx8cJZ_5serde2de11Deserialize11deserializeNtBc_9___VisitorNtB18_7Visitor9visit_mapNtB6_s0_17___DeserializeWithB16_11deserializeQINtNtCse3EK68OXEkC_10serde_json2de12DeserializerNtNtB3q_4read9SliceReadEECsj2r3Yn2CUPB_8callisto
FN:22,_RINvXs0_NvXs0_NvXNvNtCskkwNnPUyuBS_8callisto7missiles_1__NtBh_7MissileNtNtCs8pDKiTx8cJZ_5serde2de11Deserialize11deserializeNtBc_9___VisitorNtB18_7Visitor9visit_seqNtB6_s0_17___DeserializeWithB16_11deserializeQINtNtCse3EK68OXEkC_10serde_json2de12DeserializerNtNtB3q_4read9SliceReadEECsj2r3Yn2CUPB_8callisto
FN:22,_RINvXs_NvXNvNtCskkwNnPUyuBS_8callisto7missiles_1__NtBa_7MissileNtNtCs8pDKiTx8cJZ_5serde2de11Deserialize11deserializeNtB5_7___FieldBZ_11deserializeINtNtCse3EK68OXEkC_10serde_json2de6MapKeyNtNtB2p_4read9SliceReadEECsj2r3Yn2CUPB_8callisto
FN:22,_RINvXs_NvXs0_NvXNvNtCskkwNnPUyuBS_8callisto7missiles_1__NtBg_7MissileNtNtCs8pDKiTx8cJZ_5serde2de11Deserialize11deserializeNtBb_9___VisitorNtB17_7Visitor9visit_mapNtB5_s_17___DeserializeWithB15_11deserializeQINtNtCse3EK68OXEkC_10serde_json2de12DeserializerNtNtB3o_4read9SliceReadEECsj2r3Yn2CUPB_8callisto
FN:22,_RINvXs_NvXs0_NvXNvNtCskkwNnPUyuBS_8callisto7missiles_1__NtBg_7MissileNtNtCs8pDKiTx8cJZ_5serde2de11Deserialize11deserializeNtBb_9___VisitorNtB17_7Visitor9visit_seqNtB5_s_17___DeserializeWithB15_11deserializeQINtNtCse3EK68OXEkC_10serde_json2de12DeserializerNtNtB3o_4read9SliceReadEECsj2r3Yn2CUPB_8callisto
FN:22,_RNCINvXs0_NvXNvNtCskkwNnPUyuBS_8callisto7missiles_1__NtBd_7MissileNtNtCs8pDKiTx8cJZ_5serde2de11Deserialize11deserializeNtB8_9___VisitorNtB14_7Visitor9visit_seqINtNtCse3EK68OXEkC_10serde_json2de9SeqAccessNtNtB2C_4read9SliceReadEE0Csj2r3Yn2CUPB_8callisto
FN:22,_RNCINvXs0_NvXNvNtCskkwNnPUyuBS_8callisto7missiles_1__NtBd_7MissileNtNtCs8pDKiTx8cJZ_5serde2de11Deserialize11deserializeNtB8_9___VisitorNtB14_7Visitor9visit_seqINtNtCse3EK68OXEkC_10serde_json2de9SeqAccessNtNtB2C_4read9SliceReadEEs0_0Csj2r3Yn2CUPB_8callisto
FN:22,_RNCINvXs0_NvXNvNtCskkwNnPUyuBS_8callisto7missiles_1__NtBd_7MissileNtNtCs8pDKiTx8cJZ_5serde2de11Deserialize11deserializeNtB8_9___VisitorNtB14_7Visitor9visit_seqINtNtCse3EK68OXEkC_10serde_json2de9SeqAccessNtNtB2C_4read9SliceReadEEs_0Csj2r3Yn2CUPB_8callisto
FN:22,_RINvXNvXNvNtCskkwNnPUyuBS_8callisto7missile1__NtB8_7MissileNtNtCs8pDKiTx8cJZ_5serde3ser9Serialize9serializeNtB3_15___SerializeWithBV_9serializeQINtNtCse3EK68OXEkC_10serde_json3ser10SerializerQINtNtCsdze8u8oDPro_5alloc3vec3VechEEEBa_
FN:22,_RINvXs_NvXNvNtCskkwNnPUyuBS_8callisto7missile1__NtBa_7MissileNtNtCs8pDKiTx8cJZ_5serde3ser9Serialize9serializeNtB5_s_15___SerializeWithBX_9serializeQINtNtCse3EK68OXEkC_10serde_json3ser10SerializerQINtNtCsdze8u8oDPro_5alloc3vec3VechEEEBc_
FN:22,_RINvXs0_NvXNvNtCskkwNnPUyuBS_8callisto7missile1__NtBb_7MissileNtNtCs8pDKiTx8cJZ_5serde3ser9Serialize9serializeNtB6_s0_15___SerializeWithBY_9serializeQINtNtCse3EK68OXEkC_10serde_json3ser10SerializerQINtNtCsdze8u8oDPro_5alloc3vec3VechEEEBd_
FN:22,_RINvXNvXNvNtCskkwNnPUyuBS_8callisto7missiles_1__NtB8_7MissileNtNtCs8pDKiTx8cJZ_5serde2de11Deserialize11deserializeNtB3_14___FieldVisitorNtBZ_7Visitor9visit_strNtNtCse3EK68OXEkC_10serde_json5error5ErrorEBa_
FN:22,_RINvXs_NvXNvNtCskkwNnPUyuBS_8callisto7missiles_1__NtBa_7MissileNtNtCs8pDKiTx8cJZ_5serde2de11Deserialize11deserializeNtB5_7___FieldBZ_11deserializeINtNtCse3EK68OXEkC_10serde_json2de6MapKeyNtNtB2p_4read7StrReadEEBc_
FN:22,_RINvXs0_NvXNvNtCskkwNnPUyuBS_8callisto7missiles_1__NtBb_7MissileNtNtCs8pDKiTx8cJZ_5serde2de11Deserialize11deserializeNtB6_9___VisitorNtB12_7Visitor9visit_seqINtNtCse3EK68OXEkC_10serde_json2de9SeqAccessNtNtB2A_4read7StrReadEEBd_
FN:22,_RINvXNvXs0_NvXNvNtCskkwNnPUyuBS_8callisto7missiles_1__NtBe_7MissileNtNtCs8pDKiTx8cJZ_5serde2de11Deserialize11deserializeNtB9_9___VisitorNtB15_7Visitor9visit_seqNtB3_17___DeserializeWithB13_11deserializeQINtNtCse3EK68OXEkC_10serde_json2de12DeserializerNtNtB3k_4read7StrReadEEBg_
FN:22,_RNCINvXs0_NvXNvNtCskkwNnPUyuBS_8callisto7missiles_1__NtBd_7MissileNtNtCs8pDKiTx8cJZ_5serde2de11Deserialize11deserializeNtB8_9___VisitorNtB14_7Visitor9visit_seqINtNtCse3EK68OXEkC_10serde_json2de9SeqAccessNtNtB2C_4read7StrReadEE0Bf_
FN:22,_RINvXs_NvXs0_NvXNvNtCskkwNnPUyuBS_8callisto7missiles_1__NtBg_7MissileNtNtCs8pDKiTx8cJZ_5serde2de11Deserialize11deserializeNtBb_9___VisitorNtB17_7Visitor9visit_seqNtB5_s_17___DeserializeWithB15_11deserializeQINtNtCse3EK68OXEkC_10serde_json2de12DeserializerNtNtB3o_4read7StrReadEEBi_
FN:22,_RNCINvXs0_NvXNvNtCskkwNnPUyuBS_8callisto7missiles_1__NtBd_7MissileNtNtCs8pDKiTx8cJZ_5serde2de11Deserialize11deserializeNtB8_9___VisitorNtB14_7Visitor9visit_seqINtNtCse3EK68OXEkC_10serde_json2de9SeqAccessNtNtB2C_4read7StrReadEEs_0Bf_
FN:22,_RINvXs0_NvXs0_NvXNvNtCskkwNnPUyuBS_8callisto7missiles_1__NtBh_7MissileNtNtCs8pDKiTx8cJZ_5serde2de11Deserialize11deserializeNtBc_9___VisitorNtB18_7Visitor9visit_seqNtB6_s0_17___DeserializeWithB16_11deserializeQINtNtCse3EK68OXEkC_10serde_json2de12DeserializerNtNtB3q_4read7StrReadEEBj_
FN:22,_RNCINvXs0_NvXNvNtCskkwNnPUyuBS_8callisto7missiles_1__NtBd_7MissileNtNtCs8pDKiTx8cJZ_5serde2de11Deserialize11deserializeNtB8_9___VisitorNtB14_7Visitor9visit_seqINtNtCse3EK68OXEkC_10serde_json2de9SeqAccessNtNtB2C_4read7StrReadEEs0_0Bf_
FN:22,_RINvXs0_NvXNvNtCskkwNnPUyuBS_8callisto7missiles_1__NtBb_7MissileNtNtCs8pDKiTx8cJZ_5serde2de11Deserialize11deserializeNtB6_9___VisitorNtB12_7Visitor9visit_mapINtNtCse3EK68OXEkC_10serde_json2de9MapAccessNtNtB2A_4read7StrReadEEBd_
FN:22,_RINvXNvXs0_NvXNvNtCskkwNnPUyuBS_8callisto7missiles_1__NtBe_7MissileNtNtCs8pDKiTx8cJZ_5serde2de11Deserialize11deserializeNtB9_9___VisitorNtB15_7Visitor9visit_mapNtB3_17___DeserializeWithB13_11deserializeQINtNtCse3EK68OXEkC_10serde_json2de12DeserializerNtNtB3k_4read7StrReadEEBg_
FN:22,_RINvXs_NvXs0_NvXNvNtCskkwNnPUyuBS_8callisto7missiles_1__NtBg_7MissileNtNtCs8pDKiTx8cJZ_5serde2de11Deserialize11deserializeNtBb_9___VisitorNtB17_7Visitor9visit_mapNtB5_s_17___DeserializeWithB15_11deserializeQINtNtCse3EK68OXEkC_10serde_json2de12DeserializerNtNtB3o_4read7StrReadEEBi_
FN:22,_RINvXs0_NvXs0_NvXNvNtCskkwNnPUyuBS_8callisto7missiles_1__NtBh_7MissileNtNtCs8pDKiTx8cJZ_5serde2de11Deserialize11deserializeNtBc_9___VisitorNtB18_7Visitor9visit_mapNtB6_s0_17___DeserializeWithB16_11deserializeQINtNtCse3EK68OXEkC_10serde_json2de12DeserializerNtNtB3q_4read7StrReadEEBj_
FN:22,_RINvXNvXNvNtCskkwNnPUyuBS_8callisto7missiles_1__NtB8_7MissileNtNtCs8pDKiTx8cJZ_5serde2de11Deserialize11deserializeNtB3_14___FieldVisitorNtBZ_7Visitor9visit_u64pEBa_
FN:22,_RINvXNvXNvNtCskkwNnPUyuBS_8callisto7missiles_1__NtB8_7MissileNtNtCs8pDKiTx8cJZ_5serde2de11Deserialize11deserializeNtB3_14___FieldVisitorNtBZ_7Visitor11visit_bytespEBa_
FN:41,_RNvMNtCskkwNnPUyuBS_8callisto7missileNtB2_7Missile3new
FN:88,_RNvXs_NtCskkwNnPUyuBS_8callisto7missileNtB4_7MissileNtNtB6_6entity6Entity8get_name
FN:92,_RNvXs_NtCskkwNnPUyuBS_8callisto7missileNtB4_7MissileNtNtB6_6entity6Entity8set_name
FN:96,_RNvXs_NtCskkwNnPUyuBS_8callisto7missileNtB4_7MissileNtNtB6_6entity6Entity12get_position
FN:100,_RNvXs_NtCskkwNnPUyuBS_8callisto7missileNtB4_7MissileNtNtB6_6entity6Entity12set_position
FN:104,_RNvXs_NtCskkwNnPUyuBS_8callisto7missileNtB4_7MissileNtNtB6_6entity6Entity12get_velocity
FN:108,_RNvXs_NtCskkwNnPUyuBS_8callisto7missileNtB4_7MissileNtNtB6_6entity6Entity12set_velocity
FN:112,_RNvXs_NtCskkwNnPUyuBS_8callisto7missileNtB4_7MissileNtNtB6_6entity6Entity6update
FN:19,_RNvXs0_NtCskkwNnPUyuBS_8callisto7missileNtB5_7MissileNtNtCs9f3LFPSIp77_4core3cmp9PartialEq2eq
FN:22,_RNvXNvXNvNtCskkwNnPUyuBS_8callisto7missiles_1__NtB7_7MissileNtNtCs8pDKiTx8cJZ_5serde2de11Deserialize11deserializeNtB2_14___FieldVisitorNtBY_7Visitor9expecting
FN:22,_RNvXs0_NvXNvNtCskkwNnPUyuBS_8callisto7missiles_1__NtBa_7MissileNtNtCs8pDKiTx8cJZ_5serde2de11Deserialize11deserializeNtB5_9___VisitorNtB11_7Visitor9expecting
FN:22,_RINvXNvXNvNtCscBGMVToPeRm_8callisto7missile1__NtB8_7MissileNtNtCs8pDKiTx8cJZ_5serde3ser9Serialize9serializeNtB3_15___SerializeWithBV_9serializeNtNtNtCse3EK68OXEkC_10serde_json5value3ser10SerializerEBa_
FN:22,_RINvXNvXNvNtCscBGMVToPeRm_8callisto7missile1__NtB8_7MissileNtNtCs8pDKiTx8cJZ_5serde3ser9Serialize9serializeNtB3_15___SerializeWithBV_9serializeQINtNtCse3EK68OXEkC_10serde_json3ser10SerializerQINtNtCsdze8u8oDPro_5alloc3vec3VechEEEBa_
FN:22,_RINvXs_NvXNvNtCscBGMVToPeRm_8callisto7missile1__NtBa_7MissileNtNtCs8pDKiTx8cJZ_5serde3ser9Serialize9serializeNtB5_s_15___SerializeWithBX_9serializeNtNtNtCse3EK68OXEkC_10serde_json5value3ser10SerializerEBc_
FN:22,_RINvXs_NvXNvNtCscBGMVToPeRm_8callisto7missile1__NtBa_7MissileNtNtCs8pDKiTx8cJZ_5serde3ser9Serialize9serializeNtB5_s_15___SerializeWithBX_9serializeQINtNtCse3EK68OXEkC_10serde_json3ser10SerializerQINtNtCsdze8u8oDPro_5alloc3vec3VechEEEBc_
FN:22,_RINvXs0_NvXNvNtCscBGMVToPeRm_8callisto7missile1__NtBb_7MissileNtNtCs8pDKiTx8cJZ_5serde3ser9Serialize9serializeNtB6_s0_15___SerializeWithBY_9serializeNtNtNtCse3EK68OXEkC_10serde_json5value3ser10SerializerEBd_
FN:22,_RINvXs0_NvXNvNtCscBGMVToPeRm_8callisto7missile1__NtBb_7MissileNtNtCs8pDKiTx8cJZ_5serde3ser9Serialize9serializeNtB6_s0_15___SerializeWithBY_9serializeQINtNtCse3EK68OXEkC_10serde_json3ser10SerializerQINtNtCsdze8u8oDPro_5alloc3vec3VechEEEBd_
FN:22,_RINvXNvXNvNtCscBGMVToPeRm_8callisto7missiles_1__NtB8_7MissileNtNtCs8pDKiTx8cJZ_5serde2de11Deserialize11deserializeNtB3_14___FieldVisitorNtBZ_7Visitor9visit_strNtNtCse3EK68OXEkC_10serde_json5error5ErrorEBa_
FN:22,_RINvXs_NvXNvNtCscBGMVToPeRm_8callisto7missiles_1__NtBa_7MissileNtNtCs8pDKiTx8cJZ_5serde2de11Deserialize11deserializeNtB5_7___FieldBZ_11deserializeINtNtCse3EK68OXEkC_10serde_json2de6MapKeyNtNtB2p_4read7StrReadEEBc_
FN:22,_RINvXs_NvXNvNtCscBGMVToPeRm_8callisto7missiles_1__NtBa_7MissileNtNtCs8pDKiTx8cJZ_5serde2de11Deserialize11deserializeNtB5_7___FieldBZ_11deserializeINtNtCse3EK68OXEkC_10serde_json2de6MapKeyNtNtB2p_4read9SliceReadEEBc_
FN:22,_RINvXs_NvXNvNtCscBGMVToPeRm_8callisto7missiles_1__NtBa_7MissileNtNtCs8pDKiTx8cJZ_5serde2de11Deserialize11deserializeNtB5_7___FieldBZ_11deserializeNtNtNtCse3EK68OXEkC_10serde_json5value2de18MapKeyDeserializerEBc_
FN:22,_RINvXs0_NvXNvNtCscBGMVToPeRm_8callisto7missiles_1__NtBb_7MissileNtNtCs8pDKiTx8cJZ_5serde2de11Deserialize11deserializeNtB6_9___VisitorNtB12_7Visitor9visit_seqINtNtCse3EK68OXEkC_10serde_json2de9SeqAccessNtNtB2A_4read7StrReadEEBd_
FN:22,_RINvXs0_NvXNvNtCscBGMVToPeRm_8callisto7missiles_1__NtBb_7MissileNtNtCs8pDKiTx8cJZ_5serde2de11Deserialize11deserializeNtB6_9___VisitorNtB12_7Visitor9visit_seqINtNtCse3EK68OXEkC_10serde_json2de9SeqAccessNtNtB2A_4read9SliceReadEEBd_
FN:22,_RINvXs0_NvXNvNtCscBGMVToPeRm_8callisto7missiles_1__NtBb_7MissileNtNtCs8pDKiTx8cJZ_5serde2de11Deserialize11deserializeNtB6_9___VisitorNtB12_7Visitor9visit_seqQNtNtNtCse3EK68OXEkC_10serde_json5value2de15SeqDeserializerEBd_
FN:22,_RINvXNvXs0_NvXNvNtCscBGMVToPeRm_8callisto7missiles_1__NtBe_7MissileNtNtCs8pDKiTx8cJZ_5serde2de11Deserialize11deserializeNtB9_9___VisitorNtB15_7Visitor9visit_seqNtB3_17___DeserializeWithB13_11deserializeNtNtCse3EK68OXEkC_10serde_json5value5ValueEBg_
FN:22,_RINvXNvXs0_NvXNvNtCscBGMVToPeRm_8callisto7missiles_1__NtBe_7MissileNtNtCs8pDKiTx8cJZ_5serde2de11Deserialize11deserializeNtB9_9___VisitorNtB15_7Visitor9visit_seqNtB3_17___DeserializeWithB13_11deserializeQINtNtCse3EK68OXEkC_10serde_json2de12DeserializerNtNtB3k_4read7StrReadEEBg_
FN:22,_RINvXNvXs0_NvXNvNtCscBGMVToPeRm_8callisto7missiles_1__NtBe_7MissileNtNtCs8pDKiTx8cJZ_5serde2de11Deserialize11deserializeNtB9_9___VisitorNtB15_7Visitor9visit_seqNtB3_17___DeserializeWithB13_11deserializeQINtNtCse3EK68OXEkC_10serde_json2de12DeserializerNtNtB3k_4read9SliceReadEEBg_
FN:22,_RNCINvXs0_NvXNvNtCscBGMVToPeRm_8callisto7missiles_1__NtBd_7MissileNtNtCs8pDKiTx8cJZ_5serde2de11Deserialize11deserializeNtB8_9___VisitorNtB14_7Visitor9visit_seqINtNtCse3EK68OXEkC_10serde_json2de9SeqAccessNtNtB2C_4read7StrReadEE0Bf_
FN:22,_RNCINvXs0_NvXNvNtCscBGMVToPeRm_8callisto7missiles_1__NtBd_7MissileNtNtCs8pDKiTx8cJZ_5serde2de11Deserialize11deserializeNtB8_9___VisitorNtB14_7Visitor9visit_seqINtNtCse3EK68OXEkC_10serde_json2de9SeqAccessNtNtB2C_4read9SliceReadEE0Bf_
FN:22,_RNCINvXs0_NvXNvNtCscBGMVToPeRm_8callisto7missiles_1__NtBd_7MissileNtNtCs8pDKiTx8cJZ_5serde2de11Deserialize11deserializeNtB8_9___VisitorNtB14_7Visitor9visit_seqQNtNtNtCse3EK68OXEkC_10serde_json5value2de15SeqDeserializerE0Bf_
FN:22,_RINvXs_NvXs0_NvXNvNtCscBGMVToPeRm_8callisto7missiles_1__NtBg_7MissileNtNtCs8pDKiTx8cJZ_5serde2de11Deserialize11deserializeNtBb_9___VisitorNtB17_7Visitor9visit_seqNtB5_s_17___DeserializeWithB15_11deserializeNtNtCse3EK68OXEkC_10serde_json5value5ValueEBi_
FN:22,_RINvXs_NvXs0_NvXNvNtCscBGMVToPeRm_8callisto7missiles_1__NtBg_7MissileNtNtCs8pDKiTx8cJZ_5serde2de11Deserialize11deserializeNtBb_9___VisitorNtB17_7Visitor9visit_seqNtB5_s_17___DeserializeWithB15_11deserializeQINtNtCse3EK68OXEkC_10serde_json2de12DeserializerNtNtB3o_4read7StrReadEEBi_
FN:22,_RINvXs_NvXs0_NvXNvNtCscBGMVToPeRm_8callisto7missiles_1__NtBg_7MissileNtNtCs8pDKiTx8cJZ_5serde2de11Deserialize11deserializeNtBb_9___VisitorNtB17_7Visitor9visit_seqNtB5_s_17___DeserializeWithB15_11deserializeQINtNtCse3EK68OXEkC_10serde_json2de12DeserializerNtNtB3o_4read9SliceReadEEBi_
FN:22,_RNCINvXs0_NvXNvNtCscBGMVToPeRm_8callisto7missiles_1__NtBd_7MissileNtNtCs8pDKiTx8cJZ_5serde2de11Deserialize11deserializeNtB8_9___VisitorNtB14_7Visitor9visit_seqINtNtCse3EK68OXEkC_10serde_json2de9SeqAccessNtNtB2C_4read7StrReadEEs_0Bf_
FN:22,_RNCINvXs0_NvXNvNtCscBGMVToPeRm_8callisto7missiles_1__NtBd_7MissileNtNtCs8pDKiTx8cJZ_5serde2de11Deserialize11deserializeNtB8_9___VisitorNtB14_7Visitor9visit_seqINtNtCse3EK68OXEkC_10serde_json2de9SeqAccessNtNtB2C_4read9SliceReadEEs_0Bf_
FN:22,_RNCINvXs0_NvXNvNtCscBGMVToPeRm_8callisto7missiles_1__NtBd_7MissileNtNtCs8pDKiTx8cJZ_5serde2de11Deserialize11deserializeNtB8_9___VisitorNtB14_7Visitor9visit_seqQNtNtNtCse3EK68OXEkC_10serde_json5value2de15SeqDeserializerEs_0Bf_
FN:22,_RINvXs0_NvXs0_NvXNvNtCscBGMVToPeRm_8callisto7missiles_1__NtBh_7MissileNtNtCs8pDKiTx8cJZ_5serde2de11Deserialize11deserializeNtBc_9___VisitorNtB18_7Visitor9visit_seqNtB6_s0_17___DeserializeWithB16_11deserializeNtNtCse3EK68OXEkC_10serde_json5value5ValueEBj_
FN:22,_RINvXs0_NvXs0_NvXNvNtCscBGMVToPeRm_8callisto7missiles_1__NtBh_7MissileNtNtCs8pDKiTx8cJZ_5serde2de11Deserialize11deserializeNtBc_9___VisitorNtB18_7Visitor9visit_seqNtB6_s0_17___DeserializeWithB16_11deserializeQINtNtCse3EK68OXEkC_10serde_json2de12DeserializerNtNtB3q_4read7StrReadEEBj_
FN:22,_RINvXs0_NvXs0_NvXNvNtCscBGMVToPeRm_8callisto7missiles_1__NtBh_7MissileNtNtCs8pDKiTx8cJZ_5serde2de11Deserialize11deserializeNtBc_9___VisitorNtB18_7Visitor9visit_seqNtB6_s0_17___DeserializeWithB16_11deserializeQINtNtCse3EK68OXEkC_10serde_json2de12DeserializerNtNtB3q_4read9SliceReadEEBj_
FN:22,_RNCINvXs0_NvXNvNtCscBGMVToPeRm_8callisto7missiles_1__NtBd_7MissileNtNtCs8pDKiTx8cJZ_5serde2de11Deserialize11deserializeNtB8_9___VisitorNtB14_7Visitor9visit_seqINtNtCse3EK68OXEkC_10serde_json2de9SeqAccessNtNtB2C_4read7StrReadEEs0_0Bf_
FN:22,_RNCINvXs0_NvXNvNtCscBGMVToPeRm_8callisto7missiles_1__NtBd_7MissileNtNtCs8pDKiTx8cJZ_5serde2de11Deserialize11deserializeNtB8_9___VisitorNtB14_7Visitor9visit_seqINtNtCse3EK68OXEkC_10serde_json2de9SeqAccessNtNtB2C_4read9SliceReadEEs0_0Bf_
FN:22,_RNCINvXs0_NvXNvNtCscBGMVToPeRm_8callisto7missiles_1__NtBd_7MissileNtNtCs8pDKiTx8cJZ_5serde2de11Deserialize11deserializeNtB8_9___VisitorNtB14_7Visitor9visit_seqQNtNtNtCse3EK68OXEkC_10serde_json5value2de15SeqDeserializerEs0_0Bf_
FN:22,_RINvXs0_NvXNvNtCscBGMVToPeRm_8callisto7missiles_1__NtBb_7MissileNtNtCs8pDKiTx8cJZ_5serde2de11Deserialize11deserializeNtB6_9___VisitorNtB12_7Visitor9visit_mapINtNtCse3EK68OXEkC_10serde_json2de9MapAccessNtNtB2A_4read7StrReadEEBd_
FN:22,_RINvXs0_NvXNvNtCscBGMVToPeRm_8callisto7missiles_1__NtBb_7MissileNtNtCs8pDKiTx8cJZ_5serde2de11Deserialize11deserializeNtB6_9___VisitorNtB12_7Visitor9visit_mapINtNtCse3EK68OXEkC_10serde_json2de9MapAccessNtNtB2A_4read9SliceReadEEBd_
FN:22,_RINvXs0_NvXNvNtCscBGMVToPeRm_8callisto7missiles_1__NtBb_7MissileNtNtCs8pDKiTx8cJZ_5serde2de11Deserialize11deserializeNtB6_9___VisitorNtB12_7Visitor9visit_mapQNtNtNtCse3EK68OXEkC_10serde_json5value2de15MapDeserializerEBd_
FN:22,_RINvXNvXs0_NvXNvNtCscBGMVToPeRm_8callisto7missiles_1__NtBe_7MissileNtNtCs8pDKiTx8cJZ_5serde2de11Deserialize11deserializeNtB9_9___VisitorNtB15_7Visitor9visit_mapNtB3_17___DeserializeWithB13_11deserializeNtNtCse3EK68OXEkC_10serde_json5value5ValueEBg_
FN:22,_RINvXNvXs0_NvXNvNtCscBGMVToPeRm_8callisto7missiles_1__NtBe_7MissileNtNtCs8pDKiTx8cJZ_5serde2de11Deserialize11deserializeNtB9_9___VisitorNtB15_7Visitor9visit_mapNtB3_17___DeserializeWithB13_11deserializeQINtNtCse3EK68OXEkC_10serde_json2de12DeserializerNtNtB3k_4read7StrReadEEBg_
FN:22,_RINvXNvXs0_NvXNvNtCscBGMVToPeRm_8callisto7missiles_1__NtBe_7MissileNtNtCs8pDKiTx8cJZ_5serde2de11Deserialize11deserializeNtB9_9___VisitorNtB15_7Visitor9visit_mapNtB3_17___DeserializeWithB13_11deserializeQINtNtCse3EK68OXEkC_10serde_json2de12DeserializerNtNtB3k_4read9SliceReadEEBg_
FN:22,_RINvXs_NvXs0_NvXNvNtCscBGMVToPeRm_8callisto7missiles_1__NtBg_7MissileNtNtCs8pDKiTx8cJZ_5serde2de11Deserialize11deserializeNtBb_9___VisitorNtB17_7Visitor9visit_mapNtB5_s_17___DeserializeWithB15_11deserializeNtNtCse3EK68OXEkC_10serde_json5value5ValueEBi_
FN:22,_RINvXs_NvXs0_NvXNvNtCscBGMVToPeRm_8callisto7missiles_1__NtBg_7MissileNtNtCs8pDKiTx8cJZ_5serde2de11Deserialize11deserializeNtBb_9___VisitorNtB17_7Visitor9visit_mapNtB5_s_17___DeserializeWithB15_11deserializeQINtNtCse3EK68OXEkC_10serde_json2de12DeserializerNtNtB3o_4read7StrReadEEBi_
FN:22,_RINvXs_NvXs0_NvXNvNtCscBGMVToPeRm_8callisto7missiles_1__NtBg_7MissileNtNtCs8pDKiTx8cJZ_5serde2de11Deserialize11deserializeNtBb_9___VisitorNtB17_7Visitor9visit_mapNtB5_s_17___DeserializeWithB15_11deserializeQINtNtCse3EK68OXEkC_10serde_json2de12DeserializerNtNtB3o_4read9SliceReadEEBi_
FN:22,_RINvXs0_NvXs0_NvXNvNtCscBGMVToPeRm_8callisto7missiles_1__NtBh_7MissileNtNtCs8pDKiTx8cJZ_5serde2de11Deserialize11deserializeNtBc_9___VisitorNtB18_7Visitor9visit_mapNtB6_s0_17___DeserializeWithB16_11deserializeNtNtCse3EK68OXEkC_10serde_json5value5ValueEBj_
FN:22,_RINvXs0_NvXs0_NvXNvNtCscBGMVToPeRm_8callisto7missiles_1__NtBh_7MissileNtNtCs8pDKiTx8cJZ_5serde2de11Deserialize11deserializeNtBc_9___VisitorNtB18_7Visitor9visit_mapNtB6_s0_17___DeserializeWithB16_11deserializeQINtNtCse3EK68OXEkC_10serde_json2de12DeserializerNtNtB3q_4read7StrReadEEBj_
FN:22,_RINvXs0_NvXs0_NvXNvNtCscBGMVToPeRm_8callisto7missiles_1__NtBh_7MissileNtNtCs8pDKiTx8cJZ_5serde2de11Deserialize11deserializeNtBc_9___VisitorNtB18_7Visitor9visit_mapNtB6_s0_17___DeserializeWithB16_11deserializeQINtNtCse3EK68OXEkC_10serde_json2de12DeserializerNtNtB3q_4read9SliceReadEEBj_
FN:22,_RNvXNvXNvNtCscBGMVToPeRm_8callisto7missiles_1__NtB7_7MissileNtNtCs8pDKiTx8cJZ_5serde2de11Deserialize11deserializeNtB2_14___FieldVisitorNtBY_7Visitor9expecting
FN:22,_RINvXNvXNvNtCscBGMVToPeRm_8callisto7missiles_1__NtB8_7MissileNtNtCs8pDKiTx8cJZ_5serde2de11Deserialize11deserializeNtB3_14___FieldVisitorNtBZ_7Visitor9visit_u64pEBa_
FN:22,_RINvXNvXNvNtCscBGMVToPeRm_8callisto7missiles_1__NtB8_7MissileNtNtCs8pDKiTx8cJZ_5serde2de11Deserialize11deserializeNtB3_14___FieldVisitorNtBZ_7Visitor11visit_bytespEBa_
FN:41,_RNvMNtCscBGMVToPeRm_8callisto7missileNtB2_7Missile3new
FN:88,_RNvXs_NtCscBGMVToPeRm_8callisto7missileNtB4_7MissileNtNtB6_6entity6Entity8get_name
FN:92,_RNvXs_NtCscBGMVToPeRm_8callisto7missileNtB4_7MissileNtNtB6_6entity6Entity8set_name
FN:96,_RNvXs_NtCscBGMVToPeRm_8callisto7missileNtB4_7MissileNtNtB6_6entity6Entity12get_position
FN:100,_RNvXs_NtCscBGMVToPeRm_8callisto7missileNtB4_7MissileNtNtB6_6entity6Entity12set_position
FN:104,_RNvXs_NtCscBGMVToPeRm_8callisto7missileNtB4_7MissileNtNtB6_6entity6Entity12get_velocity
FN:108,_RNvXs_NtCscBGMVToPeRm_8callisto7missileNtB4_7MissileNtNtB6_6entity6Entity12set_velocity
FN:112,_RNvXs_NtCscBGMVToPeRm_8callisto7missileNtB4_7MissileNtNtB6_6entity6Entity6update
FN:19,_RNvXs0_NtCscBGMVToPeRm_8callisto7missileNtB5_7MissileNtNtCs9f3LFPSIp77_4core3cmp9PartialEq2eq
FN:22,_RNvXs0_NvXNvNtCscBGMVToPeRm_8callisto7missiles_1__NtBa_7MissileNtNtCs8pDKiTx8cJZ_5serde2de11Deserialize11deserializeNtB5_9___VisitorNtB11_7Visitor9expecting
FN:215,_RNvNtNtCscBGMVToPeRm_8callisto7missile5testss_19test_missile_basics
FN:215,_RNvNtNvNtNtCscBGMVToPeRm_8callisto7missile5testss_19test_missile_basics4init4init
FN:22,_RINvXNvXNvNtCskkwNnPUyuBS_8callisto7missile1__NtB8_7MissileNtNtCs8pDKiTx8cJZ_5serde3ser9Serialize9serializeNtB3_15___SerializeWithBV_9serializeNtNtNtCse3EK68OXEkC_10serde_json5value3ser10SerializerECseGnTZYlWoAf_9webserver
FN:22,_RINvXs0_NvXNvNtCskkwNnPUyuBS_8callisto7missile1__NtBb_7MissileNtNtCs8pDKiTx8cJZ_5serde3ser9Serialize9serializeNtB6_s0_15___SerializeWithBY_9serializeNtNtNtCse3EK68OXEkC_10serde_json5value3ser10SerializerECseGnTZYlWoAf_9webserver
FN:22,_RINvXs_NvXNvNtCskkwNnPUyuBS_8callisto7missile1__NtBa_7MissileNtNtCs8pDKiTx8cJZ_5serde3ser9Serialize9serializeNtB5_s_15___SerializeWithBX_9serializeNtNtNtCse3EK68OXEkC_10serde_json5value3ser10SerializerECseGnTZYlWoAf_9webserver
FNDA:0,_RINvXNvXs0_NvXNvNtCskkwNnPUyuBS_8callisto7missiles_1__NtBe_7MissileNtNtCs8pDKiTx8cJZ_5serde2de11Deserialize11deserializeNtB9_9___VisitorNtB15_7Visitor9visit_mapNtB3_17___DeserializeWithB13_11deserializeQINtNtCse3EK68OXEkC_10serde_json2de12DeserializerNtNtB3k_4read9SliceReadEECsj2r3Yn2CUPB_8callisto
FNDA:0,_RINvXNvXs0_NvXNvNtCskkwNnPUyuBS_8callisto7missiles_1__NtBe_7MissileNtNtCs8pDKiTx8cJZ_5serde2de11Deserialize11deserializeNtB9_9___VisitorNtB15_7Visitor9visit_seqNtB3_17___DeserializeWithB13_11deserializeQINtNtCse3EK68OXEkC_10serde_json2de12DeserializerNtNtB3k_4read9SliceReadEECsj2r3Yn2CUPB_8callisto
FNDA:0,_RINvXs0_NvXNvNtCskkwNnPUyuBS_8callisto7missiles_1__NtBb_7MissileNtNtCs8pDKiTx8cJZ_5serde2de11Deserialize11deserializeNtB6_9___VisitorNtB12_7Visitor9visit_mapINtNtCse3EK68OXEkC_10serde_json2de9MapAccessNtNtB2A_4read9SliceReadEECsj2r3Yn2CUPB_8callisto
FNDA:0,_RINvXs0_NvXNvNtCskkwNnPUyuBS_8callisto7missiles_1__NtBb_7MissileNtNtCs8pDKiTx8cJZ_5serde2de11Deserialize11deserializeNtB6_9___VisitorNtB12_7Visitor9visit_seqINtNtCse3EK68OXEkC_10serde_json2de9SeqAccessNtNtB2A_4read9SliceReadEECsj2r3Yn2CUPB_8callisto
FNDA:0,_RINvXs0_NvXs0_NvXNvNtCskkwNnPUyuBS_8callisto7missiles_1__NtBh_7MissileNtNtCs8pDKiTx8cJZ_5serde2de11Deserialize11deserializeNtBc_9___VisitorNtB18_7Visitor9visit_mapNtB6_s0_17___DeserializeWithB16_11deserializeQINtNtCse3EK68OXEkC_10serde_json2de12DeserializerNtNtB3q_4read9SliceReadEECsj2r3Yn2CUPB_8callisto
FNDA:0,_RINvXs0_NvXs0_NvXNvNtCskkwNnPUyuBS_8callisto7missiles_1__NtBh_7MissileNtNtCs8pDKiTx8cJZ_5serde2de11Deserialize11deserializeNtBc_9___VisitorNtB18_7Visitor9visit_seqNtB6_s0_17___DeserializeWithB16_11deserializeQINtNtCse3EK68OXEkC_10serde_json2de12DeserializerNtNtB3q_4read9SliceReadEECsj2r3Yn2CUPB_8callisto
FNDA:0,_RINvXs_NvXNvNtCskkwNnPUyuBS_8callisto7missiles_1__NtBa_7MissileNtNtCs8pDKiTx8cJZ_5serde2de11Deserialize11deserializeNtB5_7___FieldBZ_11deserializeINtNtCse3EK68OXEkC_10serde_json2de6MapKeyNtNtB2p_4read9SliceReadEECsj2r3Yn2CUPB_8callisto
FNDA:0,_RINvXs_NvXs0_NvXNvNtCskkwNnPUyuBS_8callisto7missiles_1__NtBg_7MissileNtNtCs8pDKiTx8cJZ_5serde2de11Deserialize11deserializeNtBb_9___VisitorNtB17_7Visitor9visit_mapNtB5_s_17___DeserializeWithB15_11deserializeQINtNtCse3EK68OXEkC_10serde_json2de12DeserializerNtNtB3o_4read9SliceReadEECsj2r3Yn2CUPB_8callisto
FNDA:0,_RINvXs_NvXs0_NvXNvNtCskkwNnPUyuBS_8callisto7missiles_1__NtBg_7MissileNtNtCs8pDKiTx8cJZ_5serde2de11Deserialize11deserializeNtBb_9___VisitorNtB17_7Visitor9visit_seqNtB5_s_17___DeserializeWithB15_11deserializeQINtNtCse3EK68OXEkC_10serde_json2de12DeserializerNtNtB3o_4read9SliceReadEECsj2r3Yn2CUPB_8callisto
FNDA:0,_RNCINvXs0_NvXNvNtCskkwNnPUyuBS_8callisto7missiles_1__NtBd_7MissileNtNtCs8pDKiTx8cJZ_5serde2de11Deserialize11deserializeNtB8_9___VisitorNtB14_7Visitor9visit_seqINtNtCse3EK68OXEkC_10serde_json2de9SeqAccessNtNtB2C_4read9SliceReadEE0Csj2r3Yn2CUPB_8callisto
FNDA:0,_RNCINvXs0_NvXNvNtCskkwNnPUyuBS_8callisto7missiles_1__NtBd_7MissileNtNtCs8pDKiTx8cJZ_5serde2de11Deserialize11deserializeNtB8_9___VisitorNtB14_7Visitor9visit_seqINtNtCse3EK68OXEkC_10serde_json2de9SeqAccessNtNtB2C_4read9SliceReadEEs0_0Csj2r3Yn2CUPB_8callisto
FNDA:0,_RNCINvXs0_NvXNvNtCskkwNnPUyuBS_8callisto7missiles_1__NtBd_7MissileNtNtCs8pDKiTx8cJZ_5serde2de11Deserialize11deserializeNtB8_9___VisitorNtB14_7Visitor9visit_seqINtNtCse3EK68OXEkC_10serde_json2de9SeqAccessNtNtB2C_4read9SliceReadEEs_0Csj2r3Yn2CUPB_8callisto
FNDA:0,_RINvXNvXNvNtCskkwNnPUyuBS_8callisto7missile1__NtB8_7MissileNtNtCs8pDKiTx8cJZ_5serde3ser9Serialize9serializeNtB3_15___SerializeWithBV_9serializeQINtNtCse3EK68OXEkC_10serde_json3ser10SerializerQINtNtCsdze8u8oDPro_5alloc3vec3VechEEEBa_
FNDA:0,_RINvXs_NvXNvNtCskkwNnPUyuBS_8callisto7missile1__NtBa_7MissileNtNtCs8pDKiTx8cJZ_5serde3ser9Serialize9serializeNtB5_s_15___SerializeWithBX_9serializeQINtNtCse3EK68OXEkC_10serde_json3ser10SerializerQINtNtCsdze8u8oDPro_5alloc3vec3VechEEEBc_
FNDA:0,_RINvXs0_NvXNvNtCskkwNnPUyuBS_8callisto7missile1__NtBb_7MissileNtNtCs8pDKiTx8cJZ_5serde3ser9Serialize9serializeNtB6_s0_15___SerializeWithBY_9serializeQINtNtCse3EK68OXEkC_10serde_json3ser10SerializerQINtNtCsdze8u8oDPro_5alloc3vec3VechEEEBd_
FNDA:0,_RINvXNvXNvNtCskkwNnPUyuBS_8callisto7missiles_1__NtB8_7MissileNtNtCs8pDKiTx8cJZ_5serde2de11Deserialize11deserializeNtB3_14___FieldVisitorNtBZ_7Visitor9visit_strNtNtCse3EK68OXEkC_10serde_json5error5ErrorEBa_
FNDA:0,_RINvXs_NvXNvNtCskkwNnPUyuBS_8callisto7missiles_1__NtBa_7MissileNtNtCs8pDKiTx8cJZ_5serde2de11Deserialize11deserializeNtB5_7___FieldBZ_11deserializeINtNtCse3EK68OXEkC_10serde_json2de6MapKeyNtNtB2p_4read7StrReadEEBc_
FNDA:0,_RINvXs0_NvXNvNtCskkwNnPUyuBS_8callisto7missiles_1__NtBb_7MissileNtNtCs8pDKiTx8cJZ_5serde2de11Deserialize11deserializeNtB6_9___VisitorNtB12_7Visitor9visit_seqINtNtCse3EK68OXEkC_10serde_json2de9SeqAccessNtNtB2A_4read7StrReadEEBd_
FNDA:0,_RINvXNvXs0_NvXNvNtCskkwNnPUyuBS_8callisto7missiles_1__NtBe_7MissileNtNtCs8pDKiTx8cJZ_5serde2de11Deserialize11deserializeNtB9_9___VisitorNtB15_7Visitor9visit_seqNtB3_17___DeserializeWithB13_11deserializeQINtNtCse3EK68OXEkC_10serde_json2de12DeserializerNtNtB3k_4read7StrReadEEBg_
FNDA:0,_RNCINvXs0_NvXNvNtCskkwNnPUyuBS_8callisto7missiles_1__NtBd_7MissileNtNtCs8pDKiTx8cJZ_5serde2de11Deserialize11deserializeNtB8_9___VisitorNtB14_7Visitor9visit_seqINtNtCse3EK68OXEkC_10serde_json2de9SeqAccessNtNtB2C_4read7StrReadEE0Bf_
FNDA:0,_RINvXs_NvXs0_NvXNvNtCskkwNnPUyuBS_8callisto7missiles_1__NtBg_7MissileNtNtCs8pDKiTx8cJZ_5serde2de11Deserialize11deserializeNtBb_9___VisitorNtB17_7Visitor9visit_seqNtB5_s_17___DeserializeWithB15_11deserializeQINtNtCse3EK68OXEkC_10serde_json2de12DeserializerNtNtB3o_4read7StrReadEEBi_
FNDA:0,_RNCINvXs0_NvXNvNtCskkwNnPUyuBS_8callisto7missiles_1__NtBd_7MissileNtNtCs8pDKiTx8cJZ_5serde2de11Deserialize11deserializeNtB8_9___VisitorNtB14_7Visitor9visit_seqINtNtCse3EK68OXEkC_10serde_json2de9SeqAccessNtNtB2C_4read7StrReadEEs_0Bf_
FNDA:0,_RINvXs0_NvXs0_NvXNvNtCskkwNnPUyuBS_8callisto7missiles_1__NtBh_7MissileNtNtCs8pDKiTx8cJZ_5serde2de11Deserialize11deserializeNtBc_9___VisitorNtB18_7Visitor9visit_seqNtB6_s0_17___DeserializeWithB16_11deserializeQINtNtCse3EK68OXEkC_10serde_json2de12DeserializerNtNtB3q_4read7StrReadEEBj_
FNDA:0,_RNCINvXs0_NvXNvNtCskkwNnPUyuBS_8callisto7missiles_1__NtBd_7MissileNtNtCs8pDKiTx8cJZ_5serde2de11Deserialize11deserializeNtB8_9___VisitorNtB14_7Visitor9visit_seqINtNtCse3EK68OXEkC_10serde_json2de9SeqAccessNtNtB2C_4read7StrReadEEs0_0Bf_
FNDA:0,_RINvXs0_NvXNvNtCskkwNnPUyuBS_8callisto7missiles_1__NtBb_7MissileNtNtCs8pDKiTx8cJZ_5serde2de11Deserialize11deserializeNtB6_9___VisitorNtB12_7Visitor9visit_mapINtNtCse3EK68OXEkC_10serde_json2de9MapAccessNtNtB2A_4read7StrReadEEBd_
FNDA:0,_RINvXNvXs0_NvXNvNtCskkwNnPUyuBS_8callisto7missiles_1__NtBe_7MissileNtNtCs8pDKiTx8cJZ_5serde2de11Deserialize11deserializeNtB9_9___VisitorNtB15_7Visitor9visit_mapNtB3_17___DeserializeWithB13_11deserializeQINtNtCse3EK68OXEkC_10serde_json2de12DeserializerNtNtB3k_4read7StrReadEEBg_
FNDA:0,_RINvXs_NvXs0_NvXNvNtCskkwNnPUyuBS_8callisto7missiles_1__NtBg_7MissileNtNtCs8pDKiTx8cJZ_5serde2de11Deserialize11deserializeNtBb_9___VisitorNtB17_7Visitor9visit_mapNtB5_s_17___DeserializeWithB15_11deserializeQINtNtCse3EK68OXEkC_10serde_json2de12DeserializerNtNtB3o_4read7StrReadEEBi_
FNDA:0,_RINvXs0_NvXs0_NvXNvNtCskkwNnPUyuBS_8callisto7missiles_1__NtBh_7MissileNtNtCs8pDKiTx8cJZ_5serde2de11Deserialize11deserializeNtBc_9___VisitorNtB18_7Visitor9visit_mapNtB6_s0_17___DeserializeWithB16_11deserializeQINtNtCse3EK68OXEkC_10serde_json2de12DeserializerNtNtB3q_4read7StrReadEEBj_
FNDA:0,_RINvXNvXNvNtCskkwNnPUyuBS_8callisto7missiles_1__NtB8_7MissileNtNtCs8pDKiTx8cJZ_5serde2de11Deserialize11deserializeNtB3_14___FieldVisitorNtBZ_7Visitor9visit_u64pEBa_
FNDA:0,_RINvXNvXNvNtCskkwNnPUyuBS_8callisto7missiles_1__NtB8_7MissileNtNtCs8pDKiTx8cJZ_5serde2de11Deserialize11deserializeNtB3_14___FieldVisitorNtBZ_7Visitor11visit_bytespEBa_
FNDA:3,_RNvMNtCskkwNnPUyuBS_8callisto7missileNtB2_7Missile3new
FNDA:9,_RNvXs_NtCskkwNnPUyuBS_8callisto7missileNtB4_7MissileNtNtB6_6entity6Entity8get_name
FNDA:0,_RNvXs_NtCskkwNnPUyuBS_8callisto7missileNtB4_7MissileNtNtB6_6entity6Entity8set_name
FNDA:3,_RNvXs_NtCskkwNnPUyuBS_8callisto7missileNtB4_7MissileNtNtB6_6entity6Entity12get_position
FNDA:0,_RNvXs_NtCskkwNnPUyuBS_8callisto7missileNtB4_7MissileNtNtB6_6entity6Entity12set_position
FNDA:0,_RNvXs_NtCskkwNnPUyuBS_8callisto7missileNtB4_7MissileNtNtB6_6entity6Entity12get_velocity
FNDA:0,_RNvXs_NtCskkwNnPUyuBS_8callisto7missileNtB4_7MissileNtNtB6_6entity6Entity12set_velocity
FNDA:3,_RNvXs_NtCskkwNnPUyuBS_8callisto7missileNtB4_7MissileNtNtB6_6entity6Entity6update
FNDA:0,_RNvXs0_NtCskkwNnPUyuBS_8callisto7missileNtB5_7MissileNtNtCs9f3LFPSIp77_4core3cmp9PartialEq2eq
FNDA:0,_RNvXNvXNvNtCskkwNnPUyuBS_8callisto7missiles_1__NtB7_7MissileNtNtCs8pDKiTx8cJZ_5serde2de11Deserialize11deserializeNtB2_14___FieldVisitorNtBY_7Visitor9expecting
FNDA:0,_RNvXs0_NvXNvNtCskkwNnPUyuBS_8callisto7missiles_1__NtBa_7MissileNtNtCs8pDKiTx8cJZ_5serde2de11Deserialize11deserializeNtB5_9___VisitorNtB11_7Visitor9expecting
FNDA:0,_RINvXNvXNvNtCscBGMVToPeRm_8callisto7missile1__NtB8_7MissileNtNtCs8pDKiTx8cJZ_5serde3ser9Serialize9serializeNtB3_15___SerializeWithBV_9serializeNtNtNtCse3EK68OXEkC_10serde_json5value3ser10SerializerEBa_
FNDA:4,_RINvXNvXNvNtCscBGMVToPeRm_8callisto7missile1__NtB8_7MissileNtNtCs8pDKiTx8cJZ_5serde3ser9Serialize9serializeNtB3_15___SerializeWithBV_9serializeQINtNtCse3EK68OXEkC_10serde_json3ser10SerializerQINtNtCsdze8u8oDPro_5alloc3vec3VechEEEBa_
FNDA:0,_RINvXs_NvXNvNtCscBGMVToPeRm_8callisto7missile1__NtBa_7MissileNtNtCs8pDKiTx8cJZ_5serde3ser9Serialize9serializeNtB5_s_15___SerializeWithBX_9serializeNtNtNtCse3EK68OXEkC_10serde_json5value3ser10SerializerEBc_
FNDA:4,_RINvXs_NvXNvNtCscBGMVToPeRm_8callisto7missile1__NtBa_7MissileNtNtCs8pDKiTx8cJZ_5serde3ser9Serialize9serializeNtB5_s_15___SerializeWithBX_9serializeQINtNtCse3EK68OXEkC_10serde_json3ser10SerializerQINtNtCsdze8u8oDPro_5alloc3vec3VechEEEBc_
FNDA:0,_RINvXs0_NvXNvNtCscBGMVToPeRm_8callisto7missile1__NtBb_7MissileNtNtCs8pDKiTx8cJZ_5serde3ser9Serialize9serializeNtB6_s0_15___SerializeWithBY_9serializeNtNtNtCse3EK68OXEkC_10serde_json5value3ser10SerializerEBd_
FNDA:4,_RINvXs0_NvXNvNtCscBGMVToPeRm_8callisto7missile1__NtBb_7MissileNtNtCs8pDKiTx8cJZ_5serde3ser9Serialize9serializeNtB6_s0_15___SerializeWithBY_9serializeQINtNtCse3EK68OXEkC_10serde_json3ser10SerializerQINtNtCsdze8u8oDPro_5alloc3vec3VechEEEBd_
FNDA:56,_RINvXNvXNvNtCscBGMVToPeRm_8callisto7missiles_1__NtB8_7MissileNtNtCs8pDKiTx8cJZ_5serde2de11Deserialize11deserializeNtB3_14___FieldVisitorNtBZ_7Visitor9visit_strNtNtCse3EK68OXEkC_10serde_json5error5ErrorEBa_
FNDA:28,_RINvXs_NvXNvNtCscBGMVToPeRm_8callisto7missiles_1__NtBa_7MissileNtNtCs8pDKiTx8cJZ_5serde2de11Deserialize11deserializeNtB5_7___FieldBZ_11deserializeINtNtCse3EK68OXEkC_10serde_json2de6MapKeyNtNtB2p_4read7StrReadEEBc_
FNDA:0,_RINvXs_NvXNvNtCscBGMVToPeRm_8callisto7missiles_1__NtBa_7MissileNtNtCs8pDKiTx8cJZ_5serde2de11Deserialize11deserializeNtB5_7___FieldBZ_11deserializeINtNtCse3EK68OXEkC_10serde_json2de6MapKeyNtNtB2p_4read9SliceReadEEBc_
FNDA:28,_RINvXs_NvXNvNtCscBGMVToPeRm_8callisto7missiles_1__NtBa_7MissileNtNtCs8pDKiTx8cJZ_5serde2de11Deserialize11deserializeNtB5_7___FieldBZ_11deserializeNtNtNtCse3EK68OXEkC_10serde_json5value2de18MapKeyDeserializerEBc_
FNDA:0,_RINvXs0_NvXNvNtCscBGMVToPeRm_8callisto7missiles_1__NtBb_7MissileNtNtCs8pDKiTx8cJZ_5serde2de11Deserialize11deserializeNtB6_9___VisitorNtB12_7Visitor9visit_seqINtNtCse3EK68OXEkC_10serde_json2de9SeqAccessNtNtB2A_4read7StrReadEEBd_
FNDA:0,_RINvXs0_NvXNvNtCscBGMVToPeRm_8callisto7missiles_1__NtBb_7MissileNtNtCs8pDKiTx8cJZ_5serde2de11Deserialize11deserializeNtB6_9___VisitorNtB12_7Visitor9visit_seqINtNtCse3EK68OXEkC_10serde_json2de9SeqAccessNtNtB2A_4read9SliceReadEEBd_
FNDA:0,_RINvXs0_NvXNvNtCscBGMVToPeRm_8callisto7missiles_1__NtBb_7MissileNtNtCs8pDKiTx8cJZ_5serde2de11Deserialize11deserializeNtB6_9___VisitorNtB12_7Visitor9visit_seqQNtNtNtCse3EK68OXEkC_10serde_json5value2de15SeqDeserializerEBd_
FNDA:0,_RINvXNvXs0_NvXNvNtCscBGMVToPeRm_8callisto7missiles_1__NtBe_7MissileNtNtCs8pDKiTx8cJZ_5serde2de11Deserialize11deserializeNtB9_9___VisitorNtB15_7Visitor9visit_seqNtB3_17___DeserializeWithB13_11deserializeNtNtCse3EK68OXEkC_10serde_json5value5ValueEBg_
FNDA:0,_RINvXNvXs0_NvXNvNtCscBGMVToPeRm_8callisto7missiles_1__NtBe_7MissileNtNtCs8pDKiTx8cJZ_5serde2de11Deserialize11deserializeNtB9_9___VisitorNtB15_7Visitor9visit_seqNtB3_17___DeserializeWithB13_11deserializeQINtNtCse3EK68OXEkC_10serde_json2de12DeserializerNtNtB3k_4read7StrReadEEBg_
FNDA:0,_RINvXNvXs0_NvXNvNtCscBGMVToPeRm_8callisto7missiles_1__NtBe_7MissileNtNtCs8pDKiTx8cJZ_5serde2de11Deserialize11deserializeNtB9_9___VisitorNtB15_7Visitor9visit_seqNtB3_17___DeserializeWithB13_11deserializeQINtNtCse3EK68OXEkC_10serde_json2de12DeserializerNtNtB3k_4read9SliceReadEEBg_
FNDA:0,_RNCINvXs0_NvXNvNtCscBGMVToPeRm_8callisto7missiles_1__NtBd_7MissileNtNtCs8pDKiTx8cJZ_5serde2de11Deserialize11deserializeNtB8_9___VisitorNtB14_7Visitor9visit_seqINtNtCse3EK68OXEkC_10serde_json2de9SeqAccessNtNtB2C_4read7StrReadEE0Bf_
FNDA:0,_RNCINvXs0_NvXNvNtCscBGMVToPeRm_8callisto7missiles_1__NtBd_7MissileNtNtCs8pDKiTx8cJZ_5serde2de11Deserialize11deserializeNtB8_9___VisitorNtB14_7Visitor9visit_seqINtNtCse3EK68OXEkC_10serde_json2de9SeqAccessNtNtB2C_4read9SliceReadEE0Bf_
FNDA:0,_RNCINvXs0_NvXNvNtCscBGMVToPeRm_8callisto7missiles_1__NtBd_7MissileNtNtCs8pDKiTx8cJZ_5serde2de11Deserialize11deserializeNtB8_9___VisitorNtB14_7Visitor9visit_seqQNtNtNtCse3EK68OXEkC_10serde_json5value2de15SeqDeserializerE0Bf_
FNDA:0,_RINvXs_NvXs0_NvXNvNtCscBGMVToPeRm_8callisto7missiles_1__NtBg_7MissileNtNtCs8pDKiTx8cJZ_5serde2de11Deserialize11deserializeNtBb_9___VisitorNtB17_7Visitor9visit_seqNtB5_s_17___DeserializeWithB15_11deserializeNtNtCse3EK68OXEkC_10serde_json5value5ValueEBi_
FNDA:0,_RINvXs_NvXs0_NvXNvNtCscBGMVToPeRm_8callisto7missiles_1__NtBg_7MissileNtNtCs8pDKiTx8cJZ_5serde2de11Deserialize11deserializeNtBb_9___VisitorNtB17_7Visitor9visit_seqNtB5_s_17___DeserializeWithB15_11deserializeQINtNtCse3EK68OXEkC_10serde_json2de12DeserializerNtNtB3o_4read7StrReadEEBi_
FNDA:0,_RINvXs_NvXs0_NvXNvNtCscBGMVToPeRm_8callisto7missiles_1__NtBg_7MissileNtNtCs8pDKiTx8cJZ_5serde2de11Deserialize11deserializeNtBb_9___VisitorNtB17_7Visitor9visit_seqNtB5_s_17___DeserializeWithB15_11deserializeQINtNtCse3EK68OXEkC_10serde_json2de12DeserializerNtNtB3o_4read9SliceReadEEBi_
FNDA:0,_RNCINvXs0_NvXNvNtCscBGMVToPeRm_8callisto7missiles_1__NtBd_7MissileNtNtCs8pDKiTx8cJZ_5serde2de11Deserialize11deserializeNtB8_9___VisitorNtB14_7Visitor9visit_seqINtNtCse3EK68OXEkC_10serde_json2de9SeqAccessNtNtB2C_4read7StrReadEEs_0Bf_
FNDA:0,_RNCINvXs0_NvXNvNtCscBGMVToPeRm_8callisto7missiles_1__NtBd_7MissileNtNtCs8pDKiTx8cJZ_5serde2de11Deserialize11deserializeNtB8_9___VisitorNtB14_7Visitor9visit_seqINtNtCse3EK68OXEkC_10serde_json2de9SeqAccessNtNtB2C_4read9SliceReadEEs_0Bf_
FNDA:0,_RNCINvXs0_NvXNvNtCscBGMVToPeRm_8callisto7missiles_1__NtBd_7MissileNtNtCs8pDKiTx8cJZ_5serde2de11Deserialize11deserializeNtB8_9___VisitorNtB14_7Visitor9visit_seqQNtNtNtCse3EK68OXEkC_10serde_json5value2de15SeqDeserializerEs_0Bf_
FNDA:0,_RINvXs0_NvXs0_NvXNvNtCscBGMVToPeRm_8callisto7missiles_1__NtBh_7MissileNtNtCs8pDKiTx8cJZ_5serde2de11Deserialize11deserializeNtBc_9___VisitorNtB18_7Visitor9visit_seqNtB6_s0_17___DeserializeWithB16_11deserializeNtNtCse3EK68OXEkC_10serde_json5value5ValueEBj_
FNDA:0,_RINvXs0_NvXs0_NvXNvNtCscBGMVToPeRm_8callisto7missiles_1__NtBh_7MissileNtNtCs8pDKiTx8cJZ_5serde2de11Deserialize11deserializeNtBc_9___VisitorNtB18_7Visitor9visit_seqNtB6_s0_17___DeserializeWithB16_11deserializeQINtNtCse3EK68OXEkC_10serde_json2de12DeserializerNtNtB3q_4read7StrReadEEBj_
FNDA:0,_RINvXs0_NvXs0_NvXNvNtCscBGMVToPeRm_8callisto7missiles_1__NtBh_7MissileNtNtCs8pDKiTx8cJZ_5serde2de11Deserialize11deserializeNtBc_9___VisitorNtB18_7Visitor9visit_seqNtB6_s0_17___DeserializeWithB16_11deserializeQINtNtCse3EK68OXEkC_10serde_json2de12DeserializerNtNtB3q_4read9SliceReadEEBj_
FNDA:0,_RNCINvXs0_NvXNvNtCscBGMVToPeRm_8callisto7missiles_1__NtBd_7MissileNtNtCs8pDKiTx8cJZ_5serde2de11Deserialize11deserializeNtB8_9___VisitorNtB14_7Visitor9visit_seqINtNtCse3EK68OXEkC_10serde_json2de9SeqAccessNtNtB2C_4read7StrReadEEs0_0Bf_
FNDA:0,_RNCINvXs0_NvXNvNtCscBGMVToPeRm_8callisto7missiles_1__NtBd_7MissileNtNtCs8pDKiTx8cJZ_5serde2de11Deserialize11deserializeNtB8_9___VisitorNtB14_7Visitor9visit_seqINtNtCse3EK68OXEkC_10serde_json2de9SeqAccessNtNtB2C_4read9SliceReadEEs0_0Bf_
FNDA:0,_RNCINvXs0_NvXNvNtCscBGMVToPeRm_8callisto7missiles_1__NtBd_7MissileNtNtCs8pDKiTx8cJZ_5serde2de11Deserialize11deserializeNtB8_9___VisitorNtB14_7Visitor9visit_seqQNtNtNtCse3EK68OXEkC_10serde_json5value2de15SeqDeserializerEs0_0Bf_
FNDA:4,_RINvXs0_NvXNvNtCscBGMVToPeRm_8callisto7missiles_1__NtBb_7MissileNtNtCs8pDKiTx8cJZ_5serde2de11Deserialize11deserializeNtB6_9___VisitorNtB12_7Visitor9visit_mapINtNtCse3EK68OXEkC_10serde_json2de9MapAccessNtNtB2A_4read7StrReadEEBd_
FNDA:0,_RINvXs0_NvXNvNtCscBGMVToPeRm_8callisto7missiles_1__NtBb_7MissileNtNtCs8pDKiTx8cJZ_5serde2de11Deserialize11deserializeNtB6_9___VisitorNtB12_7Visitor9visit_mapINtNtCse3EK68OXEkC_10serde_json2de9MapAccessNtNtB2A_4read9SliceReadEEBd_
FNDA:4,_RINvXs0_NvXNvNtCscBGMVToPeRm_8callisto7missiles_1__NtBb_7MissileNtNtCs8pDKiTx8cJZ_5serde2de11Deserialize11deserializeNtB6_9___VisitorNtB12_7Visitor9visit_mapQNtNtNtCse3EK68OXEkC_10serde_json5value2de15MapDeserializerEBd_
FNDA:4,_RINvXNvXs0_NvXNvNtCscBGMVToPeRm_8callisto7missiles_1__NtBe_7MissileNtNtCs8pDKiTx8cJZ_5serde2de11Deserialize11deserializeNtB9_9___VisitorNtB15_7Visitor9visit_mapNtB3_17___DeserializeWithB13_11deserializeNtNtCse3EK68OXEkC_10serde_json5value5ValueEBg_
FNDA:4,_RINvXNvXs0_NvXNvNtCscBGMVToPeRm_8callisto7missiles_1__NtBe_7MissileNtNtCs8pDKiTx8cJZ_5serde2de11Deserialize11deserializeNtB9_9___VisitorNtB15_7Visitor9visit_mapNtB3_17___DeserializeWithB13_11deserializeQINtNtCse3EK68OXEkC_10serde_json2de12DeserializerNtNtB3k_4read7StrReadEEBg_
FNDA:0,_RINvXNvXs0_NvXNvNtCscBGMVToPeRm_8callisto7missiles_1__NtBe_7MissileNtNtCs8pDKiTx8cJZ_5serde2de11Deserialize11deserializeNtB9_9___VisitorNtB15_7Visitor9visit_mapNtB3_17___DeserializeWithB13_11deserializeQINtNtCse3EK68OXEkC_10serde_json2de12DeserializerNtNtB3k_4read9SliceReadEEBg_
FNDA:4,_RINvXs_NvXs0_NvXNvNtCscBGMVToPeRm_8callisto7missiles_1__NtBg_7MissileNtNtCs8pDKiTx8cJZ_5serde2de11Deserialize11deserializeNtBb_9___VisitorNtB17_7Visitor9visit_mapNtB5_s_17___DeserializeWithB15_11deserializeNtNtCse3EK68OXEkC_10serde_json5value5ValueEBi_
FNDA:4,_RINvXs_NvXs0_NvXNvNtCscBGMVToPeRm_8callisto7missiles_1__NtBg_7MissileNtNtCs8pDKiTx8cJZ_5serde2de11Deserialize11deserializeNtBb_9___VisitorNtB17_7Visitor9visit_mapNtB5_s_17___DeserializeWithB15_11deserializeQINtNtCse3EK68OXEkC_10serde_json2de12DeserializerNtNtB3o_4read7StrReadEEBi_
FNDA:0,_RINvXs_NvXs0_NvXNvNtCscBGMVToPeRm_8callisto7missiles_1__NtBg_7MissileNtNtCs8pDKiTx8cJZ_5serde2de11Deserialize11deserializeNtBb_9___VisitorNtB17_7Visitor9visit_mapNtB5_s_17___DeserializeWithB15_11deserializeQINtNtCse3EK68OXEkC_10serde_json2de12DeserializerNtNtB3o_4read9SliceReadEEBi_
FNDA:4,_RINvXs0_NvXs0_NvXNvNtCscBGMVToPeRm_8callisto7missiles_1__NtBh_7MissileNtNtCs8pDKiTx8cJZ_5serde2de11Deserialize11deserializeNtBc_9___VisitorNtB18_7Visitor9visit_mapNtB6_s0_17___DeserializeWithB16_11deserializeNtNtCse3EK68OXEkC_10serde_json5value5ValueEBj_
FNDA:4,_RINvXs0_NvXs0_NvXNvNtCscBGMVToPeRm_8callisto7missiles_1__NtBh_7MissileNtNtCs8pDKiTx8cJZ_5serde2de11Deserialize11deserializeNtBc_9___VisitorNtB18_7Visitor9visit_mapNtB6_s0_17___DeserializeWithB16_11deserializeQINtNtCse3EK68OXEkC_10serde_json2de12DeserializerNtNtB3q_4read7StrReadEEBj_
FNDA:0,_RINvXs0_NvXs0_NvXNvNtCscBGMVToPeRm_8callisto7missiles_1__NtBh_7MissileNtNtCs8pDKiTx8cJZ_5serde2de11Deserialize11deserializeNtBc_9___VisitorNtB18_7Visitor9visit_mapNtB6_s0_17___DeserializeWithB16_11deserializeQINtNtCse3EK68OXEkC_10serde_json2de12DeserializerNtNtB3q_4read9SliceReadEEBj_
FNDA:0,_RNvXNvXNvNtCscBGMVToPeRm_8callisto7missiles_1__NtB7_7MissileNtNtCs8pDKiTx8cJZ_5serde2de11Deserialize11deserializeNtB2_14___FieldVisitorNtBY_7Visitor9expecting
FNDA:0,_RINvXNvXNvNtCscBGMVToPeRm_8callisto7missiles_1__NtB8_7MissileNtNtCs8pDKiTx8cJZ_5serde2de11Deserialize11deserializeNtB3_14___FieldVisitorNtBZ_7Visitor9visit_u64pEBa_
FNDA:0,_RINvXNvXNvNtCscBGMVToPeRm_8callisto7missiles_1__NtB8_7MissileNtNtCs8pDKiTx8cJZ_5serde2de11Deserialize11deserializeNtB3_14___FieldVisitorNtBZ_7Visitor11visit_bytespEBa_
FNDA:39,_RNvMNtCscBGMVToPeRm_8callisto7missileNtB2_7Missile3new
FNDA:315,_RNvXs_NtCscBGMVToPeRm_8callisto7missileNtB4_7MissileNtNtB6_6entity6Entity8get_name
FNDA:1,_RNvXs_NtCscBGMVToPeRm_8callisto7missileNtB4_7MissileNtNtB6_6entity6Entity8set_name
FNDA:63,_RNvXs_NtCscBGMVToPeRm_8callisto7missileNtB4_7MissileNtNtB6_6entity6Entity12get_position
FNDA:1,_RNvXs_NtCscBGMVToPeRm_8callisto7missileNtB4_7MissileNtNtB6_6entity6Entity12set_position
FNDA:2,_RNvXs_NtCscBGMVToPeRm_8callisto7missileNtB4_7MissileNtNtB6_6entity6Entity12get_velocity
FNDA:2,_RNvXs_NtCscBGMVToPeRm_8callisto7missileNtB4_7MissileNtNtB6_6entity6Entity12set_velocity
FNDA:61,_RNvXs_NtCscBGMVToPeRm_8callisto7missileNtB4_7MissileNtNtB6_6entity6Entity6update
FNDA:8,_RNvXs0_NtCscBGMVToPeRm_8callisto7missileNtB5_7MissileNtNtCs9f3LFPSIp77_4core3cmp9PartialEq2eq
FNDA:0,_RNvXs0_NvXNvNtCscBGMVToPeRm_8callisto7missiles_1__NtBa_7MissileNtNtCs8pDKiTx8cJZ_5serde2de11Deserialize11deserializeNtB5_9___VisitorNtB11_7Visitor9expecting
FNDA:1,_RNvNtNtCscBGMVToPeRm_8callisto7missile5testss_19test_missile_basics
FNDA:1,_RNvNtNvNtNtCscBGMVToPeRm_8callisto7missile5testss_19test_missile_basics4init4init
FNDA:0,_RINvXNvXNvNtCskkwNnPUyuBS_8callisto7missile1__NtB8_7MissileNtNtCs8pDKiTx8cJZ_5serde3ser9Serialize9serializeNtB3_15___SerializeWithBV_9serializeNtNtNtCse3EK68OXEkC_10serde_json5value3ser10SerializerECseGnTZYlWoAf_9webserver
FNDA:0,_RINvXs0_NvXNvNtCskkwNnPUyuBS_8callisto7missile1__NtBb_7MissileNtNtCs8pDKiTx8cJZ_5serde3ser9Serialize9serializeNtB6_s0_15___SerializeWithBY_9serializeNtNtNtCse3EK68OXEkC_10serde_json5value3ser10SerializerECseGnTZYlWoAf_9webserver
FNDA:0,_RINvXs_NvXNvNtCskkwNnPUyuBS_8callisto7missile1__NtBa_7MissileNtNtCs8pDKiTx8cJZ_5serde3ser9Serialize9serializeNtB5_s_15___SerializeWithBX_9serializeNtNtNtCse3EK68OXEkC_10serde_json5value3ser10SerializerECseGnTZYlWoAf_9webserver
FNF:14
FNH:14
DA:19,8
DA:22,88
DA:41,42
DA:42,42
DA:43,42
DA:44,42
DA:45,42
DA:46,42
DA:47,42
DA:48,42
DA:49,42
DA:50,42
DA:51,42
DA:52,42
DA:53,42
DA:54,42
DA:55,42
DA:56,42
DA:57,42
DA:58,42
DA:59,42
DA:60,42
DA:61,42
DA:68,42
DA:69,42
DA:71,0
DA:74,42
DA:75,42
DA:76,42
DA:77,42
DA:78,42
DA:79,42
DA:80,42
DA:81,42
DA:82,42
DA:83,42
DA:84,42
DA:88,324
DA:89,324
DA:90,324
DA:92,1
DA:93,1
DA:94,1
DA:96,66
DA:97,66
DA:98,66
DA:100,1
DA:101,1
DA:102,1
DA:104,2
DA:105,2
DA:106,2
DA:108,2
DA:109,2
DA:110,2
DA:112,64
DA:113,64
DA:114,64
DA:115,64
DA:116,64
DA:125,61
DA:126,61
DA:127,61
DA:128,61
DA:129,61
DA:130,61
DA:131,61
DA:138,61
DA:139,61
DA:142,0
DA:143,0
DA:144,0
DA:161,61
DA:162,61
DA:163,61
DA:164,61
DA:165,0
DA:170,61
DA:171,61
DA:172,61
DA:173,61
DA:174,61
DA:175,61
DA:176,61
DA:177,61
DA:178,61
DA:179,61
DA:180,61
DA:181,61
DA:182,61
DA:183,61
DA:184,61
DA:185,61
DA:191,31
DA:192,31
DA:193,31
DA:194,31
DA:196,30
DA:200,3
DA:201,3
DA:202,3
DA:204,64
DA:215,1
BRF:0
BRH:0
LF:106
LH:101
end_of_record
SF:/Users/dan/dev/callisto/callisto/src/payloads.rs
FN:18,_RINvXNvXNvNtCskkwNnPUyuBS_8callisto8payloadss1_1__NtB8_8LoginMsgNtNtCs8pDKiTx8cJZ_5serde2de11Deserialize11deserializeNtB3_14___FieldVisitorNtB12_7Visitor9visit_strNtNtCse3EK68OXEkC_10serde_json5error5ErrorECsj2r3Yn2CUPB_8callisto
FN:30,_RINvXNvXNvNtCskkwNnPUyuBS_8callisto8payloadss5_1__NtB8_10AddShipMsgNtNtCs8pDKiTx8cJZ_5serde2de11Deserialize11deserializeNtB3_14___FieldVisitorNtB15_7Visitor9visit_strNtNtCse3EK68OXEkC_10serde_json5error5ErrorECsj2r3Yn2CUPB_8callisto
FN:44,_RINvXNvXNvNtCskkwNnPUyuBS_8callisto8payloadss7_1__NtB8_14SetCrewActionsNtNtCs8pDKiTx8cJZ_5serde2de11Deserialize11deserializeNtB3_14___FieldVisitorNtB19_7Visitor9visit_strNtNtCse3EK68OXEkC_10serde_json5error5ErrorECsj2r3Yn2CUPB_8callisto
FN:69,_RINvXNvXNvNtCskkwNnPUyuBS_8callisto8payloadssa_1__NtB8_12AddPlanetMsgNtNtCs8pDKiTx8cJZ_5serde2de11Deserialize11deserializeNtB3_14___FieldVisitorNtB17_7Visitor9visit_strNtNtCse3EK68OXEkC_10serde_json5error5ErrorECsj2r3Yn2CUPB_8callisto
FN:82,_RINvXNvXNvNtCskkwNnPUyuBS_8callisto8payloadssc_1__NtB8_10SetPlanMsgNtNtCs8pDKiTx8cJZ_5serde2de11Deserialize11deserializeNtB3_14___FieldVisitorNtB15_7Visitor9visit_strNtNtCse3EK68OXEkC_10serde_json5error5ErrorECsj2r3Yn2CUPB_8callisto
FN:89,_RINvXNvXNvNtCskkwNnPUyuBS_8callisto8payloadsse_1__NtB8_14ComputePathMsgNtNtCs8pDKiTx8cJZ_5serde2de11Deserialize11deserializeNtB3_14___FieldVisitorNtB19_7Visitor9visit_strNtNtCse3EK68OXEkC_10serde_json5error5ErrorECsj2r3Yn2CUPB_8callisto
FN:108,_RINvXNvXNvNtCskkwNnPUyuBS_8callisto8payloadssg_1__NtB8_10FireActionNtNtCs8pDKiTx8cJZ_5serde2de11Deserialize11deserializeNtB3_14___FieldVisitorNtB15_7Visitor9visit_strNtNtCse3EK68OXEkC_10serde_json5error5ErrorECsj2r3Yn2CUPB_8callisto
FN:154,_RINvXNvXNvNtCskkwNnPUyuBS_8callisto8payloadssk_1__NtB8_15LoadScenarioMsgNtNtCs8pDKiTx8cJZ_5serde2de11Deserialize11deserializeNtB3_14___FieldVisitorNtB1a_7Visitor9visit_strNtNtCse3EK68OXEkC_10serde_json5error5ErrorECsj2r3Yn2CUPB_8callisto
FN:30,_RINvXNvXs0_NvXNvNtCskkwNnPUyuBS_8callisto8payloadss5_1__NtBe_10AddShipMsgNtNtCs8pDKiTx8cJZ_5serde2de11Deserialize11deserializeNtB9_9___VisitorNtB1b_7Visitor9visit_mapNtB3_17___DeserializeWithB19_11deserializeQINtNtCse3EK68OXEkC_10serde_json2de12DeserializerNtNtB3q_4read9SliceReadEECsj2r3Yn2CUPB_8callisto
FN:30,_RINvXNvXs0_NvXNvNtCskkwNnPUyuBS_8callisto8payloadss5_1__NtBe_10AddShipMsgNtNtCs8pDKiTx8cJZ_5serde2de11Deserialize11deserializeNtB9_9___VisitorNtB1b_7Visitor9visit_seqNtB3_17___DeserializeWithB19_11deserializeQINtNtCse3EK68OXEkC_10serde_json2de12DeserializerNtNtB3q_4read9SliceReadEECsj2r3Yn2CUPB_8callisto
FN:69,_RINvXNvXs0_NvXNvNtCskkwNnPUyuBS_8callisto8payloadssa_1__NtBe_12AddPlanetMsgNtNtCs8pDKiTx8cJZ_5serde2de11Deserialize11deserializeNtB9_9___VisitorNtB1d_7Visitor9visit_mapNtB3_17___DeserializeWithB1b_11deserializeQINtNtCse3EK68OXEkC_10serde_json2de12DeserializerNtNtB3s_4read9SliceReadEECsj2r3Yn2CUPB_8callisto
FN:69,_RINvXNvXs0_NvXNvNtCskkwNnPUyuBS_8callisto8payloadssa_1__NtBe_12AddPlanetMsgNtNtCs8pDKiTx8cJZ_5serde2de11Deserialize11deserializeNtB9_9___VisitorNtB1d_7Visitor9visit_seqNtB3_17___DeserializeWithB1b_11deserializeQINtNtCse3EK68OXEkC_10serde_json2de12DeserializerNtNtB3s_4read9SliceReadEECsj2r3Yn2CUPB_8callisto
FN:89,_RINvXNvXs0_NvXNvNtCskkwNnPUyuBS_8callisto8payloadsse_1__NtBe_14ComputePathMsgNtNtCs8pDKiTx8cJZ_5serde2de11Deserialize11deserializeNtB9_9___VisitorNtB1f_7Visitor9visit_mapNtB3_17___DeserializeWithB1d_11deserializeQINtNtCse3EK68OXEkC_10serde_json2de12DeserializerNtNtB3u_4read9SliceReadEECsj2r3Yn2CUPB_8callisto
FN:89,_RINvXNvXs0_NvXNvNtCskkwNnPUyuBS_8callisto8payloadsse_1__NtBe_14ComputePathMsgNtNtCs8pDKiTx8cJZ_5serde2de11Deserialize11deserializeNtB9_9___VisitorNtB1f_7Visitor9visit_seqNtB3_17___DeserializeWithB1d_11deserializeQINtNtCse3EK68OXEkC_10serde_json2de12DeserializerNtNtB3u_4read9SliceReadEECsj2r3Yn2CUPB_8callisto
FN:18,_RINvXs0_NvXNvNtCskkwNnPUyuBS_8callisto8payloadss1_1__NtBb_8LoginMsgNtNtCs8pDKiTx8cJZ_5serde2de11Deserialize11deserializeNtB6_9___VisitorNtB15_7Visitor9visit_mapINtNtCse3EK68OXEkC_10serde_json2de9MapAccessNtNtB2D_4read9SliceReadEECsj2r3Yn2CUPB_8callisto
FN:18,_RINvXs0_NvXNvNtCskkwNnPUyuBS_8callisto8payloadss1_1__NtBb_8LoginMsgNtNtCs8pDKiTx8cJZ_5serde2de11Deserialize11deserializeNtB6_9___VisitorNtB15_7Visitor9visit_seqINtNtCse3EK68OXEkC_10serde_json2de9SeqAccessNtNtB2D_4read9SliceReadEECsj2r3Yn2CUPB_8callisto
FN:30,_RINvXs0_NvXNvNtCskkwNnPUyuBS_8callisto8payloadss5_1__NtBb_10AddShipMsgNtNtCs8pDKiTx8cJZ_5serde2de11Deserialize11deserializeNtB6_9___VisitorNtB18_7Visitor9visit_mapINtNtCse3EK68OXEkC_10serde_json2de9MapAccessNtNtB2G_4read9SliceReadEECsj2r3Yn2CUPB_8callisto
FN:30,_RINvXs0_NvXNvNtCskkwNnPUyuBS_8callisto8payloadss5_1__NtBb_10AddShipMsgNtNtCs8pDKiTx8cJZ_5serde2de11Deserialize11deserializeNtB6_9___VisitorNtB18_7Visitor9visit_seqINtNtCse3EK68OXEkC_10serde_json2de9SeqAccessNtNtB2G_4read9SliceReadEECsj2r3Yn2CUPB_8callisto
FN:44,_RINvXs0_NvXNvNtCskkwNnPUyuBS_8callisto8payloadss7_1__NtBb_14SetCrewActionsNtNtCs8pDKiTx8cJZ_5serde2de11Deserialize11deserializeNtB6_9___VisitorNtB1c_7Visitor9visit_mapINtNtCse3EK68OXEkC_10serde_json2de9MapAccessNtNtB2K_4read9SliceReadEECsj2r3Yn2CUPB_8callisto
FN:44,_RINvXs0_NvXNvNtCskkwNnPUyuBS_8callisto8payloadss7_1__NtBb_14SetCrewActionsNtNtCs8pDKiTx8cJZ_5serde2de11Deserialize11deserializeNtB6_9___VisitorNtB1c_7Visitor9visit_seqINtNtCse3EK68OXEkC_10serde_json2de9SeqAccessNtNtB2K_4read9SliceReadEECsj2r3Yn2CUPB_8callisto
FN:69,_RINvXs0_NvXNvNtCskkwNnPUyuBS_8callisto8payloadssa_1__NtBb_12AddPlanetMsgNtNtCs8pDKiTx8cJZ_5serde2de11Deserialize11deserializeNtB6_9___VisitorNtB1a_7Visitor9visit_mapINtNtCse3EK68OXEkC_10serde_json2de9MapAccessNtNtB2I_4read9SliceReadEECsj2r3Yn2CUPB_8callisto
FN:69,_RINvXs0_NvXNvNtCskkwNnPUyuBS_8callisto8payloadssa_1__NtBb_12AddPlanetMsgNtNtCs8pDKiTx8cJZ_5serde2de11Deserialize11deserializeNtB6_9___VisitorNtB1a_7Visitor9visit_seqINtNtCse3EK68OXEkC_10serde_json2de9SeqAccessNtNtB2I_4read9SliceReadEECsj2r3Yn2CUPB_8callisto
FN:82,_RINvXs0_NvXNvNtCskkwNnPUyuBS_8callisto8payloadssc_1__NtBb_10SetPlanMsgNtNtCs8pDKiTx8cJZ_5serde2de11Deserialize11deserializeNtB6_9___VisitorNtB18_7Visitor9visit_mapINtNtCse3EK68OXEkC_10serde_json2de9MapAccessNtNtB2G_4read9SliceReadEECsj2r3Yn2CUPB_8callisto
FN:82,_RINvXs0_NvXNvNtCskkwNnPUyuBS_8callisto8payloadssc_1__NtBb_10SetPlanMsgNtNtCs8pDKiTx8cJZ_5serde2de11Deserialize11deserializeNtB6_9___VisitorNtB18_7Visitor9visit_seqINtNtCse3EK68OXEkC_10serde_json2de9SeqAccessNtNtB2G_4read9SliceReadEECsj2r3Yn2CUPB_8callisto
FN:89,_RINvXs0_NvXNvNtCskkwNnPUyuBS_8callisto8payloadsse_1__NtBb_14ComputePathMsgNtNtCs8pDKiTx8cJZ_5serde2de11Deserialize11deserializeNtB6_9___VisitorNtB1c_7Visitor9visit_mapINtNtCse3EK68OXEkC_10serde_json2de9MapAccessNtNtB2K_4read9SliceReadEECsj2r3Yn2CUPB_8callisto
FN:89,_RINvXs0_NvXNvNtCskkwNnPUyuBS_8callisto8payloadsse_1__NtBb_14ComputePathMsgNtNtCs8pDKiTx8cJZ_5serde2de11Deserialize11deserializeNtB6_9___VisitorNtB1c_7Visitor9visit_seqINtNtCse3EK68OXEkC_10serde_json2de9SeqAccessNtNtB2K_4read9SliceReadEECsj2r3Yn2CUPB_8callisto
FN:108,_RINvXs0_NvXNvNtCskkwNnPUyuBS_8callisto8payloadssg_1__NtBb_10FireActionNtNtCs8pDKiTx8cJZ_5serde2de11Deserialize11deserializeNtB6_9___VisitorNtB18_7Visitor9visit_mapINtNtCse3EK68OXEkC_10serde_json2de9MapAccessNtNtB2G_4read9SliceReadEECsj2r3Yn2CUPB_8callisto
FN:108,_RINvXs0_NvXNvNtCskkwNnPUyuBS_8callisto8payloadssg_1__NtBb_10FireActionNtNtCs8pDKiTx8cJZ_5serde2de11Deserialize11deserializeNtB6_9___VisitorNtB18_7Visitor9visit_seqINtNtCse3EK68OXEkC_10serde_json2de9SeqAccessNtNtB2G_4read9SliceReadEECsj2r3Yn2CUPB_8callisto
FN:154,_RINvXs0_NvXNvNtCskkwNnPUyuBS_8callisto8payloadssk_1__NtBb_15LoadScenarioMsgNtNtCs8pDKiTx8cJZ_5serde2de11Deserialize11deserializeNtB6_9___VisitorNtB1d_7Visitor9visit_mapINtNtCse3EK68OXEkC_10serde_json2de9MapAccessNtNtB2L_4read9SliceReadEECsj2r3Yn2CUPB_8callisto
FN:154,_RINvXs0_NvXNvNtCskkwNnPUyuBS_8callisto8payloadssk_1__NtBb_15LoadScenarioMsgNtNtCs8pDKiTx8cJZ_5serde2de11Deserialize11deserializeNtB6_9___VisitorNtB1d_7Visitor9visit_seqINtNtCse3EK68OXEkC_10serde_json2de9SeqAccessNtNtB2L_4read9SliceReadEECsj2r3Yn2CUPB_8callisto
FN:30,_RINvXs0_NvXs0_NvXNvNtCskkwNnPUyuBS_8callisto8payloadss5_1__NtBh_10AddShipMsgNtNtCs8pDKiTx8cJZ_5serde2de11Deserialize11deserializeNtBc_9___VisitorNtB1e_7Visitor9visit_mapNtB6_s0_17___DeserializeWithB1c_11deserializeQINtNtCse3EK68OXEkC_10serde_json2de12DeserializerNtNtB3w_4read9SliceReadEECsj2r3Yn2CUPB_8callisto
FN:30,_RINvXs0_NvXs0_NvXNvNtCskkwNnPUyuBS_8callisto8payloadss5_1__NtBh_10AddShipMsgNtNtCs8pDKiTx8cJZ_5serde2de11Deserialize11deserializeNtBc_9___VisitorNtB1e_7Visitor9visit_seqNtB6_s0_17___DeserializeWithB1c_11deserializeQINtNtCse3EK68OXEkC_10serde_json2de12DeserializerNtNtB3w_4read9SliceReadEECsj2r3Yn2CUPB_8callisto
FN:89,_RINvXs0_NvXs0_NvXNvNtCskkwNnPUyuBS_8callisto8payloadsse_1__NtBh_14ComputePathMsgNtNtCs8pDKiTx8cJZ_5serde2de11Deserialize11deserializeNtBc_9___VisitorNtB1i_7Visitor9visit_mapNtB6_s0_17___DeserializeWithB1g_11deserializeQINtNtCse3EK68OXEkC_10serde_json2de12DeserializerNtNtB3A_4read9SliceReadEECsj2r3Yn2CUPB_8callisto
FN:89,_RINvXs0_NvXs0_NvXNvNtCskkwNnPUyuBS_8callisto8payloadsse_1__NtBh_14ComputePathMsgNtNtCs8pDKiTx8cJZ_5serde2de11Deserialize11deserializeNtBc_9___VisitorNtB1i_7Visitor9visit_seqNtB6_s0_17___DeserializeWithB1g_11deserializeQINtNtCse3EK68OXEkC_10serde_json2de12DeserializerNtNtB3A_4read9SliceReadEECsj2r3Yn2CUPB_8callisto
FN:18,_RINvXs_NvXNvNtCskkwNnPUyuBS_8callisto8payloadss1_1__NtBa_8LoginMsgNtNtCs8pDKiTx8cJZ_5serde2de11Deserialize11deserializeNtB5_7___FieldB12_11deserializeINtNtCse3EK68OXEkC_10serde_json2de6MapKeyNtNtB2t_4read9SliceReadEECsj2r3Yn2CUPB_8callisto
FN:30,_RINvXs_NvXNvNtCskkwNnPUyuBS_8callisto8payloadss5_1__NtBa_10AddShipMsgNtNtCs8pDKiTx8cJZ_5serde2de11Deserialize11deserializeNtB5_7___FieldB15_11deserializeINtNtCse3EK68OXEkC_10serde_json2de6MapKeyNtNtB2w_4read9SliceReadEECsj2r3Yn2CUPB_8callisto
FN:44,_RINvXs_NvXNvNtCskkwNnPUyuBS_8callisto8payloadss7_1__NtBa_14SetCrewActionsNtNtCs8pDKiTx8cJZ_5serde2de11Deserialize11deserializeNtB5_7___FieldB19_11deserializeINtNtCse3EK68OXEkC_10serde_json2de6MapKeyNtNtB2A_4read9SliceReadEECsj2r3Yn2CUPB_8callisto
FN:69,_RINvXs_NvXNvNtCskkwNnPUyuBS_8callisto8payloadssa_1__NtBa_12AddPlanetMsgNtNtCs8pDKiTx8cJZ_5serde2de11Deserialize11deserializeNtB5_7___FieldB17_11deserializeINtNtCse3EK68OXEkC_10serde_json2de6MapKeyNtNtB2y_4read9SliceReadEECsj2r3Yn2CUPB_8callisto
FN:82,_RINvXs_NvXNvNtCskkwNnPUyuBS_8callisto8payloadssc_1__NtBa_10SetPlanMsgNtNtCs8pDKiTx8cJZ_5serde2de11Deserialize11deserializeNtB5_7___FieldB15_11deserializeINtNtCse3EK68OXEkC_10serde_json2de6MapKeyNtNtB2w_4read9SliceReadEECsj2r3Yn2CUPB_8callisto
FN:89,_RINvXs_NvXNvNtCskkwNnPUyuBS_8callisto8payloadsse_1__NtBa_14ComputePathMsgNtNtCs8pDKiTx8cJZ_5serde2de11Deserialize11deserializeNtB5_7___FieldB19_11deserializeINtNtCse3EK68OXEkC_10serde_json2de6MapKeyNtNtB2A_4read9SliceReadEECsj2r3Yn2CUPB_8callisto
FN:108,_RINvXs_NvXNvNtCskkwNnPUyuBS_8callisto8payloadssg_1__NtBa_10FireActionNtNtCs8pDKiTx8cJZ_5serde2de11Deserialize11deserializeNtB5_7___FieldB15_11deserializeINtNtCse3EK68OXEkC_10serde_json2de6MapKeyNtNtB2w_4read9SliceReadEECsj2r3Yn2CUPB_8callisto
FN:154,_RINvXs_NvXNvNtCskkwNnPUyuBS_8callisto8payloadssk_1__NtBa_15LoadScenarioMsgNtNtCs8pDKiTx8cJZ_5serde2de11Deserialize11deserializeNtB5_7___FieldB1a_11deserializeINtNtCse3EK68OXEkC_10serde_json2de6MapKeyNtNtB2B_4read9SliceReadEECsj2r3Yn2CUPB_8callisto
FN:30,_RINvXs_NvXs0_NvXNvNtCskkwNnPUyuBS_8callisto8payloadss5_1__NtBg_10AddShipMsgNtNtCs8pDKiTx8cJZ_5serde2de11Deserialize11deserializeNtBb_9___VisitorNtB1d_7Visitor9visit_mapNtB5_s_17___DeserializeWithB1b_11deserializeQINtNtCse3EK68OXEkC_10serde_json2de12DeserializerNtNtB3u_4read9SliceReadEECsj2r3Yn2CUPB_8callisto
FN:30,_RINvXs_NvXs0_NvXNvNtCskkwNnPUyuBS_8callisto8payloadss5_1__NtBg_10AddShipMsgNtNtCs8pDKiTx8cJZ_5serde2de11Deserialize11deserializeNtBb_9___VisitorNtB1d_7Visitor9visit_seqNtB5_s_17___DeserializeWithB1b_11deserializeQINtNtCse3EK68OXEkC_10serde_json2de12DeserializerNtNtB3u_4read9SliceReadEECsj2r3Yn2CUPB_8callisto
FN:89,_RINvXs_NvXs0_NvXNvNtCskkwNnPUyuBS_8callisto8payloadsse_1__NtBg_14ComputePathMsgNtNtCs8pDKiTx8cJZ_5serde2de11Deserialize11deserializeNtBb_9___VisitorNtB1h_7Visitor9visit_mapNtB5_s_17___DeserializeWithB1f_11deserializeQINtNtCse3EK68OXEkC_10serde_json2de12DeserializerNtNtB3y_4read9SliceReadEECsj2r3Yn2CUPB_8callisto
FN:89,_RINvXs_NvXs0_NvXNvNtCskkwNnPUyuBS_8callisto8payloadsse_1__NtBg_14ComputePathMsgNtNtCs8pDKiTx8cJZ_5serde2de11Deserialize11deserializeNtBb_9___VisitorNtB1h_7Visitor9visit_seqNtB5_s_17___DeserializeWithB1f_11deserializeQINtNtCse3EK68OXEkC_10serde_json2de12DeserializerNtNtB3y_4read9SliceReadEECsj2r3Yn2CUPB_8callisto
FN:167,_RNCINvMNvNtCskkwNnPUyuBS_8callisto8payloadssl_1__NtB7_9Vec3asVec11deserializeQINtNtCse3EK68OXEkC_10serde_json2de12DeserializerNtNtB1j_4read9SliceReadEE0Csj2r3Yn2CUPB_8callisto
FN:30,_RNCINvXs0_NvXNvNtCskkwNnPUyuBS_8callisto8payloadss5_1__NtBd_10AddShipMsgNtNtCs8pDKiTx8cJZ_5serde2de11Deserialize11deserializeNtB8_9___VisitorNtB1a_7Visitor9visit_seqINtNtCse3EK68OXEkC_10serde_json2de9SeqAccessNtNtB2I_4read9SliceReadEE0Csj2r3Yn2CUPB_8callisto
FN:30,_RNCINvXs0_NvXNvNtCskkwNnPUyuBS_8callisto8payloadss5_1__NtBd_10AddShipMsgNtNtCs8pDKiTx8cJZ_5serde2de11Deserialize11deserializeNtB8_9___VisitorNtB1a_7Visitor9visit_seqINtNtCse3EK68OXEkC_10serde_json2de9SeqAccessNtNtB2I_4read9SliceReadEEs0_0Csj2r3Yn2CUPB_8callisto
FN:30,_RNCINvXs0_NvXNvNtCskkwNnPUyuBS_8callisto8payloadss5_1__NtBd_10AddShipMsgNtNtCs8pDKiTx8cJZ_5serde2de11Deserialize11deserializeNtB8_9___VisitorNtB1a_7Visitor9visit_seqINtNtCse3EK68OXEkC_10serde_json2de9SeqAccessNtNtB2I_4read9SliceReadEEs_0Csj2r3Yn2CUPB_8callisto
FN:69,_RNCINvXs0_NvXNvNtCskkwNnPUyuBS_8callisto8payloadssa_1__NtBd_12AddPlanetMsgNtNtCs8pDKiTx8cJZ_5serde2de11Deserialize11deserializeNtB8_9___VisitorNtB1c_7Visitor9visit_seqINtNtCse3EK68OXEkC_10serde_json2de9SeqAccessNtNtB2K_4read9SliceReadEE0Csj2r3Yn2CUPB_8callisto
FN:89,_RNCINvXs0_NvXNvNtCskkwNnPUyuBS_8callisto8payloadsse_1__NtBd_14ComputePathMsgNtNtCs8pDKiTx8cJZ_5serde2de11Deserialize11deserializeNtB8_9___VisitorNtB1e_7Visitor9visit_seqINtNtCse3EK68OXEkC_10serde_json2de9SeqAccessNtNtB2M_4read9SliceReadEE0Csj2r3Yn2CUPB_8callisto
FN:89,_RNCINvXs0_NvXNvNtCskkwNnPUyuBS_8callisto8payloadsse_1__NtBd_14ComputePathMsgNtNtCs8pDKiTx8cJZ_5serde2de11Deserialize11deserializeNtB8_9___VisitorNtB1e_7Visitor9visit_seqINtNtCse3EK68OXEkC_10serde_json2de9SeqAccessNtNtB2M_4read9SliceReadEEs0_0Csj2r3Yn2CUPB_8callisto
FN:89,_RNCINvXs0_NvXNvNtCskkwNnPUyuBS_8callisto8payloadsse_1__NtBd_14ComputePathMsgNtNtCs8pDKiTx8cJZ_5serde2de11Deserialize11deserializeNtB8_9___VisitorNtB1e_7Visitor9visit_seqINtNtCse3EK68OXEkC_10serde_json2de9SeqAccessNtNtB2M_4read9SliceReadEEs_0Csj2r3Yn2CUPB_8callisto
FN:52,_RNvMNtCskkwNnPUyuBS_8callisto8payloadsNtB2_14SetCrewActions3new
FN:149,_RNvMs_NtCskkwNnPUyuBS_8callisto8payloadsNtB4_9EffectMsg7message
FN:12,_RNvXNvXNvNtCskkwNnPUyuBS_8callisto8payloadss_1__NtB7_9SimpleMsgNtNtCs8pDKiTx8cJZ_5serde2de11Deserialize11deserializeNtB2_14___FieldVisitorNtB11_7Visitor9expecting
FN:12,_RNvXs0_NvXNvNtCskkwNnPUyuBS_8callisto8payloadss_1__NtBa_9SimpleMsgNtNtCs8pDKiTx8cJZ_5serde2de11Deserialize11deserializeNtB5_9___VisitorNtB14_7Visitor9expecting
FN:18,_RNvXNvXNvNtCskkwNnPUyuBS_8callisto8payloadss1_1__NtB7_8LoginMsgNtNtCs8pDKiTx8cJZ_5serde2de11Deserialize11deserializeNtB2_14___FieldVisitorNtB11_7Visitor9expecting
FN:18,_RNvXs0_NvXNvNtCskkwNnPUyuBS_8callisto8payloadss1_1__NtBa_8LoginMsgNtNtCs8pDKiTx8cJZ_5serde2de11Deserialize11deserializeNtB5_9___VisitorNtB14_7Visitor9expecting
FN:23,_RNvXNvXNvNtCskkwNnPUyuBS_8callisto8payloadss3_1__NtB7_12AuthResponseNtNtCs8pDKiTx8cJZ_5serde2de11Deserialize11deserializeNtB2_14___FieldVisitorNtB16_7Visitor9expecting
FN:23,_RNvXs0_NvXNvNtCskkwNnPUyuBS_8callisto8payloadss3_1__NtBa_12AuthResponseNtNtCs8pDKiTx8cJZ_5serde2de11Deserialize11deserializeNtB5_9___VisitorNtB19_7Visitor9expecting
FN:30,_RNvXNvXNvNtCskkwNnPUyuBS_8callisto8payloadss5_1__NtB7_10AddShipMsgNtNtCs8pDKiTx8cJZ_5serde2de11Deserialize11deserializeNtB2_14___FieldVisitorNtB14_7Visitor9expecting
FN:30,_RNvXs0_NvXNvNtCskkwNnPUyuBS_8callisto8payloadss5_1__NtBa_10AddShipMsgNtNtCs8pDKiTx8cJZ_5serde2de11Deserialize11deserializeNtB5_9___VisitorNtB17_7Visitor9expecting
FN:44,_RNvXNvXNvNtCskkwNnPUyuBS_8callisto8payloadss7_1__NtB7_14SetCrewActionsNtNtCs8pDKiTx8cJZ_5serde2de11Deserialize11deserializeNtB2_14___FieldVisitorNtB18_7Visitor9expecting
FN:44,_RNvXs0_NvXNvNtCskkwNnPUyuBS_8callisto8payloadss7_1__NtBa_14SetCrewActionsNtNtCs8pDKiTx8cJZ_5serde2de11Deserialize11deserializeNtB5_9___VisitorNtB1b_7Visitor9expecting
FN:69,_RNvXNvXNvNtCskkwNnPUyuBS_8callisto8payloadssa_1__NtB7_12AddPlanetMsgNtNtCs8pDKiTx8cJZ_5serde2de11Deserialize11deserializeNtB2_14___FieldVisitorNtB16_7Visitor9expecting
FN:69,_RNvXs0_NvXNvNtCskkwNnPUyuBS_8callisto8payloadssa_1__NtBa_12AddPlanetMsgNtNtCs8pDKiTx8cJZ_5serde2de11Deserialize11deserializeNtB5_9___VisitorNtB19_7Visitor9expecting
FN:82,_RNvXNvXNvNtCskkwNnPUyuBS_8callisto8payloadssc_1__NtB7_10SetPlanMsgNtNtCs8pDKiTx8cJZ_5serde2de11Deserialize11deserializeNtB2_14___FieldVisitorNtB14_7Visitor9expecting
FN:82,_RNvXs0_NvXNvNtCskkwNnPUyuBS_8callisto8payloadssc_1__NtBa_10SetPlanMsgNtNtCs8pDKiTx8cJZ_5serde2de11Deserialize11deserializeNtB5_9___VisitorNtB17_7Visitor9expecting
FN:89,_RNvXNvXNvNtCskkwNnPUyuBS_8callisto8payloadsse_1__NtB7_14ComputePathMsgNtNtCs8pDKiTx8cJZ_5serde2de11Deserialize11deserializeNtB2_14___FieldVisitorNtB18_7Visitor9expecting
FN:89,_RNvXs0_NvXNvNtCskkwNnPUyuBS_8callisto8payloadsse_1__NtBa_14ComputePathMsgNtNtCs8pDKiTx8cJZ_5serde2de11Deserialize11deserializeNtB5_9___VisitorNtB1b_7Visitor9expecting
FN:108,_RNvXNvXNvNtCskkwNnPUyuBS_8callisto8payloadssg_1__NtB7_10FireActionNtNtCs8pDKiTx8cJZ_5serde2de11Deserialize11deserializeNtB2_14___FieldVisitorNtB14_7Visitor9expecting
FN:108,_RNvXs0_NvXNvNtCskkwNnPUyuBS_8callisto8payloadssg_1__NtBa_10FireActionNtNtCs8pDKiTx8cJZ_5serde2de11Deserialize11deserializeNtB5_9___VisitorNtB17_7Visitor9expecting
FN:123,_RNvXNvXNvNtCskkwNnPUyuBS_8callisto8payloadssi_1__NtB7_9EffectMsgNtNtCs8pDKiTx8cJZ_5serde2de11Deserialize11deserializeNtB2_14___FieldVisitorNtB12_7Visitor9expecting
FN:123,_RNvXs0_NvXNvNtCskkwNnPUyuBS_8callisto8payloadssi_1__NtBa_9EffectMsgNtNtCs8pDKiTx8cJZ_5serde2de11Deserialize11deserializeNtB5_s_14___FieldVisitorNtB15_7Visitor9expecting
FN:123,_RNvXs2_NvXNvNtCskkwNnPUyuBS_8callisto8payloadssi_1__NtBa_9EffectMsgNtNtCs8pDKiTx8cJZ_5serde2de11Deserialize11deserializeNtB5_9___VisitorNtB15_7Visitor9expecting
FN:123,_RNvXs3_NvXNvNtCskkwNnPUyuBS_8callisto8payloadssi_1__NtBa_9EffectMsgNtNtCs8pDKiTx8cJZ_5serde2de11Deserialize11deserializeNtB5_s0_14___FieldVisitorNtB15_7Visitor9expecting
FN:123,_RNvXs5_NvXNvNtCskkwNnPUyuBS_8callisto8payloadssi_1__NtBa_9EffectMsgNtNtCs8pDKiTx8cJZ_5serde2de11Deserialize11deserializeNtB5_s_9___VisitorNtB15_7Visitor9expecting
FN:123,_RNvXs6_NvXNvNtCskkwNnPUyuBS_8callisto8payloadssi_1__NtBa_9EffectMsgNtNtCs8pDKiTx8cJZ_5serde2de11Deserialize11deserializeNtB5_s1_14___FieldVisitorNtB15_7Visitor9expecting
FN:123,_RNvXs8_NvXNvNtCskkwNnPUyuBS_8callisto8payloadssi_1__NtBa_9EffectMsgNtNtCs8pDKiTx8cJZ_5serde2de11Deserialize11deserializeNtB5_s0_9___VisitorNtB15_7Visitor9expecting
FN:123,_RNvXs9_NvXNvNtCskkwNnPUyuBS_8callisto8payloadssi_1__NtBa_9EffectMsgNtNtCs8pDKiTx8cJZ_5serde2de11Deserialize11deserializeNtB5_s2_14___FieldVisitorNtB15_7Visitor9expecting
FN:123,_RNvXsb_NvXNvNtCskkwNnPUyuBS_8callisto8payloadssi_1__NtBa_9EffectMsgNtNtCs8pDKiTx8cJZ_5serde2de11Deserialize11deserializeNtB5_s1_9___VisitorNtB15_7Visitor9expecting
FN:123,_RNvXsc_NvXNvNtCskkwNnPUyuBS_8callisto8payloadssi_1__NtBa_9EffectMsgNtNtCs8pDKiTx8cJZ_5serde2de11Deserialize11deserializeNtB5_s3_14___FieldVisitorNtB15_7Visitor9expecting
FN:123,_RNvXse_NvXNvNtCskkwNnPUyuBS_8callisto8payloadssi_1__NtBa_9EffectMsgNtNtCs8pDKiTx8cJZ_5serde2de11Deserialize11deserializeNtB5_s2_9___VisitorNtB15_7Visitor9expecting
FN:154,_RNvXNvXNvNtCskkwNnPUyuBS_8callisto8payloadssk_1__NtB7_15LoadScenarioMsgNtNtCs8pDKiTx8cJZ_5serde2de11Deserialize11deserializeNtB2_14___FieldVisitorNtB19_7Visitor9expecting
FN:154,_RNvXs0_NvXNvNtCskkwNnPUyuBS_8callisto8payloadssk_1__NtBa_15LoadScenarioMsgNtNtCs8pDKiTx8cJZ_5serde2de11Deserialize11deserializeNtB5_9___VisitorNtB1c_7Visitor9expecting
FN:12,_RINvXNvXNvNtCskkwNnPUyuBS_8callisto8payloadss_1__NtB8_9SimpleMsgNtNtCs8pDKiTx8cJZ_5serde2de11Deserialize11deserializeNtB3_14___FieldVisitorNtB12_7Visitor9visit_u64pEBa_
FN:12,_RINvXNvXNvNtCskkwNnPUyuBS_8callisto8payloadss_1__NtB8_9SimpleMsgNtNtCs8pDKiTx8cJZ_5serde2de11Deserialize11deserializeNtB3_14___FieldVisitorNtB12_7Visitor9visit_strpEBa_
FN:12,_RINvXNvXNvNtCskkwNnPUyuBS_8callisto8payloadss_1__NtB8_9SimpleMsgNtNtCs8pDKiTx8cJZ_5serde2de11Deserialize11deserializeNtB3_14___FieldVisitorNtB12_7Visitor11visit_bytespEBa_
FN:12,_RINvXs_NvXNvNtCskkwNnPUyuBS_8callisto8payloadss_1__NtBa_9SimpleMsgNtNtCs8pDKiTx8cJZ_5serde2de11Deserialize11deserializeNtB5_7___FieldB12_11deserializepEBc_
FN:12,_RINvXs0_NvXNvNtCskkwNnPUyuBS_8callisto8payloadss_1__NtBb_9SimpleMsgNtNtCs8pDKiTx8cJZ_5serde2de11Deserialize11deserializeNtB6_9___VisitorNtB15_7Visitor9visit_seqpEBd_
FN:12,_RINvXs0_NvXNvNtCskkwNnPUyuBS_8callisto8payloadss_1__NtBb_9SimpleMsgNtNtCs8pDKiTx8cJZ_5serde2de11Deserialize11deserializeNtB6_9___VisitorNtB15_7Visitor9visit_mappEBd_
FN:18,_RINvXNvXNvNtCskkwNnPUyuBS_8callisto8payloadss1_1__NtB8_8LoginMsgNtNtCs8pDKiTx8cJZ_5serde2de11Deserialize11deserializeNtB3_14___FieldVisitorNtB12_7Visitor9visit_u64pEBa_
FN:18,_RINvXNvXNvNtCskkwNnPUyuBS_8callisto8payloadss1_1__NtB8_8LoginMsgNtNtCs8pDKiTx8cJZ_5serde2de11Deserialize11deserializeNtB3_14___FieldVisitorNtB12_7Visitor9visit_strpEBa_
FN:18,_RINvXNvXNvNtCskkwNnPUyuBS_8callisto8payloadss1_1__NtB8_8LoginMsgNtNtCs8pDKiTx8cJZ_5serde2de11Deserialize11deserializeNtB3_14___FieldVisitorNtB12_7Visitor11visit_bytespEBa_
FN:18,_RINvXs_NvXNvNtCskkwNnPUyuBS_8callisto8payloadss1_1__NtBa_8LoginMsgNtNtCs8pDKiTx8cJZ_5serde2de11Deserialize11deserializeNtB5_7___FieldB12_11deserializepEBc_
FN:18,_RINvXs0_NvXNvNtCskkwNnPUyuBS_8callisto8payloadss1_1__NtBb_8LoginMsgNtNtCs8pDKiTx8cJZ_5serde2de11Deserialize11deserializeNtB6_9___VisitorNtB15_7Visitor9visit_seqpEBd_
FN:18,_RINvXs0_NvXNvNtCskkwNnPUyuBS_8callisto8payloadss1_1__NtBb_8LoginMsgNtNtCs8pDKiTx8cJZ_5serde2de11Deserialize11deserializeNtB6_9___VisitorNtB15_7Visitor9visit_mappEBd_
FN:23,_RINvXNvXNvNtCskkwNnPUyuBS_8callisto8payloadss3_1__NtB8_12AuthResponseNtNtCs8pDKiTx8cJZ_5serde2de11Deserialize11deserializeNtB3_14___FieldVisitorNtB17_7Visitor9visit_u64pEBa_
FN:23,_RINvXNvXNvNtCskkwNnPUyuBS_8callisto8payloadss3_1__NtB8_12AuthResponseNtNtCs8pDKiTx8cJZ_5serde2de11Deserialize11deserializeNtB3_14___FieldVisitorNtB17_7Visitor9visit_strpEBa_
FN:23,_RINvXNvXNvNtCskkwNnPUyuBS_8callisto8payloadss3_1__NtB8_12AuthResponseNtNtCs8pDKiTx8cJZ_5serde2de11Deserialize11deserializeNtB3_14___FieldVisitorNtB17_7Visitor11visit_bytespEBa_
FN:23,_RINvXs_NvXNvNtCskkwNnPUyuBS_8callisto8payloadss3_1__NtBa_12AuthResponseNtNtCs8pDKiTx8cJZ_5serde2de11Deserialize11deserializeNtB5_7___FieldB17_11deserializepEBc_
FN:23,_RINvXs0_NvXNvNtCskkwNnPUyuBS_8callisto8payloadss3_1__NtBb_12AuthResponseNtNtCs8pDKiTx8cJZ_5serde2de11Deserialize11deserializeNtB6_9___VisitorNtB1a_7Visitor9visit_seqpEBd_
FN:23,_RINvXs0_NvXNvNtCskkwNnPUyuBS_8callisto8payloadss3_1__NtBb_12AuthResponseNtNtCs8pDKiTx8cJZ_5serde2de11Deserialize11deserializeNtB6_9___VisitorNtB1a_7Visitor9visit_mappEBd_
FN:30,_RINvXNvXNvNtCskkwNnPUyuBS_8callisto8payloadss4_1__NtB8_10AddShipMsgNtNtCs8pDKiTx8cJZ_5serde3ser9Serialize9serializeNtB3_15___SerializeWithB13_9serializepEBa_
FN:30,_RINvXs_NvXNvNtCskkwNnPUyuBS_8callisto8payloadss4_1__NtBa_10AddShipMsgNtNtCs8pDKiTx8cJZ_5serde3ser9Serialize9serializeNtB5_s_15___SerializeWithB15_9serializepEBc_
FN:30,_RINvXs0_NvXNvNtCskkwNnPUyuBS_8callisto8payloadss4_1__NtBb_10AddShipMsgNtNtCs8pDKiTx8cJZ_5serde3ser9Serialize9serializeNtB6_s0_15___SerializeWithB16_9serializepEBd_
FN:30,_RINvXNvXNvNtCskkwNnPUyuBS_8callisto8payloadss5_1__NtB8_10AddShipMsgNtNtCs8pDKiTx8cJZ_5serde2de11Deserialize11deserializeNtB3_14___FieldVisitorNtB15_7Visitor9visit_u64pEBa_
FN:30,_RINvXNvXNvNtCskkwNnPUyuBS_8callisto8payloadss5_1__NtB8_10AddShipMsgNtNtCs8pDKiTx8cJZ_5serde2de11Deserialize11deserializeNtB3_14___FieldVisitorNtB15_7Visitor9visit_strpEBa_
FN:30,_RINvXNvXNvNtCskkwNnPUyuBS_8callisto8payloadss5_1__NtB8_10AddShipMsgNtNtCs8pDKiTx8cJZ_5serde2de11Deserialize11deserializeNtB3_14___FieldVisitorNtB15_7Visitor11visit_bytespEBa_
FN:30,_RINvXs_NvXNvNtCskkwNnPUyuBS_8callisto8payloadss5_1__NtBa_10AddShipMsgNtNtCs8pDKiTx8cJZ_5serde2de11Deserialize11deserializeNtB5_7___FieldB15_11deserializepEBc_
FN:30,_RINvXs0_NvXNvNtCskkwNnPUyuBS_8callisto8payloadss5_1__NtBb_10AddShipMsgNtNtCs8pDKiTx8cJZ_5serde2de11Deserialize11deserializeNtB6_9___VisitorNtB18_7Visitor9visit_seqpEBd_
FN:30,_RINvXNvXs0_NvXNvNtCskkwNnPUyuBS_8callisto8payloadss5_1__NtBe_10AddShipMsgNtNtCs8pDKiTx8cJZ_5serde2de11Deserialize11deserializeNtB9_9___VisitorNtB1b_7Visitor9visit_seqNtB3_17___DeserializeWithB19_11deserializepEBg_
FN:30,_RNCINvXs0_NvXNvNtCskkwNnPUyuBS_8callisto8payloadss5_1__NtBd_10AddShipMsgNtNtCs8pDKiTx8cJZ_5serde2de11Deserialize11deserializeNtB8_9___VisitorNtB1a_7Visitor9visit_seqpE0Bf_
FN:30,_RINvXs_NvXs0_NvXNvNtCskkwNnPUyuBS_8callisto8payloadss5_1__NtBg_10AddShipMsgNtNtCs8pDKiTx8cJZ_5serde2de11Deserialize11deserializeNtBb_9___VisitorNtB1d_7Visitor9visit_seqNtB5_s_17___DeserializeWithB1b_11deserializepEBi_
FN:30,_RNCINvXs0_NvXNvNtCskkwNnPUyuBS_8callisto8payloadss5_1__NtBd_10AddShipMsgNtNtCs8pDKiTx8cJZ_5serde2de11Deserialize11deserializeNtB8_9___VisitorNtB1a_7Visitor9visit_seqpEs_0Bf_
FN:30,_RINvXs0_NvXs0_NvXNvNtCskkwNnPUyuBS_8callisto8payloadss5_1__NtBh_10AddShipMsgNtNtCs8pDKiTx8cJZ_5serde2de11Deserialize11deserializeNtBc_9___VisitorNtB1e_7Visitor9visit_seqNtB6_s0_17___DeserializeWithB1c_11deserializepEBj_
FN:30,_RNCINvXs0_NvXNvNtCskkwNnPUyuBS_8callisto8payloadss5_1__NtBd_10AddShipMsgNtNtCs8pDKiTx8cJZ_5serde2de11Deserialize11deserializeNtB8_9___VisitorNtB1a_7Visitor9visit_seqpEs0_0Bf_
FN:30,_RINvXs0_NvXNvNtCskkwNnPUyuBS_8callisto8payloadss5_1__NtBb_10AddShipMsgNtNtCs8pDKiTx8cJZ_5serde2de11Deserialize11deserializeNtB6_9___VisitorNtB18_7Visitor9visit_mappEBd_
FN:30,_RINvXNvXs0_NvXNvNtCskkwNnPUyuBS_8callisto8payloadss5_1__NtBe_10AddShipMsgNtNtCs8pDKiTx8cJZ_5serde2de11Deserialize11deserializeNtB9_9___VisitorNtB1b_7Visitor9visit_mapNtB3_17___DeserializeWithB19_11deserializepEBg_
FN:30,_RINvXs_NvXs0_NvXNvNtCskkwNnPUyuBS_8callisto8payloadss5_1__NtBg_10AddShipMsgNtNtCs8pDKiTx8cJZ_5serde2de11Deserialize11deserializeNtBb_9___VisitorNtB1d_7Visitor9visit_mapNtB5_s_17___DeserializeWithB1b_11deserializepEBi_
FN:30,_RINvXs0_NvXs0_NvXNvNtCskkwNnPUyuBS_8callisto8payloadss5_1__NtBh_10AddShipMsgNtNtCs8pDKiTx8cJZ_5serde2de11Deserialize11deserializeNtBc_9___VisitorNtB1e_7Visitor9visit_mapNtB6_s0_17___DeserializeWithB1c_11deserializepEBj_
FN:44,_RINvXNvXNvNtCskkwNnPUyuBS_8callisto8payloadss7_1__NtB8_14SetCrewActionsNtNtCs8pDKiTx8cJZ_5serde2de11Deserialize11deserializeNtB3_14___FieldVisitorNtB19_7Visitor9visit_u64pEBa_
FN:44,_RINvXNvXNvNtCskkwNnPUyuBS_8callisto8payloadss7_1__NtB8_14SetCrewActionsNtNtCs8pDKiTx8cJZ_5serde2de11Deserialize11deserializeNtB3_14___FieldVisitorNtB19_7Visitor9visit_strpEBa_
FN:44,_RINvXNvXNvNtCskkwNnPUyuBS_8callisto8payloadss7_1__NtB8_14SetCrewActionsNtNtCs8pDKiTx8cJZ_5serde2de11Deserialize11deserializeNtB3_14___FieldVisitorNtB19_7Visitor11visit_bytespEBa_
FN:44,_RINvXs_NvXNvNtCskkwNnPUyuBS_8callisto8payloadss7_1__NtBa_14SetCrewActionsNtNtCs8pDKiTx8cJZ_5serde2de11Deserialize11deserializeNtB5_7___FieldB19_11deserializepEBc_
FN:44,_RINvXs0_NvXNvNtCskkwNnPUyuBS_8callisto8payloadss7_1__NtBb_14SetCrewActionsNtNtCs8pDKiTx8cJZ_5serde2de11Deserialize11deserializeNtB6_9___VisitorNtB1c_7Visitor9visit_seqpEBd_
FN:44,_RINvXs0_NvXNvNtCskkwNnPUyuBS_8callisto8payloadss7_1__NtBb_14SetCrewActionsNtNtCs8pDKiTx8cJZ_5serde2de11Deserialize11deserializeNtB6_9___VisitorNtB1c_7Visitor9visit_mappEBd_
FN:69,_RINvXNvXNvNtCskkwNnPUyuBS_8callisto8payloadss9_1__NtB8_12AddPlanetMsgNtNtCs8pDKiTx8cJZ_5serde3ser9Serialize9serializeNtB3_15___SerializeWithB15_9serializepEBa_
FN:69,_RINvXNvXNvNtCskkwNnPUyuBS_8callisto8payloadssa_1__NtB8_12AddPlanetMsgNtNtCs8pDKiTx8cJZ_5serde2de11Deserialize11deserializeNtB3_14___FieldVisitorNtB17_7Visitor9visit_u64pEBa_
FN:69,_RINvXNvXNvNtCskkwNnPUyuBS_8callisto8payloadssa_1__NtB8_12AddPlanetMsgNtNtCs8pDKiTx8cJZ_5serde2de11Deserialize11deserializeNtB3_14___FieldVisitorNtB17_7Visitor9visit_strpEBa_
FN:69,_RINvXNvXNvNtCskkwNnPUyuBS_8callisto8payloadssa_1__NtB8_12AddPlanetMsgNtNtCs8pDKiTx8cJZ_5serde2de11Deserialize11deserializeNtB3_14___FieldVisitorNtB17_7Visitor11visit_bytespEBa_
FN:69,_RINvXs_NvXNvNtCskkwNnPUyuBS_8callisto8payloadssa_1__NtBa_12AddPlanetMsgNtNtCs8pDKiTx8cJZ_5serde2de11Deserialize11deserializeNtB5_7___FieldB17_11deserializepEBc_
FN:69,_RINvXs0_NvXNvNtCskkwNnPUyuBS_8callisto8payloadssa_1__NtBb_12AddPlanetMsgNtNtCs8pDKiTx8cJZ_5serde2de11Deserialize11deserializeNtB6_9___VisitorNtB1a_7Visitor9visit_seqpEBd_
FN:69,_RINvXNvXs0_NvXNvNtCskkwNnPUyuBS_8callisto8payloadssa_1__NtBe_12AddPlanetMsgNtNtCs8pDKiTx8cJZ_5serde2de11Deserialize11deserializeNtB9_9___VisitorNtB1d_7Visitor9visit_seqNtB3_17___DeserializeWithB1b_11deserializepEBg_
FN:69,_RNCINvXs0_NvXNvNtCskkwNnPUyuBS_8callisto8payloadssa_1__NtBd_12AddPlanetMsgNtNtCs8pDKiTx8cJZ_5serde2de11Deserialize11deserializeNtB8_9___VisitorNtB1c_7Visitor9visit_seqpE0Bf_
FN:69,_RINvXs0_NvXNvNtCskkwNnPUyuBS_8callisto8payloadssa_1__NtBb_12AddPlanetMsgNtNtCs8pDKiTx8cJZ_5serde2de11Deserialize11deserializeNtB6_9___VisitorNtB1a_7Visitor9visit_mappEBd_
FN:69,_RINvXNvXs0_NvXNvNtCskkwNnPUyuBS_8callisto8payloadssa_1__NtBe_12AddPlanetMsgNtNtCs8pDKiTx8cJZ_5serde2de11Deserialize11deserializeNtB9_9___VisitorNtB1d_7Visitor9visit_mapNtB3_17___DeserializeWithB1b_11deserializepEBg_
FN:82,_RINvXNvXNvNtCskkwNnPUyuBS_8callisto8payloadssc_1__NtB8_10SetPlanMsgNtNtCs8pDKiTx8cJZ_5serde2de11Deserialize11deserializeNtB3_14___FieldVisitorNtB15_7Visitor9visit_u64pEBa_
FN:82,_RINvXNvXNvNtCskkwNnPUyuBS_8callisto8payloadssc_1__NtB8_10SetPlanMsgNtNtCs8pDKiTx8cJZ_5serde2de11Deserialize11deserializeNtB3_14___FieldVisitorNtB15_7Visitor9visit_strpEBa_
FN:82,_RINvXNvXNvNtCskkwNnPUyuBS_8callisto8payloadssc_1__NtB8_10SetPlanMsgNtNtCs8pDKiTx8cJZ_5serde2de11Deserialize11deserializeNtB3_14___FieldVisitorNtB15_7Visitor11visit_bytespEBa_
FN:82,_RINvXs_NvXNvNtCskkwNnPUyuBS_8callisto8payloadssc_1__NtBa_10SetPlanMsgNtNtCs8pDKiTx8cJZ_5serde2de11Deserialize11deserializeNtB5_7___FieldB15_11deserializepEBc_
FN:82,_RINvXs0_NvXNvNtCskkwNnPUyuBS_8callisto8payloadssc_1__NtBb_10SetPlanMsgNtNtCs8pDKiTx8cJZ_5serde2de11Deserialize11deserializeNtB6_9___VisitorNtB18_7Visitor9visit_seqpEBd_
FN:82,_RINvXs0_NvXNvNtCskkwNnPUyuBS_8callisto8payloadssc_1__NtBb_10SetPlanMsgNtNtCs8pDKiTx8cJZ_5serde2de11Deserialize11deserializeNtB6_9___VisitorNtB18_7Visitor9visit_mappEBd_
FN:89,_RINvXNvXNvNtCskkwNnPUyuBS_8callisto8payloadssd_1__NtB8_14ComputePathMsgNtNtCs8pDKiTx8cJZ_5serde3ser9Serialize9serializeNtB3_15___SerializeWithB17_9serializepEBa_
FN:89,_RINvXs_NvXNvNtCskkwNnPUyuBS_8callisto8payloadssd_1__NtBa_14ComputePathMsgNtNtCs8pDKiTx8cJZ_5serde3ser9Serialize9serializeNtB5_s_15___SerializeWithB19_9serializepEBc_
FN:89,_RINvXs0_NvXNvNtCskkwNnPUyuBS_8callisto8payloadssd_1__NtBb_14ComputePathMsgNtNtCs8pDKiTx8cJZ_5serde3ser9Serialize9serializeNtB6_s0_15___SerializeWithB1a_9serializepEBd_
FN:89,_RINvXNvXNvNtCskkwNnPUyuBS_8callisto8payloadsse_1__NtB8_14ComputePathMsgNtNtCs8pDKiTx8cJZ_5serde2de11Deserialize11deserializeNtB3_14___FieldVisitorNtB19_7Visitor9visit_u64pEBa_
FN:89,_RINvXNvXNvNtCskkwNnPUyuBS_8callisto8payloadsse_1__NtB8_14ComputePathMsgNtNtCs8pDKiTx8cJZ_5serde2de11Deserialize11deserializeNtB3_14___FieldVisitorNtB19_7Visitor9visit_strpEBa_
FN:89,_RINvXNvXNvNtCskkwNnPUyuBS_8callisto8payloadsse_1__NtB8_14ComputePathMsgNtNtCs8pDKiTx8cJZ_5serde2de11Deserialize11deserializeNtB3_14___FieldVisitorNtB19_7Visitor11visit_bytespEBa_
FN:89,_RINvXs_NvXNvNtCskkwNnPUyuBS_8callisto8payloadsse_1__NtBa_14ComputePathMsgNtNtCs8pDKiTx8cJZ_5serde2de11Deserialize11deserializeNtB5_7___FieldB19_11deserializepEBc_
FN:89,_RINvXs0_NvXNvNtCskkwNnPUyuBS_8callisto8payloadsse_1__NtBb_14ComputePathMsgNtNtCs8pDKiTx8cJZ_5serde2de11Deserialize11deserializeNtB6_9___VisitorNtB1c_7Visitor9visit_seqpEBd_
FN:89,_RINvXNvXs0_NvXNvNtCskkwNnPUyuBS_8callisto8payloadsse_1__NtBe_14ComputePathMsgNtNtCs8pDKiTx8cJZ_5serde2de11Deserialize11deserializeNtB9_9___VisitorNtB1f_7Visitor9visit_seqNtB3_17___DeserializeWithB1d_11deserializepEBg_
FN:89,_RNCINvXs0_NvXNvNtCskkwNnPUyuBS_8callisto8payloadsse_1__NtBd_14ComputePathMsgNtNtCs8pDKiTx8cJZ_5serde2de11Deserialize11deserializeNtB8_9___VisitorNtB1e_7Visitor9visit_seqpE0Bf_
FN:89,_RINvXs_NvXs0_NvXNvNtCskkwNnPUyuBS_8callisto8payloadsse_1__NtBg_14ComputePathMsgNtNtCs8pDKiTx8cJZ_5serde2de11Deserialize11deserializeNtBb_9___VisitorNtB1h_7Visitor9visit_seqNtB5_s_17___DeserializeWithB1f_11deserializepEBi_
FN:89,_RNCINvXs0_NvXNvNtCskkwNnPUyuBS_8callisto8payloadsse_1__NtBd_14ComputePathMsgNtNtCs8pDKiTx8cJZ_5serde2de11Deserialize11deserializeNtB8_9___VisitorNtB1e_7Visitor9visit_seqpEs_0Bf_
FN:89,_RINvXs0_NvXs0_NvXNvNtCskkwNnPUyuBS_8callisto8payloadsse_1__NtBh_14ComputePathMsgNtNtCs8pDKiTx8cJZ_5serde2de11Deserialize11deserializeNtBc_9___VisitorNtB1i_7Visitor9visit_seqNtB6_s0_17___DeserializeWithB1g_11deserializepEBj_
FN:89,_RNCINvXs0_NvXNvNtCskkwNnPUyuBS_8callisto8payloadsse_1__NtBd_14ComputePathMsgNtNtCs8pDKiTx8cJZ_5serde2de11Deserialize11deserializeNtB8_9___VisitorNtB1e_7Visitor9visit_seqpEs0_0Bf_
FN:89,_RINvXs0_NvXNvNtCskkwNnPUyuBS_8callisto8payloadsse_1__NtBb_14ComputePathMsgNtNtCs8pDKiTx8cJZ_5serde2de11Deserialize11deserializeNtB6_9___VisitorNtB1c_7Visitor9visit_mappEBd_
FN:89,_RINvXNvXs0_NvXNvNtCskkwNnPUyuBS_8callisto8payloadsse_1__NtBe_14ComputePathMsgNtNtCs8pDKiTx8cJZ_5serde2de11Deserialize11deserializeNtB9_9___VisitorNtB1f_7Visitor9visit_mapNtB3_17___DeserializeWithB1d_11deserializepEBg_
FN:89,_RINvXs_NvXs0_NvXNvNtCskkwNnPUyuBS_8callisto8payloadsse_1__NtBg_14ComputePathMsgNtNtCs8pDKiTx8cJZ_5serde2de11Deserialize11deserializeNtBb_9___VisitorNtB1h_7Visitor9visit_mapNtB5_s_17___DeserializeWithB1f_11deserializepEBi_
FN:89,_RINvXs0_NvXs0_NvXNvNtCskkwNnPUyuBS_8callisto8payloadsse_1__NtBh_14ComputePathMsgNtNtCs8pDKiTx8cJZ_5serde2de11Deserialize11deserializeNtBc_9___VisitorNtB1i_7Visitor9visit_mapNtB6_s0_17___DeserializeWithB1g_11deserializepEBj_
FN:108,_RINvXNvXNvNtCskkwNnPUyuBS_8callisto8payloadssg_1__NtB8_10FireActionNtNtCs8pDKiTx8cJZ_5serde2de11Deserialize11deserializeNtB3_14___FieldVisitorNtB15_7Visitor9visit_u64pEBa_
FN:108,_RINvXNvXNvNtCskkwNnPUyuBS_8callisto8payloadssg_1__NtB8_10FireActionNtNtCs8pDKiTx8cJZ_5serde2de11Deserialize11deserializeNtB3_14___FieldVisitorNtB15_7Visitor9visit_strpEBa_
FN:108,_RINvXNvXNvNtCskkwNnPUyuBS_8callisto8payloadssg_1__NtB8_10FireActionNtNtCs8pDKiTx8cJZ_5serde2de11Deserialize11deserializeNtB3_14___FieldVisitorNtB15_7Visitor11visit_bytespEBa_
FN:108,_RINvXs_NvXNvNtCskkwNnPUyuBS_8callisto8payloadssg_1__NtBa_10FireActionNtNtCs8pDKiTx8cJZ_5serde2de11Deserialize11deserializeNtB5_7___FieldB15_11deserializepEBc_
FN:108,_RINvXs0_NvXNvNtCskkwNnPUyuBS_8callisto8payloadssg_1__NtBb_10FireActionNtNtCs8pDKiTx8cJZ_5serde2de11Deserialize11deserializeNtB6_9___VisitorNtB18_7Visitor9visit_seqpEBd_
FN:108,_RINvXs0_NvXNvNtCskkwNnPUyuBS_8callisto8payloadssg_1__NtBb_10FireActionNtNtCs8pDKiTx8cJZ_5serde2de11Deserialize11deserializeNtB6_9___VisitorNtB18_7Visitor9visit_mappEBd_
FN:123,_RINvXNvXNvNtCskkwNnPUyuBS_8callisto8payloadssi_1__NtB8_9EffectMsgNtNtCs8pDKiTx8cJZ_5serde2de11Deserialize11deserializeNtB3_14___FieldVisitorNtB13_7Visitor9visit_u64pEBa_
FN:123,_RINvXNvXNvNtCskkwNnPUyuBS_8callisto8payloadssi_1__NtB8_9EffectMsgNtNtCs8pDKiTx8cJZ_5serde2de11Deserialize11deserializeNtB3_14___FieldVisitorNtB13_7Visitor9visit_strpEBa_
FN:123,_RINvXNvXNvNtCskkwNnPUyuBS_8callisto8payloadssi_1__NtB8_9EffectMsgNtNtCs8pDKiTx8cJZ_5serde2de11Deserialize11deserializeNtB3_14___FieldVisitorNtB13_7Visitor11visit_bytespEBa_
FN:123,_RINvXs_NvXNvNtCskkwNnPUyuBS_8callisto8payloadssi_1__NtBa_9EffectMsgNtNtCs8pDKiTx8cJZ_5serde2de11Deserialize11deserializeNtB5_7___FieldB13_11deserializepEBc_
FN:123,_RINvXs0_NvXNvNtCskkwNnPUyuBS_8callisto8payloadssi_1__NtBb_9EffectMsgNtNtCs8pDKiTx8cJZ_5serde2de11Deserialize11deserializeNtB6_s_14___FieldVisitorNtB16_7Visitor9visit_u64pEBd_
FN:123,_RINvXs0_NvXNvNtCskkwNnPUyuBS_8callisto8payloadssi_1__NtBb_9EffectMsgNtNtCs8pDKiTx8cJZ_5serde2de11Deserialize11deserializeNtB6_s_14___FieldVisitorNtB16_7Visitor9visit_strpEBd_
FN:123,_RINvXs0_NvXNvNtCskkwNnPUyuBS_8callisto8payloadssi_1__NtBb_9EffectMsgNtNtCs8pDKiTx8cJZ_5serde2de11Deserialize11deserializeNtB6_s_14___FieldVisitorNtB16_7Visitor11visit_bytespEBd_
FN:123,_RINvXs1_NvXNvNtCskkwNnPUyuBS_8callisto8payloadssi_1__NtBb_9EffectMsgNtNtCs8pDKiTx8cJZ_5serde2de11Deserialize11deserializeNtB6_s_7___FieldB14_11deserializepEBd_
FN:123,_RINvXs2_NvXNvNtCskkwNnPUyuBS_8callisto8payloadssi_1__NtBb_9EffectMsgNtNtCs8pDKiTx8cJZ_5serde2de11Deserialize11deserializeNtB6_9___VisitorNtB16_7Visitor9visit_seqpEBd_
FN:123,_RINvXNvXs2_NvXNvNtCskkwNnPUyuBS_8callisto8payloadssi_1__NtBe_9EffectMsgNtNtCs8pDKiTx8cJZ_5serde2de11Deserialize11deserializeNtB9_9___VisitorNtB19_7Visitor9visit_seqNtB3_17___DeserializeWithB17_11deserializepEBg_
FN:123,_RNCINvXs2_NvXNvNtCskkwNnPUyuBS_8callisto8payloadssi_1__NtBd_9EffectMsgNtNtCs8pDKiTx8cJZ_5serde2de11Deserialize11deserializeNtB8_9___VisitorNtB18_7Visitor9visit_seqpE0Bf_
FN:123,_RINvXs2_NvXNvNtCskkwNnPUyuBS_8callisto8payloadssi_1__NtBb_9EffectMsgNtNtCs8pDKiTx8cJZ_5serde2de11Deserialize11deserializeNtB6_9___VisitorNtB16_7Visitor9visit_mappEBd_
FN:123,_RINvXNvXs2_NvXNvNtCskkwNnPUyuBS_8callisto8payloadssi_1__NtBe_9EffectMsgNtNtCs8pDKiTx8cJZ_5serde2de11Deserialize11deserializeNtB9_9___VisitorNtB19_7Visitor9visit_mapNtB3_17___DeserializeWithB17_11deserializepEBg_
FN:123,_RINvXs3_NvXNvNtCskkwNnPUyuBS_8callisto8payloadssi_1__NtBb_9EffectMsgNtNtCs8pDKiTx8cJZ_5serde2de11Deserialize11deserializeNtB6_s0_14___FieldVisitorNtB16_7Visitor9visit_u64pEBd_
FN:123,_RINvXs3_NvXNvNtCskkwNnPUyuBS_8callisto8payloadssi_1__NtBb_9EffectMsgNtNtCs8pDKiTx8cJZ_5serde2de11Deserialize11deserializeNtB6_s0_14___FieldVisitorNtB16_7Visitor9visit_strpEBd_
FN:123,_RINvXs3_NvXNvNtCskkwNnPUyuBS_8callisto8payloadssi_1__NtBb_9EffectMsgNtNtCs8pDKiTx8cJZ_5serde2de11Deserialize11deserializeNtB6_s0_14___FieldVisitorNtB16_7Visitor11visit_bytespEBd_
FN:123,_RINvXs4_NvXNvNtCskkwNnPUyuBS_8callisto8payloadssi_1__NtBb_9EffectMsgNtNtCs8pDKiTx8cJZ_5serde2de11Deserialize11deserializeNtB6_s0_7___FieldB14_11deserializepEBd_
FN:123,_RINvXs5_NvXNvNtCskkwNnPUyuBS_8callisto8payloadssi_1__NtBb_9EffectMsgNtNtCs8pDKiTx8cJZ_5serde2de11Deserialize11deserializeNtB6_s_9___VisitorNtB16_7Visitor9visit_seqpEBd_
FN:123,_RINvXNvXs5_NvXNvNtCskkwNnPUyuBS_8callisto8payloadssi_1__NtBe_9EffectMsgNtNtCs8pDKiTx8cJZ_5serde2de11Deserialize11deserializeNtB9_s_9___VisitorNtB19_7Visitor9visit_seqNtB3_17___DeserializeWithB17_11deserializepEBg_
FN:123,_RNCINvXs5_NvXNvNtCskkwNnPUyuBS_8callisto8payloadssi_1__NtBd_9EffectMsgNtNtCs8pDKiTx8cJZ_5serde2de11Deserialize11deserializeNtB8_s_9___VisitorNtB18_7Visitor9visit_seqpE0Bf_
FN:123,_RINvXs5_NvXNvNtCskkwNnPUyuBS_8callisto8payloadssi_1__NtBb_9EffectMsgNtNtCs8pDKiTx8cJZ_5serde2de11Deserialize11deserializeNtB6_s_9___VisitorNtB16_7Visitor9visit_mappEBd_
FN:123,_RINvXNvXs5_NvXNvNtCskkwNnPUyuBS_8callisto8payloadssi_1__NtBe_9EffectMsgNtNtCs8pDKiTx8cJZ_5serde2de11Deserialize11deserializeNtB9_s_9___VisitorNtB19_7Visitor9visit_mapNtB3_17___DeserializeWithB17_11deserializepEBg_
FN:123,_RINvXs6_NvXNvNtCskkwNnPUyuBS_8callisto8payloadssi_1__NtBb_9EffectMsgNtNtCs8pDKiTx8cJZ_5serde2de11Deserialize11deserializeNtB6_s1_14___FieldVisitorNtB16_7Visitor9visit_u64pEBd_
FN:123,_RINvXs6_NvXNvNtCskkwNnPUyuBS_8callisto8payloadssi_1__NtBb_9EffectMsgNtNtCs8pDKiTx8cJZ_5serde2de11Deserialize11deserializeNtB6_s1_14___FieldVisitorNtB16_7Visitor9visit_strpEBd_
FN:123,_RINvXs6_NvXNvNtCskkwNnPUyuBS_8callisto8payloadssi_1__NtBb_9EffectMsgNtNtCs8pDKiTx8cJZ_5serde2de11Deserialize11deserializeNtB6_s1_14___FieldVisitorNtB16_7Visitor11visit_bytespEBd_
FN:123,_RINvXs7_NvXNvNtCskkwNnPUyuBS_8callisto8payloadssi_1__NtBb_9EffectMsgNtNtCs8pDKiTx8cJZ_5serde2de11Deserialize11deserializeNtB6_s1_7___FieldB14_11deserializepEBd_
FN:123,_RINvXs8_NvXNvNtCskkwNnPUyuBS_8callisto8payloadssi_1__NtBb_9EffectMsgNtNtCs8pDKiTx8cJZ_5serde2de11Deserialize11deserializeNtB6_s0_9___VisitorNtB16_7Visitor9visit_seqpEBd_
FN:123,_RINvXNvXs8_NvXNvNtCskkwNnPUyuBS_8callisto8payloadssi_1__NtBe_9EffectMsgNtNtCs8pDKiTx8cJZ_5serde2de11Deserialize11deserializeNtB9_s0_9___VisitorNtB19_7Visitor9visit_seqNtB3_17___DeserializeWithB17_11deserializepEBg_
FN:123,_RNCINvXs8_NvXNvNtCskkwNnPUyuBS_8callisto8payloadssi_1__NtBd_9EffectMsgNtNtCs8pDKiTx8cJZ_5serde2de11Deserialize11deserializeNtB8_s0_9___VisitorNtB18_7Visitor9visit_seqpE0Bf_
FN:123,_RINvXs8_NvXNvNtCskkwNnPUyuBS_8callisto8payloadssi_1__NtBb_9EffectMsgNtNtCs8pDKiTx8cJZ_5serde2de11Deserialize11deserializeNtB6_s0_9___VisitorNtB16_7Visitor9visit_mappEBd_
FN:123,_RINvXNvXs8_NvXNvNtCskkwNnPUyuBS_8callisto8payloadssi_1__NtBe_9EffectMsgNtNtCs8pDKiTx8cJZ_5serde2de11Deserialize11deserializeNtB9_s0_9___VisitorNtB19_7Visitor9visit_mapNtB3_17___DeserializeWithB17_11deserializepEBg_
FN:123,_RINvXs9_NvXNvNtCskkwNnPUyuBS_8callisto8payloadssi_1__NtBb_9EffectMsgNtNtCs8pDKiTx8cJZ_5serde2de11Deserialize11deserializeNtB6_s2_14___FieldVisitorNtB16_7Visitor9visit_u64pEBd_
FN:123,_RINvXs9_NvXNvNtCskkwNnPUyuBS_8callisto8payloadssi_1__NtBb_9EffectMsgNtNtCs8pDKiTx8cJZ_5serde2de11Deserialize11deserializeNtB6_s2_14___FieldVisitorNtB16_7Visitor9visit_strpEBd_
FN:123,_RINvXs9_NvXNvNtCskkwNnPUyuBS_8callisto8payloadssi_1__NtBb_9EffectMsgNtNtCs8pDKiTx8cJZ_5serde2de11Deserialize11deserializeNtB6_s2_14___FieldVisitorNtB16_7Visitor11visit_bytespEBd_
FN:123,_RINvXsa_NvXNvNtCskkwNnPUyuBS_8callisto8payloadssi_1__NtBb_9EffectMsgNtNtCs8pDKiTx8cJZ_5serde2de11Deserialize11deserializeNtB6_s2_7___FieldB14_11deserializepEBd_
FN:123,_RINvXsb_NvXNvNtCskkwNnPUyuBS_8callisto8payloadssi_1__NtBb_9EffectMsgNtNtCs8pDKiTx8cJZ_5serde2de11Deserialize11deserializeNtB6_s1_9___VisitorNtB16_7Visitor9visit_seqpEBd_
FN:123,_RINvXNvXsb_NvXNvNtCskkwNnPUyuBS_8callisto8payloadssi_1__NtBe_9EffectMsgNtNtCs8pDKiTx8cJZ_5serde2de11Deserialize11deserializeNtB9_s1_9___VisitorNtB19_7Visitor9visit_seqNtB3_17___DeserializeWithB17_11deserializepEBg_
FN:123,_RNCINvXsb_NvXNvNtCskkwNnPUyuBS_8callisto8payloadssi_1__NtBd_9EffectMsgNtNtCs8pDKiTx8cJZ_5serde2de11Deserialize11deserializeNtB8_s1_9___VisitorNtB18_7Visitor9visit_seqpE0Bf_
FN:123,_RINvXs_NvXsb_NvXNvNtCskkwNnPUyuBS_8callisto8payloadssi_1__NtBg_9EffectMsgNtNtCs8pDKiTx8cJZ_5serde2de11Deserialize11deserializeNtBb_s1_9___VisitorNtB1b_7Visitor9visit_seqNtB5_s_17___DeserializeWithB19_11deserializepEBi_
FN:123,_RNCINvXsb_NvXNvNtCskkwNnPUyuBS_8callisto8payloadssi_1__NtBd_9EffectMsgNtNtCs8pDKiTx8cJZ_5serde2de11Deserialize11deserializeNtB8_s1_9___VisitorNtB18_7Visitor9visit_seqpEs_0Bf_
FN:123,_RINvXsb_NvXNvNtCskkwNnPUyuBS_8callisto8payloadssi_1__NtBb_9EffectMsgNtNtCs8pDKiTx8cJZ_5serde2de11Deserialize11deserializeNtB6_s1_9___VisitorNtB16_7Visitor9visit_mappEBd_
FN:123,_RINvXNvXsb_NvXNvNtCskkwNnPUyuBS_8callisto8payloadssi_1__NtBe_9EffectMsgNtNtCs8pDKiTx8cJZ_5serde2de11Deserialize11deserializeNtB9_s1_9___VisitorNtB19_7Visitor9visit_mapNtB3_17___DeserializeWithB17_11deserializepEBg_
FN:123,_RINvXs_NvXsb_NvXNvNtCskkwNnPUyuBS_8callisto8payloadssi_1__NtBg_9EffectMsgNtNtCs8pDKiTx8cJZ_5serde2de11Deserialize11deserializeNtBb_s1_9___VisitorNtB1b_7Visitor9visit_mapNtB5_s_17___DeserializeWithB19_11deserializepEBi_
FN:123,_RINvXsc_NvXNvNtCskkwNnPUyuBS_8callisto8payloadssi_1__NtBb_9EffectMsgNtNtCs8pDKiTx8cJZ_5serde2de11Deserialize11deserializeNtB6_s3_14___FieldVisitorNtB16_7Visitor9visit_u64pEBd_
FN:123,_RINvXsc_NvXNvNtCskkwNnPUyuBS_8callisto8payloadssi_1__NtBb_9EffectMsgNtNtCs8pDKiTx8cJZ_5serde2de11Deserialize11deserializeNtB6_s3_14___FieldVisitorNtB16_7Visitor9visit_strpEBd_
FN:123,_RINvXsc_NvXNvNtCskkwNnPUyuBS_8callisto8payloadssi_1__NtBb_9EffectMsgNtNtCs8pDKiTx8cJZ_5serde2de11Deserialize11deserializeNtB6_s3_14___FieldVisitorNtB16_7Visitor11visit_bytespEBd_
FN:123,_RINvXsd_NvXNvNtCskkwNnPUyuBS_8callisto8payloadssi_1__NtBb_9EffectMsgNtNtCs8pDKiTx8cJZ_5serde2de11Deserialize11deserializeNtB6_s3_7___FieldB14_11deserializepEBd_
FN:123,_RINvXse_NvXNvNtCskkwNnPUyuBS_8callisto8payloadssi_1__NtBb_9EffectMsgNtNtCs8pDKiTx8cJZ_5serde2de11Deserialize11deserializeNtB6_s2_9___VisitorNtB16_7Visitor9visit_seqpEBd_
FN:123,_RINvXse_NvXNvNtCskkwNnPUyuBS_8callisto8payloadssi_1__NtBb_9EffectMsgNtNtCs8pDKiTx8cJZ_5serde2de11Deserialize11deserializeNtB6_s2_9___VisitorNtB16_7Visitor9visit_mappEBd_
FN:154,_RINvXNvXNvNtCskkwNnPUyuBS_8callisto8payloadssk_1__NtB8_15LoadScenarioMsgNtNtCs8pDKiTx8cJZ_5serde2de11Deserialize11deserializeNtB3_14___FieldVisitorNtB1a_7Visitor9visit_u64pEBa_
FN:154,_RINvXNvXNvNtCskkwNnPUyuBS_8callisto8payloadssk_1__NtB8_15LoadScenarioMsgNtNtCs8pDKiTx8cJZ_5serde2de11Deserialize11deserializeNtB3_14___FieldVisitorNtB1a_7Visitor9visit_strpEBa_
FN:154,_RINvXNvXNvNtCskkwNnPUyuBS_8callisto8payloadssk_1__NtB8_15LoadScenarioMsgNtNtCs8pDKiTx8cJZ_5serde2de11Deserialize11deserializeNtB3_14___FieldVisitorNtB1a_7Visitor11visit_bytespEBa_
FN:154,_RINvXs_NvXNvNtCskkwNnPUyuBS_8callisto8payloadssk_1__NtBa_15LoadScenarioMsgNtNtCs8pDKiTx8cJZ_5serde2de11Deserialize11deserializeNtB5_7___FieldB1a_11deserializepEBc_
FN:154,_RINvXs0_NvXNvNtCskkwNnPUyuBS_8callisto8payloadssk_1__NtBb_15LoadScenarioMsgNtNtCs8pDKiTx8cJZ_5serde2de11Deserialize11deserializeNtB6_9___VisitorNtB1d_7Visitor9visit_seqpEBd_
FN:154,_RINvXs0_NvXNvNtCskkwNnPUyuBS_8callisto8payloadssk_1__NtBb_15LoadScenarioMsgNtNtCs8pDKiTx8cJZ_5serde2de11Deserialize11deserializeNtB6_9___VisitorNtB1d_7Visitor9visit_mappEBd_
FN:123,_RINvXNvXNvNtCskkwNnPUyuBS_8callisto8payloadssh_1__NtB8_9EffectMsgNtNtCs8pDKiTx8cJZ_5serde3ser9Serialize9serializeNtB3_15___SerializeWithB11_9serializeQINtNtCse3EK68OXEkC_10serde_json3ser10SerializerQINtNtCsdze8u8oDPro_5alloc3vec3VechEEEBa_
FN:123,_RINvXs_NvXNvNtCskkwNnPUyuBS_8callisto8payloadssh_1__NtBa_9EffectMsgNtNtCs8pDKiTx8cJZ_5serde3ser9Serialize9serializeNtB5_s_15___SerializeWithB13_9serializeQINtNtCse3EK68OXEkC_10serde_json3ser10SerializerQINtNtCsdze8u8oDPro_5alloc3vec3VechEEEBc_
FN:123,_RINvXs0_NvXNvNtCskkwNnPUyuBS_8callisto8payloadssh_1__NtBb_9EffectMsgNtNtCs8pDKiTx8cJZ_5serde3ser9Serialize9serializeNtB6_s0_15___SerializeWithB14_9serializeQINtNtCse3EK68OXEkC_10serde_json3ser10SerializerQINtNtCsdze8u8oDPro_5alloc3vec3VechEEEBd_
FN:123,_RINvXs1_NvXNvNtCskkwNnPUyuBS_8callisto8payloadssh_1__NtBb_9EffectMsgNtNtCs8pDKiTx8cJZ_5serde3ser9Serialize9serializeNtB6_s1_15___SerializeWithB14_9serializeQINtNtCse3EK68OXEkC_10serde_json3ser10SerializerQINtNtCsdze8u8oDPro_5alloc3vec3VechEEEBd_
FN:123,_RINvXs2_NvXNvNtCskkwNnPUyuBS_8callisto8payloadssh_1__NtBb_9EffectMsgNtNtCs8pDKiTx8cJZ_5serde3ser9Serialize9serializeNtB6_s2_15___SerializeWithB14_9serializeQINtNtCse3EK68OXEkC_10serde_json3ser10SerializerQINtNtCsdze8u8oDPro_5alloc3vec3VechEEEBd_
FN:166,_RNCINvMNvNtCskkwNnPUyuBS_8callisto8payloadssl_1__NtB7_9Vec3asVec9serializeQINtNtCse3EK68OXEkC_10serde_json3ser10SerializerQINtNtCsdze8u8oDPro_5alloc3vec3VechEEE0B9_
FN:167,_RNCINvMNvNtCskkwNnPUyuBS_8callisto8payloadssl_1__NtB7_9Vec3asVec11deserializeQINtNtCse3EK68OXEkC_10serde_json2de12DeserializerNtNtB1j_4read7StrReadEE0B9_
FN:52,_RNvMNtCscBGMVToPeRm_8callisto8payloadsNtB2_14SetCrewActions3new
FN:149,_RNvMs_NtCscBGMVToPeRm_8callisto8payloadsNtB4_9EffectMsg7message
FN:18,_RNvXs0_NvXNvNtCscBGMVToPeRm_8callisto8payloadss1_1__NtBa_8LoginMsgNtNtCs8pDKiTx8cJZ_5serde2de11Deserialize11deserializeNtB5_9___VisitorNtB14_7Visitor9expecting
FN:23,_RNvXs0_NvXNvNtCscBGMVToPeRm_8callisto8payloadss3_1__NtBa_12AuthResponseNtNtCs8pDKiTx8cJZ_5serde2de11Deserialize11deserializeNtB5_9___VisitorNtB19_7Visitor9expecting
FN:30,_RNvXs0_NvXNvNtCscBGMVToPeRm_8callisto8payloadss5_1__NtBa_10AddShipMsgNtNtCs8pDKiTx8cJZ_5serde2de11Deserialize11deserializeNtB5_9___VisitorNtB17_7Visitor9expecting
FN:44,_RNvXs0_NvXNvNtCscBGMVToPeRm_8callisto8payloadss7_1__NtBa_14SetCrewActionsNtNtCs8pDKiTx8cJZ_5serde2de11Deserialize11deserializeNtB5_9___VisitorNtB1b_7Visitor9expecting
FN:69,_RNvXs0_NvXNvNtCscBGMVToPeRm_8callisto8payloadssa_1__NtBa_12AddPlanetMsgNtNtCs8pDKiTx8cJZ_5serde2de11Deserialize11deserializeNtB5_9___VisitorNtB19_7Visitor9expecting
FN:82,_RNvXs0_NvXNvNtCscBGMVToPeRm_8callisto8payloadssc_1__NtBa_10SetPlanMsgNtNtCs8pDKiTx8cJZ_5serde2de11Deserialize11deserializeNtB5_9___VisitorNtB17_7Visitor9expecting
FN:89,_RNvXs0_NvXNvNtCscBGMVToPeRm_8callisto8payloadsse_1__NtBa_14ComputePathMsgNtNtCs8pDKiTx8cJZ_5serde2de11Deserialize11deserializeNtB5_9___VisitorNtB1b_7Visitor9expecting
FN:108,_RNvXs0_NvXNvNtCscBGMVToPeRm_8callisto8payloadssg_1__NtBa_10FireActionNtNtCs8pDKiTx8cJZ_5serde2de11Deserialize11deserializeNtB5_9___VisitorNtB17_7Visitor9expecting
FN:123,_RNvXNvXNvNtCscBGMVToPeRm_8callisto8payloadssi_1__NtB7_9EffectMsgNtNtCs8pDKiTx8cJZ_5serde2de11Deserialize11deserializeNtB2_14___FieldVisitorNtB12_7Visitor9expecting
FN:123,_RNvXs0_NvXNvNtCscBGMVToPeRm_8callisto8payloadssi_1__NtBa_9EffectMsgNtNtCs8pDKiTx8cJZ_5serde2de11Deserialize11deserializeNtB5_s_14___FieldVisitorNtB15_7Visitor9expecting
FN:123,_RNvXs2_NvXNvNtCscBGMVToPeRm_8callisto8payloadssi_1__NtBa_9EffectMsgNtNtCs8pDKiTx8cJZ_5serde2de11Deserialize11deserializeNtB5_9___VisitorNtB15_7Visitor9expecting
FN:123,_RNvXs3_NvXNvNtCscBGMVToPeRm_8callisto8payloadssi_1__NtBa_9EffectMsgNtNtCs8pDKiTx8cJZ_5serde2de11Deserialize11deserializeNtB5_s0_14___FieldVisitorNtB15_7Visitor9expecting
FN:123,_RNvXs5_NvXNvNtCscBGMVToPeRm_8callisto8payloadssi_1__NtBa_9EffectMsgNtNtCs8pDKiTx8cJZ_5serde2de11Deserialize11deserializeNtB5_s_9___VisitorNtB15_7Visitor9expecting
FN:123,_RNvXs6_NvXNvNtCscBGMVToPeRm_8callisto8payloadssi_1__NtBa_9EffectMsgNtNtCs8pDKiTx8cJZ_5serde2de11Deserialize11deserializeNtB5_s1_14___FieldVisitorNtB15_7Visitor9expecting
FN:123,_RNvXs8_NvXNvNtCscBGMVToPeRm_8callisto8payloadssi_1__NtBa_9EffectMsgNtNtCs8pDKiTx8cJZ_5serde2de11Deserialize11deserializeNtB5_s0_9___VisitorNtB15_7Visitor9expecting
FN:123,_RNvXs9_NvXNvNtCscBGMVToPeRm_8callisto8payloadssi_1__NtBa_9EffectMsgNtNtCs8pDKiTx8cJZ_5serde2de11Deserialize11deserializeNtB5_s2_14___FieldVisitorNtB15_7Visitor9expecting
FN:123,_RNvXsb_NvXNvNtCscBGMVToPeRm_8callisto8payloadssi_1__NtBa_9EffectMsgNtNtCs8pDKiTx8cJZ_5serde2de11Deserialize11deserializeNtB5_s1_9___VisitorNtB15_7Visitor9expecting
FN:123,_RNvXsc_NvXNvNtCscBGMVToPeRm_8callisto8payloadssi_1__NtBa_9EffectMsgNtNtCs8pDKiTx8cJZ_5serde2de11Deserialize11deserializeNtB5_s3_14___FieldVisitorNtB15_7Visitor9expecting
FN:123,_RNvXse_NvXNvNtCscBGMVToPeRm_8callisto8payloadssi_1__NtBa_9EffectMsgNtNtCs8pDKiTx8cJZ_5serde2de11Deserialize11deserializeNtB5_s2_9___VisitorNtB15_7Visitor9expecting
FN:154,_RNvXs0_NvXNvNtCscBGMVToPeRm_8callisto8payloadssk_1__NtBa_15LoadScenarioMsgNtNtCs8pDKiTx8cJZ_5serde2de11Deserialize11deserializeNtB5_9___VisitorNtB1c_7Visitor9expecting
FN:12,_RNvXNvXNvNtCscBGMVToPeRm_8callisto8payloadss_1__NtB7_9SimpleMsgNtNtCs8pDKiTx8cJZ_5serde2de11Deserialize11deserializeNtB2_14___FieldVisitorNtB11_7Visitor9expecting
FN:12,_RINvXNvXNvNtCscBGMVToPeRm_8callisto8payloadss_1__NtB8_9SimpleMsgNtNtCs8pDKiTx8cJZ_5serde2de11Deserialize11deserializeNtB3_14___FieldVisitorNtB12_7Visitor9visit_u64pEBa_
FN:12,_RINvXNvXNvNtCscBGMVToPeRm_8callisto8payloadss_1__NtB8_9SimpleMsgNtNtCs8pDKiTx8cJZ_5serde2de11Deserialize11deserializeNtB3_14___FieldVisitorNtB12_7Visitor9visit_strpEBa_
FN:12,_RINvXNvXNvNtCscBGMVToPeRm_8callisto8payloadss_1__NtB8_9SimpleMsgNtNtCs8pDKiTx8cJZ_5serde2de11Deserialize11deserializeNtB3_14___FieldVisitorNtB12_7Visitor11visit_bytespEBa_
FN:12,_RINvXs_NvXNvNtCscBGMVToPeRm_8callisto8payloadss_1__NtBa_9SimpleMsgNtNtCs8pDKiTx8cJZ_5serde2de11Deserialize11deserializeNtB5_7___FieldB12_11deserializepEBc_
FN:12,_RNvXs0_NvXNvNtCscBGMVToPeRm_8callisto8payloadss_1__NtBa_9SimpleMsgNtNtCs8pDKiTx8cJZ_5serde2de11Deserialize11deserializeNtB5_9___VisitorNtB14_7Visitor9expecting
FN:12,_RINvXs0_NvXNvNtCscBGMVToPeRm_8callisto8payloadss_1__NtBb_9SimpleMsgNtNtCs8pDKiTx8cJZ_5serde2de11Deserialize11deserializeNtB6_9___VisitorNtB15_7Visitor9visit_seqpEBd_
FN:12,_RINvXs0_NvXNvNtCscBGMVToPeRm_8callisto8payloadss_1__NtBb_9SimpleMsgNtNtCs8pDKiTx8cJZ_5serde2de11Deserialize11deserializeNtB6_9___VisitorNtB15_7Visitor9visit_mappEBd_
FN:18,_RNvXNvXNvNtCscBGMVToPeRm_8callisto8payloadss1_1__NtB7_8LoginMsgNtNtCs8pDKiTx8cJZ_5serde2de11Deserialize11deserializeNtB2_14___FieldVisitorNtB11_7Visitor9expecting
FN:18,_RINvXNvXNvNtCscBGMVToPeRm_8callisto8payloadss1_1__NtB8_8LoginMsgNtNtCs8pDKiTx8cJZ_5serde2de11Deserialize11deserializeNtB3_14___FieldVisitorNtB12_7Visitor9visit_u64pEBa_
FN:18,_RINvXNvXNvNtCscBGMVToPeRm_8callisto8payloadss1_1__NtB8_8LoginMsgNtNtCs8pDKiTx8cJZ_5serde2de11Deserialize11deserializeNtB3_14___FieldVisitorNtB12_7Visitor11visit_bytespEBa_
FN:23,_RNvXNvXNvNtCscBGMVToPeRm_8callisto8payloadss3_1__NtB7_12AuthResponseNtNtCs8pDKiTx8cJZ_5serde2de11Deserialize11deserializeNtB2_14___FieldVisitorNtB16_7Visitor9expecting
FN:23,_RINvXNvXNvNtCscBGMVToPeRm_8callisto8payloadss3_1__NtB8_12AuthResponseNtNtCs8pDKiTx8cJZ_5serde2de11Deserialize11deserializeNtB3_14___FieldVisitorNtB17_7Visitor9visit_u64pEBa_
FN:23,_RINvXNvXNvNtCscBGMVToPeRm_8callisto8payloadss3_1__NtB8_12AuthResponseNtNtCs8pDKiTx8cJZ_5serde2de11Deserialize11deserializeNtB3_14___FieldVisitorNtB17_7Visitor11visit_bytespEBa_
FN:30,_RNvXNvXNvNtCscBGMVToPeRm_8callisto8payloadss5_1__NtB7_10AddShipMsgNtNtCs8pDKiTx8cJZ_5serde2de11Deserialize11deserializeNtB2_14___FieldVisitorNtB14_7Visitor9expecting
FN:30,_RINvXNvXNvNtCscBGMVToPeRm_8callisto8payloadss5_1__NtB8_10AddShipMsgNtNtCs8pDKiTx8cJZ_5serde2de11Deserialize11deserializeNtB3_14___FieldVisitorNtB15_7Visitor9visit_u64pEBa_
FN:30,_RINvXNvXNvNtCscBGMVToPeRm_8callisto8payloadss5_1__NtB8_10AddShipMsgNtNtCs8pDKiTx8cJZ_5serde2de11Deserialize11deserializeNtB3_14___FieldVisitorNtB15_7Visitor11visit_bytespEBa_
FN:44,_RNvXNvXNvNtCscBGMVToPeRm_8callisto8payloadss7_1__NtB7_14SetCrewActionsNtNtCs8pDKiTx8cJZ_5serde2de11Deserialize11deserializeNtB2_14___FieldVisitorNtB18_7Visitor9expecting
FN:44,_RINvXNvXNvNtCscBGMVToPeRm_8callisto8payloadss7_1__NtB8_14SetCrewActionsNtNtCs8pDKiTx8cJZ_5serde2de11Deserialize11deserializeNtB3_14___FieldVisitorNtB19_7Visitor9visit_u64pEBa_
FN:44,_RINvXNvXNvNtCscBGMVToPeRm_8callisto8payloadss7_1__NtB8_14SetCrewActionsNtNtCs8pDKiTx8cJZ_5serde2de11Deserialize11deserializeNtB3_14___FieldVisitorNtB19_7Visitor11visit_bytespEBa_
FN:69,_RINvXNvXNvNtCscBGMVToPeRm_8callisto8payloadss9_1__NtB8_12AddPlanetMsgNtNtCs8pDKiTx8cJZ_5serde3ser9Serialize9serializeNtB3_15___SerializeWithB15_9serializepEBa_
FN:69,_RNvXNvXNvNtCscBGMVToPeRm_8callisto8payloadssa_1__NtB7_12AddPlanetMsgNtNtCs8pDKiTx8cJZ_5serde2de11Deserialize11deserializeNtB2_14___FieldVisitorNtB16_7Visitor9expecting
FN:69,_RINvXNvXNvNtCscBGMVToPeRm_8callisto8payloadssa_1__NtB8_12AddPlanetMsgNtNtCs8pDKiTx8cJZ_5serde2de11Deserialize11deserializeNtB3_14___FieldVisitorNtB17_7Visitor9visit_u64pEBa_
FN:69,_RINvXNvXNvNtCscBGMVToPeRm_8callisto8payloadssa_1__NtB8_12AddPlanetMsgNtNtCs8pDKiTx8cJZ_5serde2de11Deserialize11deserializeNtB3_14___FieldVisitorNtB17_7Visitor11visit_bytespEBa_
FN:82,_RNvXNvXNvNtCscBGMVToPeRm_8callisto8payloadssc_1__NtB7_10SetPlanMsgNtNtCs8pDKiTx8cJZ_5serde2de11Deserialize11deserializeNtB2_14___FieldVisitorNtB14_7Visitor9expecting
FN:82,_RINvXNvXNvNtCscBGMVToPeRm_8callisto8payloadssc_1__NtB8_10SetPlanMsgNtNtCs8pDKiTx8cJZ_5serde2de11Deserialize11deserializeNtB3_14___FieldVisitorNtB15_7Visitor9visit_u64pEBa_
FN:82,_RINvXNvXNvNtCscBGMVToPeRm_8callisto8payloadssc_1__NtB8_10SetPlanMsgNtNtCs8pDKiTx8cJZ_5serde2de11Deserialize11deserializeNtB3_14___FieldVisitorNtB15_7Visitor11visit_bytespEBa_
FN:89,_RNvXNvXNvNtCscBGMVToPeRm_8callisto8payloadsse_1__NtB7_14ComputePathMsgNtNtCs8pDKiTx8cJZ_5serde2de11Deserialize11deserializeNtB2_14___FieldVisitorNtB18_7Visitor9expecting
FN:89,_RINvXNvXNvNtCscBGMVToPeRm_8callisto8payloadsse_1__NtB8_14ComputePathMsgNtNtCs8pDKiTx8cJZ_5serde2de11Deserialize11deserializeNtB3_14___FieldVisitorNtB19_7Visitor9visit_u64pEBa_
FN:89,_RINvXNvXNvNtCscBGMVToPeRm_8callisto8payloadsse_1__NtB8_14ComputePathMsgNtNtCs8pDKiTx8cJZ_5serde2de11Deserialize11deserializeNtB3_14___FieldVisitorNtB19_7Visitor11visit_bytespEBa_
FN:108,_RNvXNvXNvNtCscBGMVToPeRm_8callisto8payloadssg_1__NtB7_10FireActionNtNtCs8pDKiTx8cJZ_5serde2de11Deserialize11deserializeNtB2_14___FieldVisitorNtB14_7Visitor9expecting
FN:108,_RINvXNvXNvNtCscBGMVToPeRm_8callisto8payloadssg_1__NtB8_10FireActionNtNtCs8pDKiTx8cJZ_5serde2de11Deserialize11deserializeNtB3_14___FieldVisitorNtB15_7Visitor9visit_u64pEBa_
FN:108,_RINvXNvXNvNtCscBGMVToPeRm_8callisto8payloadssg_1__NtB8_10FireActionNtNtCs8pDKiTx8cJZ_5serde2de11Deserialize11deserializeNtB3_14___FieldVisitorNtB15_7Visitor11visit_bytespEBa_
FN:123,_RINvXNvXNvNtCscBGMVToPeRm_8callisto8payloadssi_1__NtB8_9EffectMsgNtNtCs8pDKiTx8cJZ_5serde2de11Deserialize11deserializeNtB3_14___FieldVisitorNtB13_7Visitor9visit_u64pEBa_
FN:123,_RINvXNvXNvNtCscBGMVToPeRm_8callisto8payloadssi_1__NtB8_9EffectMsgNtNtCs8pDKiTx8cJZ_5serde2de11Deserialize11deserializeNtB3_14___FieldVisitorNtB13_7Visitor11visit_bytespEBa_
FN:154,_RNvXNvXNvNtCscBGMVToPeRm_8callisto8payloadssk_1__NtB7_15LoadScenarioMsgNtNtCs8pDKiTx8cJZ_5serde2de11Deserialize11deserializeNtB2_14___FieldVisitorNtB19_7Visitor9expecting
FN:154,_RINvXNvXNvNtCscBGMVToPeRm_8callisto8payloadssk_1__NtB8_15LoadScenarioMsgNtNtCs8pDKiTx8cJZ_5serde2de11Deserialize11deserializeNtB3_14___FieldVisitorNtB1a_7Visitor9visit_u64pEBa_
FN:154,_RINvXNvXNvNtCscBGMVToPeRm_8callisto8payloadssk_1__NtB8_15LoadScenarioMsgNtNtCs8pDKiTx8cJZ_5serde2de11Deserialize11deserializeNtB3_14___FieldVisitorNtB1a_7Visitor11visit_bytespEBa_
FN:18,_RINvXNvXNvNtCscBGMVToPeRm_8callisto8payloadss1_1__NtB8_8LoginMsgNtNtCs8pDKiTx8cJZ_5serde2de11Deserialize11deserializeNtB3_14___FieldVisitorNtB12_7Visitor9visit_strNtNtCse3EK68OXEkC_10serde_json5error5ErrorEBa_
FN:18,_RINvXs_NvXNvNtCscBGMVToPeRm_8callisto8payloadss1_1__NtBa_8LoginMsgNtNtCs8pDKiTx8cJZ_5serde2de11Deserialize11deserializeNtB5_7___FieldB12_11deserializeINtNtCse3EK68OXEkC_10serde_json2de6MapKeyNtNtB2t_4read7StrReadEEBc_
FN:18,_RINvXs0_NvXNvNtCscBGMVToPeRm_8callisto8payloadss1_1__NtBb_8LoginMsgNtNtCs8pDKiTx8cJZ_5serde2de11Deserialize11deserializeNtB6_9___VisitorNtB15_7Visitor9visit_seqINtNtCse3EK68OXEkC_10serde_json2de9SeqAccessNtNtB2D_4read7StrReadEEBd_
FN:18,_RINvXs0_NvXNvNtCscBGMVToPeRm_8callisto8payloadss1_1__NtBb_8LoginMsgNtNtCs8pDKiTx8cJZ_5serde2de11Deserialize11deserializeNtB6_9___VisitorNtB15_7Visitor9visit_mapINtNtCse3EK68OXEkC_10serde_json2de9MapAccessNtNtB2D_4read7StrReadEEBd_
FN:23,_RINvXNvXNvNtCscBGMVToPeRm_8callisto8payloadss3_1__NtB8_12AuthResponseNtNtCs8pDKiTx8cJZ_5serde2de11Deserialize11deserializeNtB3_14___FieldVisitorNtB17_7Visitor9visit_strNtNtCse3EK68OXEkC_10serde_json5error5ErrorEBa_
FN:23,_RINvXs_NvXNvNtCscBGMVToPeRm_8callisto8payloadss3_1__NtBa_12AuthResponseNtNtCs8pDKiTx8cJZ_5serde2de11Deserialize11deserializeNtB5_7___FieldB17_11deserializeINtNtCse3EK68OXEkC_10serde_json2de6MapKeyNtNtB2y_4read7StrReadEEBc_
FN:23,_RINvXs0_NvXNvNtCscBGMVToPeRm_8callisto8payloadss3_1__NtBb_12AuthResponseNtNtCs8pDKiTx8cJZ_5serde2de11Deserialize11deserializeNtB6_9___VisitorNtB1a_7Visitor9visit_seqINtNtCse3EK68OXEkC_10serde_json2de9SeqAccessNtNtB2I_4read7StrReadEEBd_
FN:23,_RINvXs0_NvXNvNtCscBGMVToPeRm_8callisto8payloadss3_1__NtBb_12AuthResponseNtNtCs8pDKiTx8cJZ_5serde2de11Deserialize11deserializeNtB6_9___VisitorNtB1a_7Visitor9visit_mapINtNtCse3EK68OXEkC_10serde_json2de9MapAccessNtNtB2I_4read7StrReadEEBd_
FN:30,_RINvXNvXNvNtCscBGMVToPeRm_8callisto8payloadss4_1__NtB8_10AddShipMsgNtNtCs8pDKiTx8cJZ_5serde3ser9Serialize9serializeNtB3_15___SerializeWithB13_9serializeQINtNtCse3EK68OXEkC_10serde_json3ser10SerializerQINtNtCsdze8u8oDPro_5alloc3vec3VechEEEBa_
FN:30,_RINvXs_NvXNvNtCscBGMVToPeRm_8callisto8payloadss4_1__NtBa_10AddShipMsgNtNtCs8pDKiTx8cJZ_5serde3ser9Serialize9serializeNtB5_s_15___SerializeWithB15_9serializeQINtNtCse3EK68OXEkC_10serde_json3ser10SerializerQINtNtCsdze8u8oDPro_5alloc3vec3VechEEEBc_
FN:30,_RINvXs0_NvXNvNtCscBGMVToPeRm_8callisto8payloadss4_1__NtBb_10AddShipMsgNtNtCs8pDKiTx8cJZ_5serde3ser9Serialize9serializeNtB6_s0_15___SerializeWithB16_9serializeQINtNtCse3EK68OXEkC_10serde_json3ser10SerializerQINtNtCsdze8u8oDPro_5alloc3vec3VechEEEBd_
FN:30,_RINvXNvXNvNtCscBGMVToPeRm_8callisto8payloadss5_1__NtB8_10AddShipMsgNtNtCs8pDKiTx8cJZ_5serde2de11Deserialize11deserializeNtB3_14___FieldVisitorNtB15_7Visitor9visit_strNtNtCse3EK68OXEkC_10serde_json5error5ErrorEBa_
FN:30,_RINvXs_NvXNvNtCscBGMVToPeRm_8callisto8payloadss5_1__NtBa_10AddShipMsgNtNtCs8pDKiTx8cJZ_5serde2de11Deserialize11deserializeNtB5_7___FieldB15_11deserializeINtNtCse3EK68OXEkC_10serde_json2de6MapKeyNtNtB2w_4read7StrReadEEBc_
FN:30,_RINvXs0_NvXNvNtCscBGMVToPeRm_8callisto8payloadss5_1__NtBb_10AddShipMsgNtNtCs8pDKiTx8cJZ_5serde2de11Deserialize11deserializeNtB6_9___VisitorNtB18_7Visitor9visit_seqINtNtCse3EK68OXEkC_10serde_json2de9SeqAccessNtNtB2G_4read7StrReadEEBd_
FN:30,_RINvXNvXs0_NvXNvNtCscBGMVToPeRm_8callisto8payloadss5_1__NtBe_10AddShipMsgNtNtCs8pDKiTx8cJZ_5serde2de11Deserialize11deserializeNtB9_9___VisitorNtB1b_7Visitor9visit_seqNtB3_17___DeserializeWithB19_11deserializeQINtNtCse3EK68OXEkC_10serde_json2de12DeserializerNtNtB3q_4read7StrReadEEBg_
FN:30,_RNCINvXs0_NvXNvNtCscBGMVToPeRm_8callisto8payloadss5_1__NtBd_10AddShipMsgNtNtCs8pDKiTx8cJZ_5serde2de11Deserialize11deserializeNtB8_9___VisitorNtB1a_7Visitor9visit_seqINtNtCse3EK68OXEkC_10serde_json2de9SeqAccessNtNtB2I_4read7StrReadEE0Bf_
FN:30,_RINvXs_NvXs0_NvXNvNtCscBGMVToPeRm_8callisto8payloadss5_1__NtBg_10AddShipMsgNtNtCs8pDKiTx8cJZ_5serde2de11Deserialize11deserializeNtBb_9___VisitorNtB1d_7Visitor9visit_seqNtB5_s_17___DeserializeWithB1b_11deserializeQINtNtCse3EK68OXEkC_10serde_json2de12DeserializerNtNtB3u_4read7StrReadEEBi_
FN:30,_RNCINvXs0_NvXNvNtCscBGMVToPeRm_8callisto8payloadss5_1__NtBd_10AddShipMsgNtNtCs8pDKiTx8cJZ_5serde2de11Deserialize11deserializeNtB8_9___VisitorNtB1a_7Visitor9visit_seqINtNtCse3EK68OXEkC_10serde_json2de9SeqAccessNtNtB2I_4read7StrReadEEs_0Bf_
FN:30,_RINvXs0_NvXs0_NvXNvNtCscBGMVToPeRm_8callisto8payloadss5_1__NtBh_10AddShipMsgNtNtCs8pDKiTx8cJZ_5serde2de11Deserialize11deserializeNtBc_9___VisitorNtB1e_7Visitor9visit_seqNtB6_s0_17___DeserializeWithB1c_11deserializeQINtNtCse3EK68OXEkC_10serde_json2de12DeserializerNtNtB3w_4read7StrReadEEBj_
FN:30,_RNCINvXs0_NvXNvNtCscBGMVToPeRm_8callisto8payloadss5_1__NtBd_10AddShipMsgNtNtCs8pDKiTx8cJZ_5serde2de11Deserialize11deserializeNtB8_9___VisitorNtB1a_7Visitor9visit_seqINtNtCse3EK68OXEkC_10serde_json2de9SeqAccessNtNtB2I_4read7StrReadEEs0_0Bf_
FN:30,_RINvXs0_NvXNvNtCscBGMVToPeRm_8callisto8payloadss5_1__NtBb_10AddShipMsgNtNtCs8pDKiTx8cJZ_5serde2de11Deserialize11deserializeNtB6_9___VisitorNtB18_7Visitor9visit_mapINtNtCse3EK68OXEkC_10serde_json2de9MapAccessNtNtB2G_4read7StrReadEEBd_
FN:30,_RINvXNvXs0_NvXNvNtCscBGMVToPeRm_8callisto8payloadss5_1__NtBe_10AddShipMsgNtNtCs8pDKiTx8cJZ_5serde2de11Deserialize11deserializeNtB9_9___VisitorNtB1b_7Visitor9visit_mapNtB3_17___DeserializeWithB19_11deserializeQINtNtCse3EK68OXEkC_10serde_json2de12DeserializerNtNtB3q_4read7StrReadEEBg_
FN:30,_RINvXs_NvXs0_NvXNvNtCscBGMVToPeRm_8callisto8payloadss5_1__NtBg_10AddShipMsgNtNtCs8pDKiTx8cJZ_5serde2de11Deserialize11deserializeNtBb_9___VisitorNtB1d_7Visitor9visit_mapNtB5_s_17___DeserializeWithB1b_11deserializeQINtNtCse3EK68OXEkC_10serde_json2de12DeserializerNtNtB3u_4read7StrReadEEBi_
FN:30,_RINvXs0_NvXs0_NvXNvNtCscBGMVToPeRm_8callisto8payloadss5_1__NtBh_10AddShipMsgNtNtCs8pDKiTx8cJZ_5serde2de11Deserialize11deserializeNtBc_9___VisitorNtB1e_7Visitor9visit_mapNtB6_s0_17___DeserializeWithB1c_11deserializeQINtNtCse3EK68OXEkC_10serde_json2de12DeserializerNtNtB3w_4read7StrReadEEBj_
FN:44,_RINvXNvXNvNtCscBGMVToPeRm_8callisto8payloadss7_1__NtB8_14SetCrewActionsNtNtCs8pDKiTx8cJZ_5serde2de11Deserialize11deserializeNtB3_14___FieldVisitorNtB19_7Visitor9visit_strNtNtCse3EK68OXEkC_10serde_json5error5ErrorEBa_
FN:44,_RINvXs_NvXNvNtCscBGMVToPeRm_8callisto8payloadss7_1__NtBa_14SetCrewActionsNtNtCs8pDKiTx8cJZ_5serde2de11Deserialize11deserializeNtB5_7___FieldB19_11deserializeINtNtCse3EK68OXEkC_10serde_json2de6MapKeyNtNtB2A_4read7StrReadEEBc_
FN:44,_RINvXs0_NvXNvNtCscBGMVToPeRm_8callisto8payloadss7_1__NtBb_14SetCrewActionsNtNtCs8pDKiTx8cJZ_5serde2de11Deserialize11deserializeNtB6_9___VisitorNtB1c_7Visitor9visit_seqINtNtCse3EK68OXEkC_10serde_json2de9SeqAccessNtNtB2K_4read7StrReadEEBd_
FN:44,_RINvXs0_NvXNvNtCscBGMVToPeRm_8callisto8payloadss7_1__NtBb_14SetCrewActionsNtNtCs8pDKiTx8cJZ_5serde2de11Deserialize11deserializeNtB6_9___VisitorNtB1c_7Visitor9visit_mapINtNtCse3EK68OXEkC_10serde_json2de9MapAccessNtNtB2K_4read7StrReadEEBd_
FN:69,_RINvXNvXNvNtCscBGMVToPeRm_8callisto8payloadssa_1__NtB8_12AddPlanetMsgNtNtCs8pDKiTx8cJZ_5serde2de11Deserialize11deserializeNtB3_14___FieldVisitorNtB17_7Visitor9visit_strNtNtCse3EK68OXEkC_10serde_json5error5ErrorEBa_
FN:69,_RINvXs_NvXNvNtCscBGMVToPeRm_8callisto8payloadssa_1__NtBa_12AddPlanetMsgNtNtCs8pDKiTx8cJZ_5serde2de11Deserialize11deserializeNtB5_7___FieldB17_11deserializeINtNtCse3EK68OXEkC_10serde_json2de6MapKeyNtNtB2y_4read7StrReadEEBc_
FN:69,_RINvXs0_NvXNvNtCscBGMVToPeRm_8callisto8payloadssa_1__NtBb_12AddPlanetMsgNtNtCs8pDKiTx8cJZ_5serde2de11Deserialize11deserializeNtB6_9___VisitorNtB1a_7Visitor9visit_seqINtNtCse3EK68OXEkC_10serde_json2de9SeqAccessNtNtB2I_4read7StrReadEEBd_
FN:69,_RINvXNvXs0_NvXNvNtCscBGMVToPeRm_8callisto8payloadssa_1__NtBe_12AddPlanetMsgNtNtCs8pDKiTx8cJZ_5serde2de11Deserialize11deserializeNtB9_9___VisitorNtB1d_7Visitor9visit_seqNtB3_17___DeserializeWithB1b_11deserializeQINtNtCse3EK68OXEkC_10serde_json2de12DeserializerNtNtB3s_4read7StrReadEEBg_
FN:69,_RNCINvXs0_NvXNvNtCscBGMVToPeRm_8callisto8payloadssa_1__NtBd_12AddPlanetMsgNtNtCs8pDKiTx8cJZ_5serde2de11Deserialize11deserializeNtB8_9___VisitorNtB1c_7Visitor9visit_seqINtNtCse3EK68OXEkC_10serde_json2de9SeqAccessNtNtB2K_4read7StrReadEE0Bf_
FN:69,_RINvXs0_NvXNvNtCscBGMVToPeRm_8callisto8payloadssa_1__NtBb_12AddPlanetMsgNtNtCs8pDKiTx8cJZ_5serde2de11Deserialize11deserializeNtB6_9___VisitorNtB1a_7Visitor9visit_mapINtNtCse3EK68OXEkC_10serde_json2de9MapAccessNtNtB2I_4read7StrReadEEBd_
FN:69,_RINvXNvXs0_NvXNvNtCscBGMVToPeRm_8callisto8payloadssa_1__NtBe_12AddPlanetMsgNtNtCs8pDKiTx8cJZ_5serde2de11Deserialize11deserializeNtB9_9___VisitorNtB1d_7Visitor9visit_mapNtB3_17___DeserializeWithB1b_11deserializeQINtNtCse3EK68OXEkC_10serde_json2de12DeserializerNtNtB3s_4read7StrReadEEBg_
FN:82,_RINvXNvXNvNtCscBGMVToPeRm_8callisto8payloadssc_1__NtB8_10SetPlanMsgNtNtCs8pDKiTx8cJZ_5serde2de11Deserialize11deserializeNtB3_14___FieldVisitorNtB15_7Visitor9visit_strNtNtCse3EK68OXEkC_10serde_json5error5ErrorEBa_
FN:82,_RINvXs_NvXNvNtCscBGMVToPeRm_8callisto8payloadssc_1__NtBa_10SetPlanMsgNtNtCs8pDKiTx8cJZ_5serde2de11Deserialize11deserializeNtB5_7___FieldB15_11deserializeINtNtCse3EK68OXEkC_10serde_json2de6MapKeyNtNtB2w_4read7StrReadEEBc_
FN:82,_RINvXs0_NvXNvNtCscBGMVToPeRm_8callisto8payloadssc_1__NtBb_10SetPlanMsgNtNtCs8pDKiTx8cJZ_5serde2de11Deserialize11deserializeNtB6_9___VisitorNtB18_7Visitor9visit_seqINtNtCse3EK68OXEkC_10serde_json2de9SeqAccessNtNtB2G_4read7StrReadEEBd_
FN:82,_RINvXs0_NvXNvNtCscBGMVToPeRm_8callisto8payloadssc_1__NtBb_10SetPlanMsgNtNtCs8pDKiTx8cJZ_5serde2de11Deserialize11deserializeNtB6_9___VisitorNtB18_7Visitor9visit_mapINtNtCse3EK68OXEkC_10serde_json2de9MapAccessNtNtB2G_4read7StrReadEEBd_
FN:89,_RINvXNvXNvNtCscBGMVToPeRm_8callisto8payloadssd_1__NtB8_14ComputePathMsgNtNtCs8pDKiTx8cJZ_5serde3ser9Serialize9serializeNtB3_15___SerializeWithB17_9serializeQINtNtCse3EK68OXEkC_10serde_json3ser10SerializerQINtNtCsdze8u8oDPro_5alloc3vec3VechEEEBa_
FN:89,_RINvXs_NvXNvNtCscBGMVToPeRm_8callisto8payloadssd_1__NtBa_14ComputePathMsgNtNtCs8pDKiTx8cJZ_5serde3ser9Serialize9serializeNtB5_s_15___SerializeWithB19_9serializeQINtNtCse3EK68OXEkC_10serde_json3ser10SerializerQINtNtCsdze8u8oDPro_5alloc3vec3VechEEEBc_
FN:89,_RINvXs0_NvXNvNtCscBGMVToPeRm_8callisto8payloadssd_1__NtBb_14ComputePathMsgNtNtCs8pDKiTx8cJZ_5serde3ser9Serialize9serializeNtB6_s0_15___SerializeWithB1a_9serializeQINtNtCse3EK68OXEkC_10serde_json3ser10SerializerQINtNtCsdze8u8oDPro_5alloc3vec3VechEEEBd_
FN:89,_RINvXNvXNvNtCscBGMVToPeRm_8callisto8payloadsse_1__NtB8_14ComputePathMsgNtNtCs8pDKiTx8cJZ_5serde2de11Deserialize11deserializeNtB3_14___FieldVisitorNtB19_7Visitor9visit_strNtNtCse3EK68OXEkC_10serde_json5error5ErrorEBa_
FN:89,_RINvXs_NvXNvNtCscBGMVToPeRm_8callisto8payloadsse_1__NtBa_14ComputePathMsgNtNtCs8pDKiTx8cJZ_5serde2de11Deserialize11deserializeNtB5_7___FieldB19_11deserializeINtNtCse3EK68OXEkC_10serde_json2de6MapKeyNtNtB2A_4read7StrReadEEBc_
FN:89,_RINvXs0_NvXNvNtCscBGMVToPeRm_8callisto8payloadsse_1__NtBb_14ComputePathMsgNtNtCs8pDKiTx8cJZ_5serde2de11Deserialize11deserializeNtB6_9___VisitorNtB1c_7Visitor9visit_seqINtNtCse3EK68OXEkC_10serde_json2de9SeqAccessNtNtB2K_4read7StrReadEEBd_
FN:89,_RINvXNvXs0_NvXNvNtCscBGMVToPeRm_8callisto8payloadsse_1__NtBe_14ComputePathMsgNtNtCs8pDKiTx8cJZ_5serde2de11Deserialize11deserializeNtB9_9___VisitorNtB1f_7Visitor9visit_seqNtB3_17___DeserializeWithB1d_11deserializeQINtNtCse3EK68OXEkC_10serde_json2de12DeserializerNtNtB3u_4read7StrReadEEBg_
FN:89,_RNCINvXs0_NvXNvNtCscBGMVToPeRm_8callisto8payloadsse_1__NtBd_14ComputePathMsgNtNtCs8pDKiTx8cJZ_5serde2de11Deserialize11deserializeNtB8_9___VisitorNtB1e_7Visitor9visit_seqINtNtCse3EK68OXEkC_10serde_json2de9SeqAccessNtNtB2M_4read7StrReadEE0Bf_
FN:89,_RINvXs_NvXs0_NvXNvNtCscBGMVToPeRm_8callisto8payloadsse_1__NtBg_14ComputePathMsgNtNtCs8pDKiTx8cJZ_5serde2de11Deserialize11deserializeNtBb_9___VisitorNtB1h_7Visitor9visit_seqNtB5_s_17___DeserializeWithB1f_11deserializeQINtNtCse3EK68OXEkC_10serde_json2de12DeserializerNtNtB3y_4read7StrReadEEBi_
FN:89,_RNCINvXs0_NvXNvNtCscBGMVToPeRm_8callisto8payloadsse_1__NtBd_14ComputePathMsgNtNtCs8pDKiTx8cJZ_5serde2de11Deserialize11deserializeNtB8_9___VisitorNtB1e_7Visitor9visit_seqINtNtCse3EK68OXEkC_10serde_json2de9SeqAccessNtNtB2M_4read7StrReadEEs_0Bf_
FN:89,_RINvXs0_NvXs0_NvXNvNtCscBGMVToPeRm_8callisto8payloadsse_1__NtBh_14ComputePathMsgNtNtCs8pDKiTx8cJZ_5serde2de11Deserialize11deserializeNtBc_9___VisitorNtB1i_7Visitor9visit_seqNtB6_s0_17___DeserializeWithB1g_11deserializeQINtNtCse3EK68OXEkC_10serde_json2de12DeserializerNtNtB3A_4read7StrReadEEBj_
FN:89,_RNCINvXs0_NvXNvNtCscBGMVToPeRm_8callisto8payloadsse_1__NtBd_14ComputePathMsgNtNtCs8pDKiTx8cJZ_5serde2de11Deserialize11deserializeNtB8_9___VisitorNtB1e_7Visitor9visit_seqINtNtCse3EK68OXEkC_10serde_json2de9SeqAccessNtNtB2M_4read7StrReadEEs0_0Bf_
FN:89,_RINvXs0_NvXNvNtCscBGMVToPeRm_8callisto8payloadsse_1__NtBb_14ComputePathMsgNtNtCs8pDKiTx8cJZ_5serde2de11Deserialize11deserializeNtB6_9___VisitorNtB1c_7Visitor9visit_mapINtNtCse3EK68OXEkC_10serde_json2de9MapAccessNtNtB2K_4read7StrReadEEBd_
FN:89,_RINvXNvXs0_NvXNvNtCscBGMVToPeRm_8callisto8payloadsse_1__NtBe_14ComputePathMsgNtNtCs8pDKiTx8cJZ_5serde2de11Deserialize11deserializeNtB9_9___VisitorNtB1f_7Visitor9visit_mapNtB3_17___DeserializeWithB1d_11deserializeQINtNtCse3EK68OXEkC_10serde_json2de12DeserializerNtNtB3u_4read7StrReadEEBg_
FN:89,_RINvXs_NvXs0_NvXNvNtCscBGMVToPeRm_8callisto8payloadsse_1__NtBg_14ComputePathMsgNtNtCs8pDKiTx8cJZ_5serde2de11Deserialize11deserializeNtBb_9___VisitorNtB1h_7Visitor9visit_mapNtB5_s_17___DeserializeWithB1f_11deserializeQINtNtCse3EK68OXEkC_10serde_json2de12DeserializerNtNtB3y_4read7StrReadEEBi_
FN:89,_RINvXs0_NvXs0_NvXNvNtCscBGMVToPeRm_8callisto8payloadsse_1__NtBh_14ComputePathMsgNtNtCs8pDKiTx8cJZ_5serde2de11Deserialize11deserializeNtBc_9___VisitorNtB1i_7Visitor9visit_mapNtB6_s0_17___DeserializeWithB1g_11deserializeQINtNtCse3EK68OXEkC_10serde_json2de12DeserializerNtNtB3A_4read7StrReadEEBj_
FN:108,_RINvXNvXNvNtCscBGMVToPeRm_8callisto8payloadssg_1__NtB8_10FireActionNtNtCs8pDKiTx8cJZ_5serde2de11Deserialize11deserializeNtB3_14___FieldVisitorNtB15_7Visitor9visit_strNtNtCse3EK68OXEkC_10serde_json5error5ErrorEBa_
FN:108,_RINvXs_NvXNvNtCscBGMVToPeRm_8callisto8payloadssg_1__NtBa_10FireActionNtNtCs8pDKiTx8cJZ_5serde2de11Deserialize11deserializeNtB5_7___FieldB15_11deserializeINtNtCse3EK68OXEkC_10serde_json2de6MapKeyNtNtB2w_4read7StrReadEEBc_
FN:108,_RINvXs0_NvXNvNtCscBGMVToPeRm_8callisto8payloadssg_1__NtBb_10FireActionNtNtCs8pDKiTx8cJZ_5serde2de11Deserialize11deserializeNtB6_9___VisitorNtB18_7Visitor9visit_seqINtNtCse3EK68OXEkC_10serde_json2de9SeqAccessNtNtB2G_4read7StrReadEEBd_
FN:108,_RINvXs0_NvXNvNtCscBGMVToPeRm_8callisto8payloadssg_1__NtBb_10FireActionNtNtCs8pDKiTx8cJZ_5serde2de11Deserialize11deserializeNtB6_9___VisitorNtB18_7Visitor9visit_mapINtNtCse3EK68OXEkC_10serde_json2de9MapAccessNtNtB2G_4read7StrReadEEBd_
FN:123,_RINvXNvXNvNtCscBGMVToPeRm_8callisto8payloadssh_1__NtB8_9EffectMsgNtNtCs8pDKiTx8cJZ_5serde3ser9Serialize9serializeNtB3_15___SerializeWithB11_9serializeNtNtNtCse3EK68OXEkC_10serde_json5value3ser10SerializerEBa_
FN:123,_RINvXNvXNvNtCscBGMVToPeRm_8callisto8payloadssh_1__NtB8_9EffectMsgNtNtCs8pDKiTx8cJZ_5serde3ser9Serialize9serializeNtB3_15___SerializeWithB11_9serializeQINtNtCse3EK68OXEkC_10serde_json3ser10SerializerQINtNtCsdze8u8oDPro_5alloc3vec3VechEEEBa_
FN:123,_RINvXs_NvXNvNtCscBGMVToPeRm_8callisto8payloadssh_1__NtBa_9EffectMsgNtNtCs8pDKiTx8cJZ_5serde3ser9Serialize9serializeNtB5_s_15___SerializeWithB13_9serializeNtNtNtCse3EK68OXEkC_10serde_json5value3ser10SerializerEBc_
FN:123,_RINvXs_NvXNvNtCscBGMVToPeRm_8callisto8payloadssh_1__NtBa_9EffectMsgNtNtCs8pDKiTx8cJZ_5serde3ser9Serialize9serializeNtB5_s_15___SerializeWithB13_9serializeQINtNtCse3EK68OXEkC_10serde_json3ser10SerializerQINtNtCsdze8u8oDPro_5alloc3vec3VechEEEBc_
FN:123,_RINvXs0_NvXNvNtCscBGMVToPeRm_8callisto8payloadssh_1__NtBb_9EffectMsgNtNtCs8pDKiTx8cJZ_5serde3ser9Serialize9serializeNtB6_s0_15___SerializeWithB14_9serializeNtNtNtCse3EK68OXEkC_10serde_json5value3ser10SerializerEBd_
FN:123,_RINvXs0_NvXNvNtCscBGMVToPeRm_8callisto8payloadssh_1__NtBb_9EffectMsgNtNtCs8pDKiTx8cJZ_5serde3ser9Serialize9serializeNtB6_s0_15___SerializeWithB14_9serializeQINtNtCse3EK68OXEkC_10serde_json3ser10SerializerQINtNtCsdze8u8oDPro_5alloc3vec3VechEEEBd_
FN:123,_RINvXs1_NvXNvNtCscBGMVToPeRm_8callisto8payloadssh_1__NtBb_9EffectMsgNtNtCs8pDKiTx8cJZ_5serde3ser9Serialize9serializeNtB6_s1_15___SerializeWithB14_9serializeNtNtNtCse3EK68OXEkC_10serde_json5value3ser10SerializerEBd_
FN:123,_RINvXs1_NvXNvNtCscBGMVToPeRm_8callisto8payloadssh_1__NtBb_9EffectMsgNtNtCs8pDKiTx8cJZ_5serde3ser9Serialize9serializeNtB6_s1_15___SerializeWithB14_9serializeQINtNtCse3EK68OXEkC_10serde_json3ser10SerializerQINtNtCsdze8u8oDPro_5alloc3vec3VechEEEBd_
FN:123,_RINvXs2_NvXNvNtCscBGMVToPeRm_8callisto8payloadssh_1__NtBb_9EffectMsgNtNtCs8pDKiTx8cJZ_5serde3ser9Serialize9serializeNtB6_s2_15___SerializeWithB14_9serializeNtNtNtCse3EK68OXEkC_10serde_json5value3ser10SerializerEBd_
FN:123,_RINvXs2_NvXNvNtCscBGMVToPeRm_8callisto8payloadssh_1__NtBb_9EffectMsgNtNtCs8pDKiTx8cJZ_5serde3ser9Serialize9serializeNtB6_s2_15___SerializeWithB14_9serializeQINtNtCse3EK68OXEkC_10serde_json3ser10SerializerQINtNtCsdze8u8oDPro_5alloc3vec3VechEEEBd_
FN:123,_RINvXNvXNvNtCscBGMVToPeRm_8callisto8payloadssi_1__NtB8_9EffectMsgNtNtCs8pDKiTx8cJZ_5serde2de11Deserialize11deserializeNtB3_14___FieldVisitorNtB13_7Visitor9visit_strNtNtCse3EK68OXEkC_10serde_json5error5ErrorEBa_
FN:123,_RINvXs_NvXNvNtCscBGMVToPeRm_8callisto8payloadssi_1__NtBa_9EffectMsgNtNtCs8pDKiTx8cJZ_5serde2de11Deserialize11deserializeNtB5_7___FieldB13_11deserializeQINtNtCse3EK68OXEkC_10serde_json2de12DeserializerNtNtB2v_4read7StrReadEEBc_
FN:123,_RINvXs0_NvXNvNtCscBGMVToPeRm_8callisto8payloadssi_1__NtBb_9EffectMsgNtNtCs8pDKiTx8cJZ_5serde2de11Deserialize11deserializeNtB6_s_14___FieldVisitorNtB16_7Visitor9visit_u64NtNtCse3EK68OXEkC_10serde_json5error5ErrorEBd_
FN:123,_RINvXs0_NvXNvNtCscBGMVToPeRm_8callisto8payloadssi_1__NtBb_9EffectMsgNtNtCs8pDKiTx8cJZ_5serde2de11Deserialize11deserializeNtB6_s_14___FieldVisitorNtB16_7Visitor9visit_strNtNtCse3EK68OXEkC_10serde_json5error5ErrorEBd_
FN:123,_RINvXs0_NvXNvNtCscBGMVToPeRm_8callisto8payloadssi_1__NtBb_9EffectMsgNtNtCs8pDKiTx8cJZ_5serde2de11Deserialize11deserializeNtB6_s_14___FieldVisitorNtB16_7Visitor11visit_bytesNtNtCse3EK68OXEkC_10serde_json5error5ErrorEBd_
FN:123,_RINvXs1_NvXNvNtCscBGMVToPeRm_8callisto8payloadssi_1__NtBb_9EffectMsgNtNtCs8pDKiTx8cJZ_5serde2de11Deserialize11deserializeNtB6_s_7___FieldB14_11deserializeINtNtNtNtB18_9___private2de7content19ContentDeserializerNtNtCse3EK68OXEkC_10serde_json5error5ErrorEEBd_
FN:123,_RINvXs2_NvXNvNtCscBGMVToPeRm_8callisto8payloadssi_1__NtBb_9EffectMsgNtNtCs8pDKiTx8cJZ_5serde2de11Deserialize11deserializeNtB6_9___VisitorNtB16_7Visitor9visit_seqQINtNtB16_5value15SeqDeserializerINtNtNtNtCs9f3LFPSIp77_4core4iter8adapters3map3MapINtNtNtCsdze8u8oDPro_5alloc3vec9into_iter8IntoIterNtNtNtNtB18_9___private2de7content7ContentENvMse_B4K_INtB4K_19ContentDeserializerNtNtCse3EK68OXEkC_10serde_json5error5ErrorE3newEB61_EEBd_
FN:123,_RINvXNvXs2_NvXNvNtCscBGMVToPeRm_8callisto8payloadssi_1__NtBe_9EffectMsgNtNtCs8pDKiTx8cJZ_5serde2de11Deserialize11deserializeNtB9_9___VisitorNtB19_7Visitor9visit_seqNtB3_17___DeserializeWithB17_11deserializeINtNtNtNtB1b_9___private2de7content19ContentDeserializerNtNtCse3EK68OXEkC_10serde_json5error5ErrorEEBg_
FN:123,_RNCINvXs2_NvXNvNtCscBGMVToPeRm_8callisto8payloadssi_1__NtBd_9EffectMsgNtNtCs8pDKiTx8cJZ_5serde2de11Deserialize11deserializeNtB8_9___VisitorNtB18_7Visitor9visit_seqQINtNtB18_5value15SeqDeserializerINtNtNtNtCs9f3LFPSIp77_4core4iter8adapters3map3MapINtNtNtCsdze8u8oDPro_5alloc3vec9into_iter8IntoIterNtNtNtNtB1a_9___private2de7content7ContentENvMse_B4M_INtB4M_19ContentDeserializerNtNtCse3EK68OXEkC_10serde_json5error5ErrorE3newEB63_EE0Bf_
FN:123,_RINvXs2_NvXNvNtCscBGMVToPeRm_8callisto8payloadssi_1__NtBb_9EffectMsgNtNtCs8pDKiTx8cJZ_5serde2de11Deserialize11deserializeNtB6_9___VisitorNtB16_7Visitor9visit_mapQINtNtB16_5value15MapDeserializerINtNtNtNtCs9f3LFPSIp77_4core4iter8adapters3map3MapINtNtNtCsdze8u8oDPro_5alloc3vec9into_iter8IntoIterTNtNtNtNtB18_9___private2de7content7ContentB4J_EENCINvB4L_17visit_content_mapB1V_NtNtCse3EK68OXEkC_10serde_json5error5ErrorE0EB61_EEBd_
FN:123,_RINvXNvXs2_NvXNvNtCscBGMVToPeRm_8callisto8payloadssi_1__NtBe_9EffectMsgNtNtCs8pDKiTx8cJZ_5serde2de11Deserialize11deserializeNtB9_9___VisitorNtB19_7Visitor9visit_mapNtB3_17___DeserializeWithB17_11deserializeINtNtNtNtB1b_9___private2de7content19ContentDeserializerNtNtCse3EK68OXEkC_10serde_json5error5ErrorEEBg_
FN:123,_RINvXs3_NvXNvNtCscBGMVToPeRm_8callisto8payloadssi_1__NtBb_9EffectMsgNtNtCs8pDKiTx8cJZ_5serde2de11Deserialize11deserializeNtB6_s0_14___FieldVisitorNtB16_7Visitor9visit_u64NtNtCse3EK68OXEkC_10serde_json5error5ErrorEBd_
FN:123,_RINvXs3_NvXNvNtCscBGMVToPeRm_8callisto8payloadssi_1__NtBb_9EffectMsgNtNtCs8pDKiTx8cJZ_5serde2de11Deserialize11deserializeNtB6_s0_14___FieldVisitorNtB16_7Visitor9visit_strNtNtCse3EK68OXEkC_10serde_json5error5ErrorEBd_
FN:123,_RINvXs3_NvXNvNtCscBGMVToPeRm_8callisto8payloadssi_1__NtBb_9EffectMsgNtNtCs8pDKiTx8cJZ_5serde2de11Deserialize11deserializeNtB6_s0_14___FieldVisitorNtB16_7Visitor11visit_bytesNtNtCse3EK68OXEkC_10serde_json5error5ErrorEBd_
FN:123,_RINvXs4_NvXNvNtCscBGMVToPeRm_8callisto8payloadssi_1__NtBb_9EffectMsgNtNtCs8pDKiTx8cJZ_5serde2de11Deserialize11deserializeNtB6_s0_7___FieldB14_11deserializeINtNtNtNtB18_9___private2de7content19ContentDeserializerNtNtCse3EK68OXEkC_10serde_json5error5ErrorEEBd_
FN:123,_RINvXs5_NvXNvNtCscBGMVToPeRm_8callisto8payloadssi_1__NtBb_9EffectMsgNtNtCs8pDKiTx8cJZ_5serde2de11Deserialize11deserializeNtB6_s_9___VisitorNtB16_7Visitor9visit_seqQINtNtB16_5value15SeqDeserializerINtNtNtNtCs9f3LFPSIp77_4core4iter8adapters3map3MapINtNtNtCsdze8u8oDPro_5alloc3vec9into_iter8IntoIterNtNtNtNtB18_9___private2de7content7ContentENvMse_B4M_INtB4M_19ContentDeserializerNtNtCse3EK68OXEkC_10serde_json5error5ErrorE3newEB63_EEBd_
FN:123,_RINvXNvXs5_NvXNvNtCscBGMVToPeRm_8callisto8payloadssi_1__NtBe_9EffectMsgNtNtCs8pDKiTx8cJZ_5serde2de11Deserialize11deserializeNtB9_s_9___VisitorNtB19_7Visitor9visit_seqNtB3_17___DeserializeWithB17_11deserializeINtNtNtNtB1b_9___private2de7content19ContentDeserializerNtNtCse3EK68OXEkC_10serde_json5error5ErrorEEBg_
FN:123,_RNCINvXs5_NvXNvNtCscBGMVToPeRm_8callisto8payloadssi_1__NtBd_9EffectMsgNtNtCs8pDKiTx8cJZ_5serde2de11Deserialize11deserializeNtB8_s_9___VisitorNtB18_7Visitor9visit_seqQINtNtB18_5value15SeqDeserializerINtNtNtNtCs9f3LFPSIp77_4core4iter8adapters3map3MapINtNtNtCsdze8u8oDPro_5alloc3vec9into_iter8IntoIterNtNtNtNtB1a_9___private2de7content7ContentENvMse_B4O_INtB4O_19ContentDeserializerNtNtCse3EK68OXEkC_10serde_json5error5ErrorE3newEB65_EE0Bf_
FN:123,_RINvXs5_NvXNvNtCscBGMVToPeRm_8callisto8payloadssi_1__NtBb_9EffectMsgNtNtCs8pDKiTx8cJZ_5serde2de11Deserialize11deserializeNtB6_s_9___VisitorNtB16_7Visitor9visit_mapQINtNtB16_5value15MapDeserializerINtNtNtNtCs9f3LFPSIp77_4core4iter8adapters3map3MapINtNtNtCsdze8u8oDPro_5alloc3vec9into_iter8IntoIterTNtNtNtNtB18_9___private2de7content7ContentB4L_EENCINvB4N_17visit_content_mapB1V_NtNtCse3EK68OXEkC_10serde_json5error5ErrorE0EB63_EEBd_
FN:123,_RINvXNvXs5_NvXNvNtCscBGMVToPeRm_8callisto8payloadssi_1__NtBe_9EffectMsgNtNtCs8pDKiTx8cJZ_5serde2de11Deserialize11deserializeNtB9_s_9___VisitorNtB19_7Visitor9visit_mapNtB3_17___DeserializeWithB17_11deserializeINtNtNtNtB1b_9___private2de7content19ContentDeserializerNtNtCse3EK68OXEkC_10serde_json5error5ErrorEEBg_
FN:123,_RINvXs6_NvXNvNtCscBGMVToPeRm_8callisto8payloadssi_1__NtBb_9EffectMsgNtNtCs8pDKiTx8cJZ_5serde2de11Deserialize11deserializeNtB6_s1_14___FieldVisitorNtB16_7Visitor9visit_u64NtNtCse3EK68OXEkC_10serde_json5error5ErrorEBd_
FN:123,_RINvXs6_NvXNvNtCscBGMVToPeRm_8callisto8payloadssi_1__NtBb_9EffectMsgNtNtCs8pDKiTx8cJZ_5serde2de11Deserialize11deserializeNtB6_s1_14___FieldVisitorNtB16_7Visitor9visit_strNtNtCse3EK68OXEkC_10serde_json5error5ErrorEBd_
FN:123,_RINvXs6_NvXNvNtCscBGMVToPeRm_8callisto8payloadssi_1__NtBb_9EffectMsgNtNtCs8pDKiTx8cJZ_5serde2de11Deserialize11deserializeNtB6_s1_14___FieldVisitorNtB16_7Visitor11visit_bytesNtNtCse3EK68OXEkC_10serde_json5error5ErrorEBd_
FN:123,_RINvXs7_NvXNvNtCscBGMVToPeRm_8callisto8payloadssi_1__NtBb_9EffectMsgNtNtCs8pDKiTx8cJZ_5serde2de11Deserialize11deserializeNtB6_s1_7___FieldB14_11deserializeINtNtNtNtB18_9___private2de7content19ContentDeserializerNtNtCse3EK68OXEkC_10serde_json5error5ErrorEEBd_
FN:123,_RINvXs8_NvXNvNtCscBGMVToPeRm_8callisto8payloadssi_1__NtBb_9EffectMsgNtNtCs8pDKiTx8cJZ_5serde2de11Deserialize11deserializeNtB6_s0_9___VisitorNtB16_7Visitor9visit_seqQINtNtB16_5value15SeqDeserializerINtNtNtNtCs9f3LFPSIp77_4core4iter8adapters3map3MapINtNtNtCsdze8u8oDPro_5alloc3vec9into_iter8IntoIterNtNtNtNtB18_9___private2de7content7ContentENvMse_B4N_INtB4N_19ContentDeserializerNtNtCse3EK68OXEkC_10serde_json5error5ErrorE3newEB64_EEBd_
FN:123,_RINvXNvXs8_NvXNvNtCscBGMVToPeRm_8callisto8payloadssi_1__NtBe_9EffectMsgNtNtCs8pDKiTx8cJZ_5serde2de11Deserialize11deserializeNtB9_s0_9___VisitorNtB19_7Visitor9visit_seqNtB3_17___DeserializeWithB17_11deserializeINtNtNtNtB1b_9___private2de7content19ContentDeserializerNtNtCse3EK68OXEkC_10serde_json5error5ErrorEEBg_
FN:123,_RNCINvXs8_NvXNvNtCscBGMVToPeRm_8callisto8payloadssi_1__NtBd_9EffectMsgNtNtCs8pDKiTx8cJZ_5serde2de11Deserialize11deserializeNtB8_s0_9___VisitorNtB18_7Visitor9visit_seqQINtNtB18_5value15SeqDeserializerINtNtNtNtCs9f3LFPSIp77_4core4iter8adapters3map3MapINtNtNtCsdze8u8oDPro_5alloc3vec9into_iter8IntoIterNtNtNtNtB1a_9___private2de7content7ContentENvMse_B4P_INtB4P_19ContentDeserializerNtNtCse3EK68OXEkC_10serde_json5error5ErrorE3newEB66_EE0Bf_
FN:123,_RINvXs8_NvXNvNtCscBGMVToPeRm_8callisto8payloadssi_1__NtBb_9EffectMsgNtNtCs8pDKiTx8cJZ_5serde2de11Deserialize11deserializeNtB6_s0_9___VisitorNtB16_7Visitor9visit_mapQINtNtB16_5value15MapDeserializerINtNtNtNtCs9f3LFPSIp77_4core4iter8adapters3map3MapINtNtNtCsdze8u8oDPro_5alloc3vec9into_iter8IntoIterTNtNtNtNtB18_9___private2de7content7ContentB4M_EENCINvB4O_17visit_content_mapB1V_NtNtCse3EK68OXEkC_10serde_json5error5ErrorE0EB64_EEBd_
FN:123,_RINvXNvXs8_NvXNvNtCscBGMVToPeRm_8callisto8payloadssi_1__NtBe_9EffectMsgNtNtCs8pDKiTx8cJZ_5serde2de11Deserialize11deserializeNtB9_s0_9___VisitorNtB19_7Visitor9visit_mapNtB3_17___DeserializeWithB17_11deserializeINtNtNtNtB1b_9___private2de7content19ContentDeserializerNtNtCse3EK68OXEkC_10serde_json5error5ErrorEEBg_
FN:123,_RINvXs9_NvXNvNtCscBGMVToPeRm_8callisto8payloadssi_1__NtBb_9EffectMsgNtNtCs8pDKiTx8cJZ_5serde2de11Deserialize11deserializeNtB6_s2_14___FieldVisitorNtB16_7Visitor9visit_u64NtNtCse3EK68OXEkC_10serde_json5error5ErrorEBd_
FN:123,_RINvXs9_NvXNvNtCscBGMVToPeRm_8callisto8payloadssi_1__NtBb_9EffectMsgNtNtCs8pDKiTx8cJZ_5serde2de11Deserialize11deserializeNtB6_s2_14___FieldVisitorNtB16_7Visitor9visit_strNtNtCse3EK68OXEkC_10serde_json5error5ErrorEBd_
FN:123,_RINvXs9_NvXNvNtCscBGMVToPeRm_8callisto8payloadssi_1__NtBb_9EffectMsgNtNtCs8pDKiTx8cJZ_5serde2de11Deserialize11deserializeNtB6_s2_14___FieldVisitorNtB16_7Visitor11visit_bytesNtNtCse3EK68OXEkC_10serde_json5error5ErrorEBd_
FN:123,_RINvXsa_NvXNvNtCscBGMVToPeRm_8callisto8payloadssi_1__NtBb_9EffectMsgNtNtCs8pDKiTx8cJZ_5serde2de11Deserialize11deserializeNtB6_s2_7___FieldB14_11deserializeINtNtNtNtB18_9___private2de7content19ContentDeserializerNtNtCse3EK68OXEkC_10serde_json5error5ErrorEEBd_
FN:123,_RINvXsb_NvXNvNtCscBGMVToPeRm_8callisto8payloadssi_1__NtBb_9EffectMsgNtNtCs8pDKiTx8cJZ_5serde2de11Deserialize11deserializeNtB6_s1_9___VisitorNtB16_7Visitor9visit_seqQINtNtB16_5value15SeqDeserializerINtNtNtNtCs9f3LFPSIp77_4core4iter8adapters3map3MapINtNtNtCsdze8u8oDPro_5alloc3vec9into_iter8IntoIterNtNtNtNtB18_9___private2de7content7ContentENvMse_B4N_INtB4N_19ContentDeserializerNtNtCse3EK68OXEkC_10serde_json5error5ErrorE3newEB64_EEBd_
FN:123,_RINvXNvXsb_NvXNvNtCscBGMVToPeRm_8callisto8payloadssi_1__NtBe_9EffectMsgNtNtCs8pDKiTx8cJZ_5serde2de11Deserialize11deserializeNtB9_s1_9___VisitorNtB19_7Visitor9visit_seqNtB3_17___DeserializeWithB17_11deserializeINtNtNtNtB1b_9___private2de7content19ContentDeserializerNtNtCse3EK68OXEkC_10serde_json5error5ErrorEEBg_
FN:123,_RNCINvXsb_NvXNvNtCscBGMVToPeRm_8callisto8payloadssi_1__NtBd_9EffectMsgNtNtCs8pDKiTx8cJZ_5serde2de11Deserialize11deserializeNtB8_s1_9___VisitorNtB18_7Visitor9visit_seqQINtNtB18_5value15SeqDeserializerINtNtNtNtCs9f3LFPSIp77_4core4iter8adapters3map3MapINtNtNtCsdze8u8oDPro_5alloc3vec9into_iter8IntoIterNtNtNtNtB1a_9___private2de7content7ContentENvMse_B4P_INtB4P_19ContentDeserializerNtNtCse3EK68OXEkC_10serde_json5error5ErrorE3newEB66_EE0Bf_
FN:123,_RINvXs_NvXsb_NvXNvNtCscBGMVToPeRm_8callisto8payloadssi_1__NtBg_9EffectMsgNtNtCs8pDKiTx8cJZ_5serde2de11Deserialize11deserializeNtBb_s1_9___VisitorNtB1b_7Visitor9visit_seqNtB5_s_17___DeserializeWithB19_11deserializeINtNtNtNtB1d_9___private2de7content19ContentDeserializerNtNtCse3EK68OXEkC_10serde_json5error5ErrorEEBi_
FN:123,_RNCINvXsb_NvXNvNtCscBGMVToPeRm_8callisto8payloadssi_1__NtBd_9EffectMsgNtNtCs8pDKiTx8cJZ_5serde2de11Deserialize11deserializeNtB8_s1_9___VisitorNtB18_7Visitor9visit_seqQINtNtB18_5value15SeqDeserializerINtNtNtNtCs9f3LFPSIp77_4core4iter8adapters3map3MapINtNtNtCsdze8u8oDPro_5alloc3vec9into_iter8IntoIterNtNtNtNtB1a_9___private2de7content7ContentENvMse_B4P_INtB4P_19ContentDeserializerNtNtCse3EK68OXEkC_10serde_json5error5ErrorE3newEB66_EEs_0Bf_
FN:123,_RINvXsb_NvXNvNtCscBGMVToPeRm_8callisto8payloadssi_1__NtBb_9EffectMsgNtNtCs8pDKiTx8cJZ_5serde2de11Deserialize11deserializeNtB6_s1_9___VisitorNtB16_7Visitor9visit_mapQINtNtB16_5value15MapDeserializerINtNtNtNtCs9f3LFPSIp77_4core4iter8adapters3map3MapINtNtNtCsdze8u8oDPro_5alloc3vec9into_iter8IntoIterTNtNtNtNtB18_9___private2de7content7ContentB4M_EENCINvB4O_17visit_content_mapB1V_NtNtCse3EK68OXEkC_10serde_json5error5ErrorE0EB64_EEBd_
FN:123,_RINvXNvXsb_NvXNvNtCscBGMVToPeRm_8callisto8payloadssi_1__NtBe_9EffectMsgNtNtCs8pDKiTx8cJZ_5serde2de11Deserialize11deserializeNtB9_s1_9___VisitorNtB19_7Visitor9visit_mapNtB3_17___DeserializeWithB17_11deserializeINtNtNtNtB1b_9___private2de7content19ContentDeserializerNtNtCse3EK68OXEkC_10serde_json5error5ErrorEEBg_
FN:123,_RINvXs_NvXsb_NvXNvNtCscBGMVToPeRm_8callisto8payloadssi_1__NtBg_9EffectMsgNtNtCs8pDKiTx8cJZ_5serde2de11Deserialize11deserializeNtBb_s1_9___VisitorNtB1b_7Visitor9visit_mapNtB5_s_17___DeserializeWithB19_11deserializeINtNtNtNtB1d_9___private2de7content19ContentDeserializerNtNtCse3EK68OXEkC_10serde_json5error5ErrorEEBi_
FN:123,_RINvXsc_NvXNvNtCscBGMVToPeRm_8callisto8payloadssi_1__NtBb_9EffectMsgNtNtCs8pDKiTx8cJZ_5serde2de11Deserialize11deserializeNtB6_s3_14___FieldVisitorNtB16_7Visitor9visit_u64NtNtCse3EK68OXEkC_10serde_json5error5ErrorEBd_
FN:123,_RINvXsc_NvXNvNtCscBGMVToPeRm_8callisto8payloadssi_1__NtBb_9EffectMsgNtNtCs8pDKiTx8cJZ_5serde2de11Deserialize11deserializeNtB6_s3_14___FieldVisitorNtB16_7Visitor9visit_strNtNtCse3EK68OXEkC_10serde_json5error5ErrorEBd_
FN:123,_RINvXsc_NvXNvNtCscBGMVToPeRm_8callisto8payloadssi_1__NtBb_9EffectMsgNtNtCs8pDKiTx8cJZ_5serde2de11Deserialize11deserializeNtB6_s3_14___FieldVisitorNtB16_7Visitor11visit_bytesNtNtCse3EK68OXEkC_10serde_json5error5ErrorEBd_
FN:123,_RINvXsd_NvXNvNtCscBGMVToPeRm_8callisto8payloadssi_1__NtBb_9EffectMsgNtNtCs8pDKiTx8cJZ_5serde2de11Deserialize11deserializeNtB6_s3_7___FieldB14_11deserializeINtNtNtNtB18_9___private2de7content19ContentDeserializerNtNtCse3EK68OXEkC_10serde_json5error5ErrorEEBd_
FN:123,_RINvXse_NvXNvNtCscBGMVToPeRm_8callisto8payloadssi_1__NtBb_9EffectMsgNtNtCs8pDKiTx8cJZ_5serde2de11Deserialize11deserializeNtB6_s2_9___VisitorNtB16_7Visitor9visit_seqQINtNtB16_5value15SeqDeserializerINtNtNtNtCs9f3LFPSIp77_4core4iter8adapters3map3MapINtNtNtCsdze8u8oDPro_5alloc3vec9into_iter8IntoIterNtNtNtNtB18_9___private2de7content7ContentENvMse_B4N_INtB4N_19ContentDeserializerNtNtCse3EK68OXEkC_10serde_json5error5ErrorE3newEB64_EEBd_
FN:123,_RINvXse_NvXNvNtCscBGMVToPeRm_8callisto8payloadssi_1__NtBb_9EffectMsgNtNtCs8pDKiTx8cJZ_5serde2de11Deserialize11deserializeNtB6_s2_9___VisitorNtB16_7Visitor9visit_mapQINtNtB16_5value15MapDeserializerINtNtNtNtCs9f3LFPSIp77_4core4iter8adapters3map3MapINtNtNtCsdze8u8oDPro_5alloc3vec9into_iter8IntoIterTNtNtNtNtB18_9___private2de7content7ContentB4M_EENCINvB4O_17visit_content_mapB1V_NtNtCse3EK68OXEkC_10serde_json5error5ErrorE0EB64_EEBd_
FN:154,_RINvXNvXNvNtCscBGMVToPeRm_8callisto8payloadssk_1__NtB8_15LoadScenarioMsgNtNtCs8pDKiTx8cJZ_5serde2de11Deserialize11deserializeNtB3_14___FieldVisitorNtB1a_7Visitor9visit_strNtNtCse3EK68OXEkC_10serde_json5error5ErrorEBa_
FN:154,_RINvXs_NvXNvNtCscBGMVToPeRm_8callisto8payloadssk_1__NtBa_15LoadScenarioMsgNtNtCs8pDKiTx8cJZ_5serde2de11Deserialize11deserializeNtB5_7___FieldB1a_11deserializeINtNtCse3EK68OXEkC_10serde_json2de6MapKeyNtNtB2B_4read7StrReadEEBc_
FN:154,_RINvXs0_NvXNvNtCscBGMVToPeRm_8callisto8payloadssk_1__NtBb_15LoadScenarioMsgNtNtCs8pDKiTx8cJZ_5serde2de11Deserialize11deserializeNtB6_9___VisitorNtB1d_7Visitor9visit_seqINtNtCse3EK68OXEkC_10serde_json2de9SeqAccessNtNtB2L_4read7StrReadEEBd_
FN:154,_RINvXs0_NvXNvNtCscBGMVToPeRm_8callisto8payloadssk_1__NtBb_15LoadScenarioMsgNtNtCs8pDKiTx8cJZ_5serde2de11Deserialize11deserializeNtB6_9___VisitorNtB1d_7Visitor9visit_mapINtNtCse3EK68OXEkC_10serde_json2de9MapAccessNtNtB2L_4read7StrReadEEBd_
FN:166,_RNCINvMNvNtCscBGMVToPeRm_8callisto8payloadssl_1__NtB7_9Vec3asVec9serializeNtNtNtCse3EK68OXEkC_10serde_json5value3ser10SerializerE0B9_
FN:166,_RNCINvMNvNtCscBGMVToPeRm_8callisto8payloadssl_1__NtB7_9Vec3asVec9serializeQINtNtCse3EK68OXEkC_10serde_json3ser10SerializerQINtNtCsdze8u8oDPro_5alloc3vec3VechEEE0B9_
FN:167,_RNCINvMNvNtCscBGMVToPeRm_8callisto8payloadssl_1__NtB7_9Vec3asVec11deserializeINtNtNtNtCs8pDKiTx8cJZ_5serde9___private2de7content19ContentDeserializerNtNtCse3EK68OXEkC_10serde_json5error5ErrorEE0B9_
FN:167,_RNCINvMNvNtCscBGMVToPeRm_8callisto8payloadssl_1__NtB7_9Vec3asVec11deserializeNtNtCse3EK68OXEkC_10serde_json5value5ValueE0B9_
FN:167,_RNCINvMNvNtCscBGMVToPeRm_8callisto8payloadssl_1__NtB7_9Vec3asVec11deserializeQINtNtCse3EK68OXEkC_10serde_json2de12DeserializerNtNtB1j_4read7StrReadEE0B9_
FN:167,_RNCINvMNvNtCscBGMVToPeRm_8callisto8payloadssl_1__NtB7_9Vec3asVec11deserializeQINtNtCse3EK68OXEkC_10serde_json2de12DeserializerNtNtB1j_4read9SliceReadEE0B9_
FN:186,_RNvNtNtCscBGMVToPeRm_8callisto8payloads5testss_17test_add_ship_msg
FN:186,_RNvNtNCNvNtNtCscBGMVToPeRm_8callisto8payloads5testss_17test_add_ship_msg04init4init
FN:210,_RNvNtNtCscBGMVToPeRm_8callisto8payloads5testss_27test_add_ship_with_crew_msg
FN:210,_RNvNtNCNvNtNtCscBGMVToPeRm_8callisto8payloads5testss_27test_add_ship_with_crew_msg04init4init
FN:244,_RNvNtNtCscBGMVToPeRm_8callisto8payloads5testss_21test_compute_path_msg
FN:244,_RNvNtNvNtNtCscBGMVToPeRm_8callisto8payloads5testss_21test_compute_path_msg4init4init
FN:292,_RNvNtNtCscBGMVToPeRm_8callisto8payloads5testss_25test_serialize_effect_msg
FN:292,_RNvNtNvNtNtCscBGMVToPeRm_8callisto8payloads5testss_25test_serialize_effect_msg4init4init
FN:328,_RNvNtNtCscBGMVToPeRm_8callisto8payloads5testss_31test_serialize_fire_actions_msg
FN:328,_RNvNtNvNtNtCscBGMVToPeRm_8callisto8payloads5testss_31test_serialize_fire_actions_msg4init4init
FN:369,_RNvNtNtCscBGMVToPeRm_8callisto8payloads5testss_22test_load_scenario_msg
FN:369,_RNvNtNvNtNtCscBGMVToPeRm_8callisto8payloads5testss_22test_load_scenario_msg4init4init
FN:394,_RNvNtNtCscBGMVToPeRm_8callisto8payloads5testss_14test_login_msg
FN:394,_RNvNtNvNtNtCscBGMVToPeRm_8callisto8payloads5testss_14test_login_msg4init4init
FN:12,_RINvXNvXNvNtCskkwNnPUyuBS_8callisto8payloadss_1__NtB8_9SimpleMsgNtNtCs8pDKiTx8cJZ_5serde2de11Deserialize11deserializeNtB3_14___FieldVisitorNtB12_7Visitor9visit_strNtNtCse3EK68OXEkC_10serde_json5error5ErrorECseGnTZYlWoAf_9webserver
FN:123,_RINvXNvXNvNtCskkwNnPUyuBS_8callisto8payloadssh_1__NtB8_9EffectMsgNtNtCs8pDKiTx8cJZ_5serde3ser9Serialize9serializeNtB3_15___SerializeWithB11_9serializeNtNtNtCse3EK68OXEkC_10serde_json5value3ser10SerializerECseGnTZYlWoAf_9webserver
FN:123,_RINvXNvXNvNtCskkwNnPUyuBS_8callisto8payloadssi_1__NtB8_9EffectMsgNtNtCs8pDKiTx8cJZ_5serde2de11Deserialize11deserializeNtB3_14___FieldVisitorNtB13_7Visitor9visit_strNtNtCse3EK68OXEkC_10serde_json5error5ErrorECseGnTZYlWoAf_9webserver
FN:123,_RINvXNvXs2_NvXNvNtCskkwNnPUyuBS_8callisto8payloadssi_1__NtBe_9EffectMsgNtNtCs8pDKiTx8cJZ_5serde2de11Deserialize11deserializeNtB9_9___VisitorNtB19_7Visitor9visit_mapNtB3_17___DeserializeWithB17_11deserializeINtNtNtNtB1b_9___private2de7content19ContentDeserializerNtNtCse3EK68OXEkC_10serde_json5error5ErrorEECseGnTZYlWoAf_9webserver
FN:123,_RINvXNvXs2_NvXNvNtCskkwNnPUyuBS_8callisto8payloadssi_1__NtBe_9EffectMsgNtNtCs8pDKiTx8cJZ_5serde2de11Deserialize11deserializeNtB9_9___VisitorNtB19_7Visitor9visit_seqNtB3_17___DeserializeWithB17_11deserializeINtNtNtNtB1b_9___private2de7content19ContentDeserializerNtNtCse3EK68OXEkC_10serde_json5error5ErrorEECseGnTZYlWoAf_9webserver
FN:123,_RINvXNvXs5_NvXNvNtCskkwNnPUyuBS_8callisto8payloadssi_1__NtBe_9EffectMsgNtNtCs8pDKiTx8cJZ_5serde2de11Deserialize11deserializeNtB9_s_9___VisitorNtB19_7Visitor9visit_mapNtB3_17___DeserializeWithB17_11deserializeINtNtNtNtB1b_9___private2de7content19ContentDeserializerNtNtCse3EK68OXEkC_10serde_json5error5ErrorEECseGnTZYlWoAf_9webserver
FN:123,_RINvXNvXs5_NvXNvNtCskkwNnPUyuBS_8callisto8payloadssi_1__NtBe_9EffectMsgNtNtCs8pDKiTx8cJZ_5serde2de11Deserialize11deserializeNtB9_s_9___VisitorNtB19_7Visitor9visit_seqNtB3_17___DeserializeWithB17_11deserializeINtNtNtNtB1b_9___private2de7content19ContentDeserializerNtNtCse3EK68OXEkC_10serde_json5error5ErrorEECseGnTZYlWoAf_9webserver
FN:123,_RINvXNvXs8_NvXNvNtCskkwNnPUyuBS_8callisto8payloadssi_1__NtBe_9EffectMsgNtNtCs8pDKiTx8cJZ_5serde2de11Deserialize11deserializeNtB9_s0_9___VisitorNtB19_7Visitor9visit_mapNtB3_17___DeserializeWithB17_11deserializeINtNtNtNtB1b_9___private2de7content19ContentDeserializerNtNtCse3EK68OXEkC_10serde_json5error5ErrorEECseGnTZYlWoAf_9webserver
FN:123,_RINvXNvXs8_NvXNvNtCskkwNnPUyuBS_8callisto8payloadssi_1__NtBe_9EffectMsgNtNtCs8pDKiTx8cJZ_5serde2de11Deserialize11deserializeNtB9_s0_9___VisitorNtB19_7Visitor9visit_seqNtB3_17___DeserializeWithB17_11deserializeINtNtNtNtB1b_9___private2de7content19ContentDeserializerNtNtCse3EK68OXEkC_10serde_json5error5ErrorEECseGnTZYlWoAf_9webserver
FN:123,_RINvXNvXsb_NvXNvNtCskkwNnPUyuBS_8callisto8payloadssi_1__NtBe_9EffectMsgNtNtCs8pDKiTx8cJZ_5serde2de11Deserialize11deserializeNtB9_s1_9___VisitorNtB19_7Visitor9visit_mapNtB3_17___DeserializeWithB17_11deserializeINtNtNtNtB1b_9___private2de7content19ContentDeserializerNtNtCse3EK68OXEkC_10serde_json5error5ErrorEECseGnTZYlWoAf_9webserver
FN:123,_RINvXNvXsb_NvXNvNtCskkwNnPUyuBS_8callisto8payloadssi_1__NtBe_9EffectMsgNtNtCs8pDKiTx8cJZ_5serde2de11Deserialize11deserializeNtB9_s1_9___VisitorNtB19_7Visitor9visit_seqNtB3_17___DeserializeWithB17_11deserializeINtNtNtNtB1b_9___private2de7content19ContentDeserializerNtNtCse3EK68OXEkC_10serde_json5error5ErrorEECseGnTZYlWoAf_9webserver
FN:12,_RINvXs0_NvXNvNtCskkwNnPUyuBS_8callisto8payloadss_1__NtBb_9SimpleMsgNtNtCs8pDKiTx8cJZ_5serde2de11Deserialize11deserializeNtB6_9___VisitorNtB15_7Visitor9visit_mapINtNtCse3EK68OXEkC_10serde_json2de9MapAccessNtNtB2D_4read9SliceReadEECseGnTZYlWoAf_9webserver
FN:12,_RINvXs0_NvXNvNtCskkwNnPUyuBS_8callisto8payloadss_1__NtBb_9SimpleMsgNtNtCs8pDKiTx8cJZ_5serde2de11Deserialize11deserializeNtB6_9___VisitorNtB15_7Visitor9visit_seqINtNtCse3EK68OXEkC_10serde_json2de9SeqAccessNtNtB2D_4read9SliceReadEECseGnTZYlWoAf_9webserver
FN:123,_RINvXs0_NvXNvNtCskkwNnPUyuBS_8callisto8payloadssh_1__NtBb_9EffectMsgNtNtCs8pDKiTx8cJZ_5serde3ser9Serialize9serializeNtB6_s0_15___SerializeWithB14_9serializeNtNtNtCse3EK68OXEkC_10serde_json5value3ser10SerializerECseGnTZYlWoAf_9webserver
FN:123,_RINvXs0_NvXNvNtCskkwNnPUyuBS_8callisto8payloadssi_1__NtBb_9EffectMsgNtNtCs8pDKiTx8cJZ_5serde2de11Deserialize11deserializeNtB6_s_14___FieldVisitorNtB16_7Visitor11visit_bytesNtNtCse3EK68OXEkC_10serde_json5error5ErrorECseGnTZYlWoAf_9webserver
FN:123,_RINvXs0_NvXNvNtCskkwNnPUyuBS_8callisto8payloadssi_1__NtBb_9EffectMsgNtNtCs8pDKiTx8cJZ_5serde2de11Deserialize11deserializeNtB6_s_14___FieldVisitorNtB16_7Visitor9visit_strNtNtCse3EK68OXEkC_10serde_json5error5ErrorECseGnTZYlWoAf_9webserver
FN:123,_RINvXs0_NvXNvNtCskkwNnPUyuBS_8callisto8payloadssi_1__NtBb_9EffectMsgNtNtCs8pDKiTx8cJZ_5serde2de11Deserialize11deserializeNtB6_s_14___FieldVisitorNtB16_7Visitor9visit_u64NtNtCse3EK68OXEkC_10serde_json5error5ErrorECseGnTZYlWoAf_9webserver
FN:123,_RINvXs1_NvXNvNtCskkwNnPUyuBS_8callisto8payloadssh_1__NtBb_9EffectMsgNtNtCs8pDKiTx8cJZ_5serde3ser9Serialize9serializeNtB6_s1_15___SerializeWithB14_9serializeNtNtNtCse3EK68OXEkC_10serde_json5value3ser10SerializerECseGnTZYlWoAf_9webserver
FN:123,_RINvXs1_NvXNvNtCskkwNnPUyuBS_8callisto8payloadssi_1__NtBb_9EffectMsgNtNtCs8pDKiTx8cJZ_5serde2de11Deserialize11deserializeNtB6_s_7___FieldB14_11deserializeINtNtNtNtB18_9___private2de7content19ContentDeserializerNtNtCse3EK68OXEkC_10serde_json5error5ErrorEECseGnTZYlWoAf_9webserver
FN:123,_RINvXs2_NvXNvNtCskkwNnPUyuBS_8callisto8payloadssh_1__NtBb_9EffectMsgNtNtCs8pDKiTx8cJZ_5serde3ser9Serialize9serializeNtB6_s2_15___SerializeWithB14_9serializeNtNtNtCse3EK68OXEkC_10serde_json5value3ser10SerializerECseGnTZYlWoAf_9webserver
FN:123,_RINvXs2_NvXNvNtCskkwNnPUyuBS_8callisto8payloadssi_1__NtBb_9EffectMsgNtNtCs8pDKiTx8cJZ_5serde2de11Deserialize11deserializeNtB6_9___VisitorNtB16_7Visitor9visit_mapQINtNtB16_5value15MapDeserializerINtNtNtNtCs9f3LFPSIp77_4core4iter8adapters3map3MapINtNtNtCsdze8u8oDPro_5alloc3vec9into_iter8IntoIterTNtNtNtNtB18_9___private2de7content7ContentB4J_EENCINvB4L_17visit_content_mapB1V_NtNtCse3EK68OXEkC_10serde_json5error5ErrorE0EB61_EECseGnTZYlWoAf_9webserver
FN:123,_RINvXs2_NvXNvNtCskkwNnPUyuBS_8callisto8payloadssi_1__NtBb_9EffectMsgNtNtCs8pDKiTx8cJZ_5serde2de11Deserialize11deserializeNtB6_9___VisitorNtB16_7Visitor9visit_seqQINtNtB16_5value15SeqDeserializerINtNtNtNtCs9f3LFPSIp77_4core4iter8adapters3map3MapINtNtNtCsdze8u8oDPro_5alloc3vec9into_iter8IntoIterNtNtNtNtB18_9___private2de7content7ContentENvMse_B4K_INtB4K_19ContentDeserializerNtNtCse3EK68OXEkC_10serde_json5error5ErrorE3newEB61_EECseGnTZYlWoAf_9webserver
FN:123,_RINvXs3_NvXNvNtCskkwNnPUyuBS_8callisto8payloadssi_1__NtBb_9EffectMsgNtNtCs8pDKiTx8cJZ_5serde2de11Deserialize11deserializeNtB6_s0_14___FieldVisitorNtB16_7Visitor11visit_bytesNtNtCse3EK68OXEkC_10serde_json5error5ErrorECseGnTZYlWoAf_9webserver
FN:123,_RINvXs3_NvXNvNtCskkwNnPUyuBS_8callisto8payloadssi_1__NtBb_9EffectMsgNtNtCs8pDKiTx8cJZ_5serde2de11Deserialize11deserializeNtB6_s0_14___FieldVisitorNtB16_7Visitor9visit_strNtNtCse3EK68OXEkC_10serde_json5error5ErrorECseGnTZYlWoAf_9webserver
FN:123,_RINvXs3_NvXNvNtCskkwNnPUyuBS_8callisto8payloadssi_1__NtBb_9EffectMsgNtNtCs8pDKiTx8cJZ_5serde2de11Deserialize11deserializeNtB6_s0_14___FieldVisitorNtB16_7Visitor9visit_u64NtNtCse3EK68OXEkC_10serde_json5error5ErrorECseGnTZYlWoAf_9webserver
FN:123,_RINvXs4_NvXNvNtCskkwNnPUyuBS_8callisto8payloadssi_1__NtBb_9EffectMsgNtNtCs8pDKiTx8cJZ_5serde2de11Deserialize11deserializeNtB6_s0_7___FieldB14_11deserializeINtNtNtNtB18_9___private2de7content19ContentDeserializerNtNtCse3EK68OXEkC_10serde_json5error5ErrorEECseGnTZYlWoAf_9webserver
FN:123,_RINvXs5_NvXNvNtCskkwNnPUyuBS_8callisto8payloadssi_1__NtBb_9EffectMsgNtNtCs8pDKiTx8cJZ_5serde2de11Deserialize11deserializeNtB6_s_9___VisitorNtB16_7Visitor9visit_mapQINtNtB16_5value15MapDeserializerINtNtNtNtCs9f3LFPSIp77_4core4iter8adapters3map3MapINtNtNtCsdze8u8oDPro_5alloc3vec9into_iter8IntoIterTNtNtNtNtB18_9___private2de7content7ContentB4L_EENCINvB4N_17visit_content_mapB1V_NtNtCse3EK68OXEkC_10serde_json5error5ErrorE0EB63_EECseGnTZYlWoAf_9webserver
FN:123,_RINvXs5_NvXNvNtCskkwNnPUyuBS_8callisto8payloadssi_1__NtBb_9EffectMsgNtNtCs8pDKiTx8cJZ_5serde2de11Deserialize11deserializeNtB6_s_9___VisitorNtB16_7Visitor9visit_seqQINtNtB16_5value15SeqDeserializerINtNtNtNtCs9f3LFPSIp77_4core4iter8adapters3map3MapINtNtNtCsdze8u8oDPro_5alloc3vec9into_iter8IntoIterNtNtNtNtB18_9___private2de7content7ContentENvMse_B4M_INtB4M_19ContentDeserializerNtNtCse3EK68OXEkC_10serde_json5error5ErrorE3newEB63_EECseGnTZYlWoAf_9webserver
FN:123,_RINvXs6_NvXNvNtCskkwNnPUyuBS_8callisto8payloadssi_1__NtBb_9EffectMsgNtNtCs8pDKiTx8cJZ_5serde2de11Deserialize11deserializeNtB6_s1_14___FieldVisitorNtB16_7Visitor11visit_bytesNtNtCse3EK68OXEkC_10serde_json5error5ErrorECseGnTZYlWoAf_9webserver
FN:123,_RINvXs6_NvXNvNtCskkwNnPUyuBS_8callisto8payloadssi_1__NtBb_9EffectMsgNtNtCs8pDKiTx8cJZ_5serde2de11Deserialize11deserializeNtB6_s1_14___FieldVisitorNtB16_7Visitor9visit_strNtNtCse3EK68OXEkC_10serde_json5error5ErrorECseGnTZYlWoAf_9webserver
FN:123,_RINvXs6_NvXNvNtCskkwNnPUyuBS_8callisto8payloadssi_1__NtBb_9EffectMsgNtNtCs8pDKiTx8cJZ_5serde2de11Deserialize11deserializeNtB6_s1_14___FieldVisitorNtB16_7Visitor9visit_u64NtNtCse3EK68OXEkC_10serde_json5error5ErrorECseGnTZYlWoAf_9webserver
FN:123,_RINvXs7_NvXNvNtCskkwNnPUyuBS_8callisto8payloadssi_1__NtBb_9EffectMsgNtNtCs8pDKiTx8cJZ_5serde2de11Deserialize11deserializeNtB6_s1_7___FieldB14_11deserializeINtNtNtNtB18_9___private2de7content19ContentDeserializerNtNtCse3EK68OXEkC_10serde_json5error5ErrorEECseGnTZYlWoAf_9webserver
FN:123,_RINvXs8_NvXNvNtCskkwNnPUyuBS_8callisto8payloadssi_1__NtBb_9EffectMsgNtNtCs8pDKiTx8cJZ_5serde2de11Deserialize11deserializeNtB6_s0_9___VisitorNtB16_7Visitor9visit_mapQINtNtB16_5value15MapDeserializerINtNtNtNtCs9f3LFPSIp77_4core4iter8adapters3map3MapINtNtNtCsdze8u8oDPro_5alloc3vec9into_iter8IntoIterTNtNtNtNtB18_9___private2de7content7ContentB4M_EENCINvB4O_17visit_content_mapB1V_NtNtCse3EK68OXEkC_10serde_json5error5ErrorE0EB64_EECseGnTZYlWoAf_9webserver
FN:123,_RINvXs8_NvXNvNtCskkwNnPUyuBS_8callisto8payloadssi_1__NtBb_9EffectMsgNtNtCs8pDKiTx8cJZ_5serde2de11Deserialize11deserializeNtB6_s0_9___VisitorNtB16_7Visitor9visit_seqQINtNtB16_5value15SeqDeserializerINtNtNtNtCs9f3LFPSIp77_4core4iter8adapters3map3MapINtNtNtCsdze8u8oDPro_5alloc3vec9into_iter8IntoIterNtNtNtNtB18_9___private2de7content7ContentENvMse_B4N_INtB4N_19ContentDeserializerNtNtCse3EK68OXEkC_10serde_json5error5ErrorE3newEB64_EECseGnTZYlWoAf_9webserver
FN:123,_RINvXs9_NvXNvNtCskkwNnPUyuBS_8callisto8payloadssi_1__NtBb_9EffectMsgNtNtCs8pDKiTx8cJZ_5serde2de11Deserialize11deserializeNtB6_s2_14___FieldVisitorNtB16_7Visitor11visit_bytesNtNtCse3EK68OXEkC_10serde_json5error5ErrorECseGnTZYlWoAf_9webserver
FN:123,_RINvXs9_NvXNvNtCskkwNnPUyuBS_8callisto8payloadssi_1__NtBb_9EffectMsgNtNtCs8pDKiTx8cJZ_5serde2de11Deserialize11deserializeNtB6_s2_14___FieldVisitorNtB16_7Visitor9visit_strNtNtCse3EK68OXEkC_10serde_json5error5ErrorECseGnTZYlWoAf_9webserver
FN:123,_RINvXs9_NvXNvNtCskkwNnPUyuBS_8callisto8payloadssi_1__NtBb_9EffectMsgNtNtCs8pDKiTx8cJZ_5serde2de11Deserialize11deserializeNtB6_s2_14___FieldVisitorNtB16_7Visitor9visit_u64NtNtCse3EK68OXEkC_10serde_json5error5ErrorECseGnTZYlWoAf_9webserver
FN:12,_RINvXs_NvXNvNtCskkwNnPUyuBS_8callisto8payloadss_1__NtBa_9SimpleMsgNtNtCs8pDKiTx8cJZ_5serde2de11Deserialize11deserializeNtB5_7___FieldB12_11deserializeINtNtCse3EK68OXEkC_10serde_json2de6MapKeyNtNtB2t_4read9SliceReadEECseGnTZYlWoAf_9webserver
FN:123,_RINvXs_NvXNvNtCskkwNnPUyuBS_8callisto8payloadssh_1__NtBa_9EffectMsgNtNtCs8pDKiTx8cJZ_5serde3ser9Serialize9serializeNtB5_s_15___SerializeWithB13_9serializeNtNtNtCse3EK68OXEkC_10serde_json5value3ser10SerializerECseGnTZYlWoAf_9webserver
FN:123,_RINvXs_NvXNvNtCskkwNnPUyuBS_8callisto8payloadssi_1__NtBa_9EffectMsgNtNtCs8pDKiTx8cJZ_5serde2de11Deserialize11deserializeNtB5_7___FieldB13_11deserializeQINtNtCse3EK68OXEkC_10serde_json2de12DeserializerNtNtB2v_4read7StrReadEECseGnTZYlWoAf_9webserver
FN:123,_RINvXs_NvXsb_NvXNvNtCskkwNnPUyuBS_8callisto8payloadssi_1__NtBg_9EffectMsgNtNtCs8pDKiTx8cJZ_5serde2de11Deserialize11deserializeNtBb_s1_9___VisitorNtB1b_7Visitor9visit_mapNtB5_s_17___DeserializeWithB19_11deserializeINtNtNtNtB1d_9___private2de7content19ContentDeserializerNtNtCse3EK68OXEkC_10serde_json5error5ErrorEECseGnTZYlWoAf_9webserver
FN:123,_RINvXs_NvXsb_NvXNvNtCskkwNnPUyuBS_8callisto8payloadssi_1__NtBg_9EffectMsgNtNtCs8pDKiTx8cJZ_5serde2de11Deserialize11deserializeNtBb_s1_9___VisitorNtB1b_7Visitor9visit_seqNtB5_s_17___DeserializeWithB19_11deserializeINtNtNtNtB1d_9___private2de7content19ContentDeserializerNtNtCse3EK68OXEkC_10serde_json5error5ErrorEECseGnTZYlWoAf_9webserver
FN:123,_RINvXsa_NvXNvNtCskkwNnPUyuBS_8callisto8payloadssi_1__NtBb_9EffectMsgNtNtCs8pDKiTx8cJZ_5serde2de11Deserialize11deserializeNtB6_s2_7___FieldB14_11deserializeINtNtNtNtB18_9___private2de7content19ContentDeserializerNtNtCse3EK68OXEkC_10serde_json5error5ErrorEECseGnTZYlWoAf_9webserver
FN:123,_RINvXsb_NvXNvNtCskkwNnPUyuBS_8callisto8payloadssi_1__NtBb_9EffectMsgNtNtCs8pDKiTx8cJZ_5serde2de11Deserialize11deserializeNtB6_s1_9___VisitorNtB16_7Visitor9visit_mapQINtNtB16_5value15MapDeserializerINtNtNtNtCs9f3LFPSIp77_4core4iter8adapters3map3MapINtNtNtCsdze8u8oDPro_5alloc3vec9into_iter8IntoIterTNtNtNtNtB18_9___private2de7content7ContentB4M_EENCINvB4O_17visit_content_mapB1V_NtNtCse3EK68OXEkC_10serde_json5error5ErrorE0EB64_EECseGnTZYlWoAf_9webserver
FN:123,_RINvXsb_NvXNvNtCskkwNnPUyuBS_8callisto8payloadssi_1__NtBb_9EffectMsgNtNtCs8pDKiTx8cJZ_5serde2de11Deserialize11deserializeNtB6_s1_9___VisitorNtB16_7Visitor9visit_seqQINtNtB16_5value15SeqDeserializerINtNtNtNtCs9f3LFPSIp77_4core4iter8adapters3map3MapINtNtNtCsdze8u8oDPro_5alloc3vec9into_iter8IntoIterNtNtNtNtB18_9___private2de7content7ContentENvMse_B4N_INtB4N_19ContentDeserializerNtNtCse3EK68OXEkC_10serde_json5error5ErrorE3newEB64_EECseGnTZYlWoAf_9webserver
FN:123,_RINvXsc_NvXNvNtCskkwNnPUyuBS_8callisto8payloadssi_1__NtBb_9EffectMsgNtNtCs8pDKiTx8cJZ_5serde2de11Deserialize11deserializeNtB6_s3_14___FieldVisitorNtB16_7Visitor11visit_bytesNtNtCse3EK68OXEkC_10serde_json5error5ErrorECseGnTZYlWoAf_9webserver
FN:123,_RINvXsc_NvXNvNtCskkwNnPUyuBS_8callisto8payloadssi_1__NtBb_9EffectMsgNtNtCs8pDKiTx8cJZ_5serde2de11Deserialize11deserializeNtB6_s3_14___FieldVisitorNtB16_7Visitor9visit_strNtNtCse3EK68OXEkC_10serde_json5error5ErrorECseGnTZYlWoAf_9webserver
FN:123,_RINvXsc_NvXNvNtCskkwNnPUyuBS_8callisto8payloadssi_1__NtBb_9EffectMsgNtNtCs8pDKiTx8cJZ_5serde2de11Deserialize11deserializeNtB6_s3_14___FieldVisitorNtB16_7Visitor9visit_u64NtNtCse3EK68OXEkC_10serde_json5error5ErrorECseGnTZYlWoAf_9webserver
FN:123,_RINvXsd_NvXNvNtCskkwNnPUyuBS_8callisto8payloadssi_1__NtBb_9EffectMsgNtNtCs8pDKiTx8cJZ_5serde2de11Deserialize11deserializeNtB6_s3_7___FieldB14_11deserializeINtNtNtNtB18_9___private2de7content19ContentDeserializerNtNtCse3EK68OXEkC_10serde_json5error5ErrorEECseGnTZYlWoAf_9webserver
FN:123,_RINvXse_NvXNvNtCskkwNnPUyuBS_8callisto8payloadssi_1__NtBb_9EffectMsgNtNtCs8pDKiTx8cJZ_5serde2de11Deserialize11deserializeNtB6_s2_9___VisitorNtB16_7Visitor9visit_mapQINtNtB16_5value15MapDeserializerINtNtNtNtCs9f3LFPSIp77_4core4iter8adapters3map3MapINtNtNtCsdze8u8oDPro_5alloc3vec9into_iter8IntoIterTNtNtNtNtB18_9___private2de7content7ContentB4M_EENCINvB4O_17visit_content_mapB1V_NtNtCse3EK68OXEkC_10serde_json5error5ErrorE0EB64_EECseGnTZYlWoAf_9webserver
FN:123,_RINvXse_NvXNvNtCskkwNnPUyuBS_8callisto8payloadssi_1__NtBb_9EffectMsgNtNtCs8pDKiTx8cJZ_5serde2de11Deserialize11deserializeNtB6_s2_9___VisitorNtB16_7Visitor9visit_seqQINtNtB16_5value15SeqDeserializerINtNtNtNtCs9f3LFPSIp77_4core4iter8adapters3map3MapINtNtNtCsdze8u8oDPro_5alloc3vec9into_iter8IntoIterNtNtNtNtB18_9___private2de7content7ContentENvMse_B4N_INtB4N_19ContentDeserializerNtNtCse3EK68OXEkC_10serde_json5error5ErrorE3newEB64_EECseGnTZYlWoAf_9webserver
FN:167,_RNCINvMNvNtCskkwNnPUyuBS_8callisto8payloadssl_1__NtB7_9Vec3asVec11deserializeINtNtNtNtCs8pDKiTx8cJZ_5serde9___private2de7content19ContentDeserializerNtNtCse3EK68OXEkC_10serde_json5error5ErrorEE0CseGnTZYlWoAf_9webserver
FN:166,_RNCINvMNvNtCskkwNnPUyuBS_8callisto8payloadssl_1__NtB7_9Vec3asVec9serializeNtNtNtCse3EK68OXEkC_10serde_json5value3ser10SerializerE0CseGnTZYlWoAf_9webserver
FN:123,_RNCINvXs2_NvXNvNtCskkwNnPUyuBS_8callisto8payloadssi_1__NtBd_9EffectMsgNtNtCs8pDKiTx8cJZ_5serde2de11Deserialize11deserializeNtB8_9___VisitorNtB18_7Visitor9visit_seqQINtNtB18_5value15SeqDeserializerINtNtNtNtCs9f3LFPSIp77_4core4iter8adapters3map3MapINtNtNtCsdze8u8oDPro_5alloc3vec9into_iter8IntoIterNtNtNtNtB1a_9___private2de7content7ContentENvMse_B4M_INtB4M_19ContentDeserializerNtNtCse3EK68OXEkC_10serde_json5error5ErrorE3newEB63_EE0CseGnTZYlWoAf_9webserver
FN:123,_RNCINvXs5_NvXNvNtCskkwNnPUyuBS_8callisto8payloadssi_1__NtBd_9EffectMsgNtNtCs8pDKiTx8cJZ_5serde2de11Deserialize11deserializeNtB8_s_9___VisitorNtB18_7Visitor9visit_seqQINtNtB18_5value15SeqDeserializerINtNtNtNtCs9f3LFPSIp77_4core4iter8adapters3map3MapINtNtNtCsdze8u8oDPro_5alloc3vec9into_iter8IntoIterNtNtNtNtB1a_9___private2de7content7ContentENvMse_B4O_INtB4O_19ContentDeserializerNtNtCse3EK68OXEkC_10serde_json5error5ErrorE3newEB65_EE0CseGnTZYlWoAf_9webserver
FN:123,_RNCINvXs8_NvXNvNtCskkwNnPUyuBS_8callisto8payloadssi_1__NtBd_9EffectMsgNtNtCs8pDKiTx8cJZ_5serde2de11Deserialize11deserializeNtB8_s0_9___VisitorNtB18_7Visitor9visit_seqQINtNtB18_5value15SeqDeserializerINtNtNtNtCs9f3LFPSIp77_4core4iter8adapters3map3MapINtNtNtCsdze8u8oDPro_5alloc3vec9into_iter8IntoIterNtNtNtNtB1a_9___private2de7content7ContentENvMse_B4P_INtB4P_19ContentDeserializerNtNtCse3EK68OXEkC_10serde_json5error5ErrorE3newEB66_EE0CseGnTZYlWoAf_9webserver
FN:123,_RNCINvXsb_NvXNvNtCskkwNnPUyuBS_8callisto8payloadssi_1__NtBd_9EffectMsgNtNtCs8pDKiTx8cJZ_5serde2de11Deserialize11deserializeNtB8_s1_9___VisitorNtB18_7Visitor9visit_seqQINtNtB18_5value15SeqDeserializerINtNtNtNtCs9f3LFPSIp77_4core4iter8adapters3map3MapINtNtNtCsdze8u8oDPro_5alloc3vec9into_iter8IntoIterNtNtNtNtB1a_9___private2de7content7ContentENvMse_B4P_INtB4P_19ContentDeserializerNtNtCse3EK68OXEkC_10serde_json5error5ErrorE3newEB66_EE0CseGnTZYlWoAf_9webserver
FN:123,_RNCINvXsb_NvXNvNtCskkwNnPUyuBS_8callisto8payloadssi_1__NtBd_9EffectMsgNtNtCs8pDKiTx8cJZ_5serde2de11Deserialize11deserializeNtB8_s1_9___VisitorNtB18_7Visitor9visit_seqQINtNtB18_5value15SeqDeserializerINtNtNtNtCs9f3LFPSIp77_4core4iter8adapters3map3MapINtNtNtCsdze8u8oDPro_5alloc3vec9into_iter8IntoIterNtNtNtNtB1a_9___private2de7content7ContentENvMse_B4P_INtB4P_19ContentDeserializerNtNtCse3EK68OXEkC_10serde_json5error5ErrorE3newEB66_EEs_0CseGnTZYlWoAf_9webserver
FNDA:16,_RINvXNvXNvNtCskkwNnPUyuBS_8callisto8payloadss1_1__NtB8_8LoginMsgNtNtCs8pDKiTx8cJZ_5serde2de11Deserialize11deserializeNtB3_14___FieldVisitorNtB12_7Visitor9visit_strNtNtCse3EK68OXEkC_10serde_json5error5ErrorECsj2r3Yn2CUPB_8callisto
FNDA:59,_RINvXNvXNvNtCskkwNnPUyuBS_8callisto8payloadss5_1__NtB8_10AddShipMsgNtNtCs8pDKiTx8cJZ_5serde2de11Deserialize11deserializeNtB3_14___FieldVisitorNtB15_7Visitor9visit_strNtNtCse3EK68OXEkC_10serde_json5error5ErrorECsj2r3Yn2CUPB_8callisto
FNDA:11,_RINvXNvXNvNtCskkwNnPUyuBS_8callisto8payloadss7_1__NtB8_14SetCrewActionsNtNtCs8pDKiTx8cJZ_5serde2de11Deserialize11deserializeNtB3_14___FieldVisitorNtB19_7Visitor9visit_strNtNtCse3EK68OXEkC_10serde_json5error5ErrorECsj2r3Yn2CUPB_8callisto
FNDA:18,_RINvXNvXNvNtCskkwNnPUyuBS_8callisto8payloadssa_1__NtB8_12AddPlanetMsgNtNtCs8pDKiTx8cJZ_5serde2de11Deserialize11deserializeNtB3_14___FieldVisitorNtB17_7Visitor9visit_strNtNtCse3EK68OXEkC_10serde_json5error5ErrorECsj2r3Yn2CUPB_8callisto
FNDA:4,_RINvXNvXNvNtCskkwNnPUyuBS_8callisto8payloadssc_1__NtB8_10SetPlanMsgNtNtCs8pDKiTx8cJZ_5serde2de11Deserialize11deserializeNtB3_14___FieldVisitorNtB15_7Visitor9visit_strNtNtCse3EK68OXEkC_10serde_json5error5ErrorECsj2r3Yn2CUPB_8callisto
FNDA:8,_RINvXNvXNvNtCskkwNnPUyuBS_8callisto8payloadsse_1__NtB8_14ComputePathMsgNtNtCs8pDKiTx8cJZ_5serde2de11Deserialize11deserializeNtB3_14___FieldVisitorNtB19_7Visitor9visit_strNtNtCse3EK68OXEkC_10serde_json5error5ErrorECsj2r3Yn2CUPB_8callisto
FNDA:2,_RINvXNvXNvNtCskkwNnPUyuBS_8callisto8payloadssg_1__NtB8_10FireActionNtNtCs8pDKiTx8cJZ_5serde2de11Deserialize11deserializeNtB3_14___FieldVisitorNtB15_7Visitor9visit_strNtNtCse3EK68OXEkC_10serde_json5error5ErrorECsj2r3Yn2CUPB_8callisto
FNDA:5,_RINvXNvXNvNtCskkwNnPUyuBS_8callisto8payloadssk_1__NtB8_15LoadScenarioMsgNtNtCs8pDKiTx8cJZ_5serde2de11Deserialize11deserializeNtB3_14___FieldVisitorNtB1a_7Visitor9visit_strNtNtCse3EK68OXEkC_10serde_json5error5ErrorECsj2r3Yn2CUPB_8callisto
FNDA:11,_RINvXNvXs0_NvXNvNtCskkwNnPUyuBS_8callisto8payloadss5_1__NtBe_10AddShipMsgNtNtCs8pDKiTx8cJZ_5serde2de11Deserialize11deserializeNtB9_9___VisitorNtB1b_7Visitor9visit_mapNtB3_17___DeserializeWithB19_11deserializeQINtNtCse3EK68OXEkC_10serde_json2de12DeserializerNtNtB3q_4read9SliceReadEECsj2r3Yn2CUPB_8callisto
FNDA:0,_RINvXNvXs0_NvXNvNtCskkwNnPUyuBS_8callisto8payloadss5_1__NtBe_10AddShipMsgNtNtCs8pDKiTx8cJZ_5serde2de11Deserialize11deserializeNtB9_9___VisitorNtB1b_7Visitor9visit_seqNtB3_17___DeserializeWithB19_11deserializeQINtNtCse3EK68OXEkC_10serde_json2de12DeserializerNtNtB3q_4read9SliceReadEECsj2r3Yn2CUPB_8callisto
FNDA:3,_RINvXNvXs0_NvXNvNtCskkwNnPUyuBS_8callisto8payloadssa_1__NtBe_12AddPlanetMsgNtNtCs8pDKiTx8cJZ_5serde2de11Deserialize11deserializeNtB9_9___VisitorNtB1d_7Visitor9visit_mapNtB3_17___DeserializeWithB1b_11deserializeQINtNtCse3EK68OXEkC_10serde_json2de12DeserializerNtNtB3s_4read9SliceReadEECsj2r3Yn2CUPB_8callisto
FNDA:0,_RINvXNvXs0_NvXNvNtCskkwNnPUyuBS_8callisto8payloadssa_1__NtBe_12AddPlanetMsgNtNtCs8pDKiTx8cJZ_5serde2de11Deserialize11deserializeNtB9_9___VisitorNtB1d_7Visitor9visit_seqNtB3_17___DeserializeWithB1b_11deserializeQINtNtCse3EK68OXEkC_10serde_json2de12DeserializerNtNtB3s_4read9SliceReadEECsj2r3Yn2CUPB_8callisto
FNDA:2,_RINvXNvXs0_NvXNvNtCskkwNnPUyuBS_8callisto8payloadsse_1__NtBe_14ComputePathMsgNtNtCs8pDKiTx8cJZ_5serde2de11Deserialize11deserializeNtB9_9___VisitorNtB1f_7Visitor9visit_mapNtB3_17___DeserializeWithB1d_11deserializeQINtNtCse3EK68OXEkC_10serde_json2de12DeserializerNtNtB3u_4read9SliceReadEECsj2r3Yn2CUPB_8callisto
FNDA:0,_RINvXNvXs0_NvXNvNtCskkwNnPUyuBS_8callisto8payloadsse_1__NtBe_14ComputePathMsgNtNtCs8pDKiTx8cJZ_5serde2de11Deserialize11deserializeNtB9_9___VisitorNtB1f_7Visitor9visit_seqNtB3_17___DeserializeWithB1d_11deserializeQINtNtCse3EK68OXEkC_10serde_json2de12DeserializerNtNtB3u_4read9SliceReadEECsj2r3Yn2CUPB_8callisto
FNDA:17,_RINvXs0_NvXNvNtCskkwNnPUyuBS_8callisto8payloadss1_1__NtBb_8LoginMsgNtNtCs8pDKiTx8cJZ_5serde2de11Deserialize11deserializeNtB6_9___VisitorNtB15_7Visitor9visit_mapINtNtCse3EK68OXEkC_10serde_json2de9MapAccessNtNtB2D_4read9SliceReadEECsj2r3Yn2CUPB_8callisto
FNDA:0,_RINvXs0_NvXNvNtCskkwNnPUyuBS_8callisto8payloadss1_1__NtBb_8LoginMsgNtNtCs8pDKiTx8cJZ_5serde2de11Deserialize11deserializeNtB6_9___VisitorNtB15_7Visitor9visit_seqINtNtCse3EK68OXEkC_10serde_json2de9SeqAccessNtNtB2D_4read9SliceReadEECsj2r3Yn2CUPB_8callisto
FNDA:11,_RINvXs0_NvXNvNtCskkwNnPUyuBS_8callisto8payloadss5_1__NtBb_10AddShipMsgNtNtCs8pDKiTx8cJZ_5serde2de11Deserialize11deserializeNtB6_9___VisitorNtB18_7Visitor9visit_mapINtNtCse3EK68OXEkC_10serde_json2de9MapAccessNtNtB2G_4read9SliceReadEECsj2r3Yn2CUPB_8callisto
FNDA:0,_RINvXs0_NvXNvNtCskkwNnPUyuBS_8callisto8payloadss5_1__NtBb_10AddShipMsgNtNtCs8pDKiTx8cJZ_5serde2de11Deserialize11deserializeNtB6_9___VisitorNtB18_7Visitor9visit_seqINtNtCse3EK68OXEkC_10serde_json2de9SeqAccessNtNtB2G_4read9SliceReadEECsj2r3Yn2CUPB_8callisto
FNDA:5,_RINvXs0_NvXNvNtCskkwNnPUyuBS_8callisto8payloadss7_1__NtBb_14SetCrewActionsNtNtCs8pDKiTx8cJZ_5serde2de11Deserialize11deserializeNtB6_9___VisitorNtB1c_7Visitor9visit_mapINtNtCse3EK68OXEkC_10serde_json2de9MapAccessNtNtB2K_4read9SliceReadEECsj2r3Yn2CUPB_8callisto
FNDA:0,_RINvXs0_NvXNvNtCskkwNnPUyuBS_8callisto8payloadss7_1__NtBb_14SetCrewActionsNtNtCs8pDKiTx8cJZ_5serde2de11Deserialize11deserializeNtB6_9___VisitorNtB1c_7Visitor9visit_seqINtNtCse3EK68OXEkC_10serde_json2de9SeqAccessNtNtB2K_4read9SliceReadEECsj2r3Yn2CUPB_8callisto
FNDA:3,_RINvXs0_NvXNvNtCskkwNnPUyuBS_8callisto8payloadssa_1__NtBb_12AddPlanetMsgNtNtCs8pDKiTx8cJZ_5serde2de11Deserialize11deserializeNtB6_9___VisitorNtB1a_7Visitor9visit_mapINtNtCse3EK68OXEkC_10serde_json2de9MapAccessNtNtB2I_4read9SliceReadEECsj2r3Yn2CUPB_8callisto
FNDA:0,_RINvXs0_NvXNvNtCskkwNnPUyuBS_8callisto8payloadssa_1__NtBb_12AddPlanetMsgNtNtCs8pDKiTx8cJZ_5serde2de11Deserialize11deserializeNtB6_9___VisitorNtB1a_7Visitor9visit_seqINtNtCse3EK68OXEkC_10serde_json2de9SeqAccessNtNtB2I_4read9SliceReadEECsj2r3Yn2CUPB_8callisto
FNDA:2,_RINvXs0_NvXNvNtCskkwNnPUyuBS_8callisto8payloadssc_1__NtBb_10SetPlanMsgNtNtCs8pDKiTx8cJZ_5serde2de11Deserialize11deserializeNtB6_9___VisitorNtB18_7Visitor9visit_mapINtNtCse3EK68OXEkC_10serde_json2de9MapAccessNtNtB2G_4read9SliceReadEECsj2r3Yn2CUPB_8callisto
FNDA:0,_RINvXs0_NvXNvNtCskkwNnPUyuBS_8callisto8payloadssc_1__NtBb_10SetPlanMsgNtNtCs8pDKiTx8cJZ_5serde2de11Deserialize11deserializeNtB6_9___VisitorNtB18_7Visitor9visit_seqINtNtCse3EK68OXEkC_10serde_json2de9SeqAccessNtNtB2G_4read9SliceReadEECsj2r3Yn2CUPB_8callisto
FNDA:2,_RINvXs0_NvXNvNtCskkwNnPUyuBS_8callisto8payloadsse_1__NtBb_14ComputePathMsgNtNtCs8pDKiTx8cJZ_5serde2de11Deserialize11deserializeNtB6_9___VisitorNtB1c_7Visitor9visit_mapINtNtCse3EK68OXEkC_10serde_json2de9MapAccessNtNtB2K_4read9SliceReadEECsj2r3Yn2CUPB_8callisto
FNDA:0,_RINvXs0_NvXNvNtCskkwNnPUyuBS_8callisto8payloadsse_1__NtBb_14ComputePathMsgNtNtCs8pDKiTx8cJZ_5serde2de11Deserialize11deserializeNtB6_9___VisitorNtB1c_7Visitor9visit_seqINtNtCse3EK68OXEkC_10serde_json2de9SeqAccessNtNtB2K_4read9SliceReadEECsj2r3Yn2CUPB_8callisto
FNDA:1,_RINvXs0_NvXNvNtCskkwNnPUyuBS_8callisto8payloadssg_1__NtBb_10FireActionNtNtCs8pDKiTx8cJZ_5serde2de11Deserialize11deserializeNtB6_9___VisitorNtB18_7Visitor9visit_mapINtNtCse3EK68OXEkC_10serde_json2de9MapAccessNtNtB2G_4read9SliceReadEECsj2r3Yn2CUPB_8callisto
FNDA:0,_RINvXs0_NvXNvNtCskkwNnPUyuBS_8callisto8payloadssg_1__NtBb_10FireActionNtNtCs8pDKiTx8cJZ_5serde2de11Deserialize11deserializeNtB6_9___VisitorNtB18_7Visitor9visit_seqINtNtCse3EK68OXEkC_10serde_json2de9SeqAccessNtNtB2G_4read9SliceReadEECsj2r3Yn2CUPB_8callisto
FNDA:5,_RINvXs0_NvXNvNtCskkwNnPUyuBS_8callisto8payloadssk_1__NtBb_15LoadScenarioMsgNtNtCs8pDKiTx8cJZ_5serde2de11Deserialize11deserializeNtB6_9___VisitorNtB1d_7Visitor9visit_mapINtNtCse3EK68OXEkC_10serde_json2de9MapAccessNtNtB2L_4read9SliceReadEECsj2r3Yn2CUPB_8callisto
FNDA:0,_RINvXs0_NvXNvNtCskkwNnPUyuBS_8callisto8payloadssk_1__NtBb_15LoadScenarioMsgNtNtCs8pDKiTx8cJZ_5serde2de11Deserialize11deserializeNtB6_9___VisitorNtB1d_7Visitor9visit_seqINtNtCse3EK68OXEkC_10serde_json2de9SeqAccessNtNtB2L_4read9SliceReadEECsj2r3Yn2CUPB_8callisto
FNDA:11,_RINvXs0_NvXs0_NvXNvNtCskkwNnPUyuBS_8callisto8payloadss5_1__NtBh_10AddShipMsgNtNtCs8pDKiTx8cJZ_5serde2de11Deserialize11deserializeNtBc_9___VisitorNtB1e_7Visitor9visit_mapNtB6_s0_17___DeserializeWithB1c_11deserializeQINtNtCse3EK68OXEkC_10serde_json2de12DeserializerNtNtB3w_4read9SliceReadEECsj2r3Yn2CUPB_8callisto
FNDA:0,_RINvXs0_NvXs0_NvXNvNtCskkwNnPUyuBS_8callisto8payloadss5_1__NtBh_10AddShipMsgNtNtCs8pDKiTx8cJZ_5serde2de11Deserialize11deserializeNtBc_9___VisitorNtB1e_7Visitor9visit_seqNtB6_s0_17___DeserializeWithB1c_11deserializeQINtNtCse3EK68OXEkC_10serde_json2de12DeserializerNtNtB3w_4read9SliceReadEECsj2r3Yn2CUPB_8callisto
FNDA:0,_RINvXs0_NvXs0_NvXNvNtCskkwNnPUyuBS_8callisto8payloadsse_1__NtBh_14ComputePathMsgNtNtCs8pDKiTx8cJZ_5serde2de11Deserialize11deserializeNtBc_9___VisitorNtB1i_7Visitor9visit_mapNtB6_s0_17___DeserializeWithB1g_11deserializeQINtNtCse3EK68OXEkC_10serde_json2de12DeserializerNtNtB3A_4read9SliceReadEECsj2r3Yn2CUPB_8callisto
FNDA:0,_RINvXs0_NvXs0_NvXNvNtCskkwNnPUyuBS_8callisto8payloadsse_1__NtBh_14ComputePathMsgNtNtCs8pDKiTx8cJZ_5serde2de11Deserialize11deserializeNtBc_9___VisitorNtB1i_7Visitor9visit_seqNtB6_s0_17___DeserializeWithB1g_11deserializeQINtNtCse3EK68OXEkC_10serde_json2de12DeserializerNtNtB3A_4read9SliceReadEECsj2r3Yn2CUPB_8callisto
FNDA:16,_RINvXs_NvXNvNtCskkwNnPUyuBS_8callisto8payloadss1_1__NtBa_8LoginMsgNtNtCs8pDKiTx8cJZ_5serde2de11Deserialize11deserializeNtB5_7___FieldB12_11deserializeINtNtCse3EK68OXEkC_10serde_json2de6MapKeyNtNtB2t_4read9SliceReadEECsj2r3Yn2CUPB_8callisto
FNDA:59,_RINvXs_NvXNvNtCskkwNnPUyuBS_8callisto8payloadss5_1__NtBa_10AddShipMsgNtNtCs8pDKiTx8cJZ_5serde2de11Deserialize11deserializeNtB5_7___FieldB15_11deserializeINtNtCse3EK68OXEkC_10serde_json2de6MapKeyNtNtB2w_4read9SliceReadEECsj2r3Yn2CUPB_8callisto
FNDA:11,_RINvXs_NvXNvNtCskkwNnPUyuBS_8callisto8payloadss7_1__NtBa_14SetCrewActionsNtNtCs8pDKiTx8cJZ_5serde2de11Deserialize11deserializeNtB5_7___FieldB19_11deserializeINtNtCse3EK68OXEkC_10serde_json2de6MapKeyNtNtB2A_4read9SliceReadEECsj2r3Yn2CUPB_8callisto
FNDA:18,_RINvXs_NvXNvNtCskkwNnPUyuBS_8callisto8payloadssa_1__NtBa_12AddPlanetMsgNtNtCs8pDKiTx8cJZ_5serde2de11Deserialize11deserializeNtB5_7___FieldB17_11deserializeINtNtCse3EK68OXEkC_10serde_json2de6MapKeyNtNtB2y_4read9SliceReadEECsj2r3Yn2CUPB_8callisto
FNDA:4,_RINvXs_NvXNvNtCskkwNnPUyuBS_8callisto8payloadssc_1__NtBa_10SetPlanMsgNtNtCs8pDKiTx8cJZ_5serde2de11Deserialize11deserializeNtB5_7___FieldB15_11deserializeINtNtCse3EK68OXEkC_10serde_json2de6MapKeyNtNtB2w_4read9SliceReadEECsj2r3Yn2CUPB_8callisto
FNDA:8,_RINvXs_NvXNvNtCskkwNnPUyuBS_8callisto8payloadsse_1__NtBa_14ComputePathMsgNtNtCs8pDKiTx8cJZ_5serde2de11Deserialize11deserializeNtB5_7___FieldB19_11deserializeINtNtCse3EK68OXEkC_10serde_json2de6MapKeyNtNtB2A_4read9SliceReadEECsj2r3Yn2CUPB_8callisto
FNDA:2,_RINvXs_NvXNvNtCskkwNnPUyuBS_8callisto8payloadssg_1__NtBa_10FireActionNtNtCs8pDKiTx8cJZ_5serde2de11Deserialize11deserializeNtB5_7___FieldB15_11deserializeINtNtCse3EK68OXEkC_10serde_json2de6MapKeyNtNtB2w_4read9SliceReadEECsj2r3Yn2CUPB_8callisto
FNDA:5,_RINvXs_NvXNvNtCskkwNnPUyuBS_8callisto8payloadssk_1__NtBa_15LoadScenarioMsgNtNtCs8pDKiTx8cJZ_5serde2de11Deserialize11deserializeNtB5_7___FieldB1a_11deserializeINtNtCse3EK68OXEkC_10serde_json2de6MapKeyNtNtB2B_4read9SliceReadEECsj2r3Yn2CUPB_8callisto
FNDA:11,_RINvXs_NvXs0_NvXNvNtCskkwNnPUyuBS_8callisto8payloadss5_1__NtBg_10AddShipMsgNtNtCs8pDKiTx8cJZ_5serde2de11Deserialize11deserializeNtBb_9___VisitorNtB1d_7Visitor9visit_mapNtB5_s_17___DeserializeWithB1b_11deserializeQINtNtCse3EK68OXEkC_10serde_json2de12DeserializerNtNtB3u_4read9SliceReadEECsj2r3Yn2CUPB_8callisto
FNDA:0,_RINvXs_NvXs0_NvXNvNtCskkwNnPUyuBS_8callisto8payloadss5_1__NtBg_10AddShipMsgNtNtCs8pDKiTx8cJZ_5serde2de11Deserialize11deserializeNtBb_9___VisitorNtB1d_7Visitor9visit_seqNtB5_s_17___DeserializeWithB1b_11deserializeQINtNtCse3EK68OXEkC_10serde_json2de12DeserializerNtNtB3u_4read9SliceReadEECsj2r3Yn2CUPB_8callisto
FNDA:2,_RINvXs_NvXs0_NvXNvNtCskkwNnPUyuBS_8callisto8payloadsse_1__NtBg_14ComputePathMsgNtNtCs8pDKiTx8cJZ_5serde2de11Deserialize11deserializeNtBb_9___VisitorNtB1h_7Visitor9visit_mapNtB5_s_17___DeserializeWithB1f_11deserializeQINtNtCse3EK68OXEkC_10serde_json2de12DeserializerNtNtB3y_4read9SliceReadEECsj2r3Yn2CUPB_8callisto
FNDA:0,_RINvXs_NvXs0_NvXNvNtCskkwNnPUyuBS_8callisto8payloadsse_1__NtBg_14ComputePathMsgNtNtCs8pDKiTx8cJZ_5serde2de11Deserialize11deserializeNtBb_9___VisitorNtB1h_7Visitor9visit_seqNtB5_s_17___DeserializeWithB1f_11deserializeQINtNtCse3EK68OXEkC_10serde_json2de12DeserializerNtNtB3y_4read9SliceReadEECsj2r3Yn2CUPB_8callisto
FNDA:54,_RNCINvMNvNtCskkwNnPUyuBS_8callisto8payloadssl_1__NtB7_9Vec3asVec11deserializeQINtNtCse3EK68OXEkC_10serde_json2de12DeserializerNtNtB1j_4read9SliceReadEE0Csj2r3Yn2CUPB_8callisto
FNDA:0,_RNCINvXs0_NvXNvNtCskkwNnPUyuBS_8callisto8payloadss5_1__NtBd_10AddShipMsgNtNtCs8pDKiTx8cJZ_5serde2de11Deserialize11deserializeNtB8_9___VisitorNtB1a_7Visitor9visit_seqINtNtCse3EK68OXEkC_10serde_json2de9SeqAccessNtNtB2I_4read9SliceReadEE0Csj2r3Yn2CUPB_8callisto
FNDA:0,_RNCINvXs0_NvXNvNtCskkwNnPUyuBS_8callisto8payloadss5_1__NtBd_10AddShipMsgNtNtCs8pDKiTx8cJZ_5serde2de11Deserialize11deserializeNtB8_9___VisitorNtB1a_7Visitor9visit_seqINtNtCse3EK68OXEkC_10serde_json2de9SeqAccessNtNtB2I_4read9SliceReadEEs0_0Csj2r3Yn2CUPB_8callisto
FNDA:0,_RNCINvXs0_NvXNvNtCskkwNnPUyuBS_8callisto8payloadss5_1__NtBd_10AddShipMsgNtNtCs8pDKiTx8cJZ_5serde2de11Deserialize11deserializeNtB8_9___VisitorNtB1a_7Visitor9visit_seqINtNtCse3EK68OXEkC_10serde_json2de9SeqAccessNtNtB2I_4read9SliceReadEEs_0Csj2r3Yn2CUPB_8callisto
FNDA:0,_RNCINvXs0_NvXNvNtCskkwNnPUyuBS_8callisto8payloadssa_1__NtBd_12AddPlanetMsgNtNtCs8pDKiTx8cJZ_5serde2de11Deserialize11deserializeNtB8_9___VisitorNtB1c_7Visitor9visit_seqINtNtCse3EK68OXEkC_10serde_json2de9SeqAccessNtNtB2K_4read9SliceReadEE0Csj2r3Yn2CUPB_8callisto
FNDA:0,_RNCINvXs0_NvXNvNtCskkwNnPUyuBS_8callisto8payloadsse_1__NtBd_14ComputePathMsgNtNtCs8pDKiTx8cJZ_5serde2de11Deserialize11deserializeNtB8_9___VisitorNtB1e_7Visitor9visit_seqINtNtCse3EK68OXEkC_10serde_json2de9SeqAccessNtNtB2M_4read9SliceReadEE0Csj2r3Yn2CUPB_8callisto
FNDA:0,_RNCINvXs0_NvXNvNtCskkwNnPUyuBS_8callisto8payloadsse_1__NtBd_14ComputePathMsgNtNtCs8pDKiTx8cJZ_5serde2de11Deserialize11deserializeNtB8_9___VisitorNtB1e_7Visitor9visit_seqINtNtCse3EK68OXEkC_10serde_json2de9SeqAccessNtNtB2M_4read9SliceReadEEs0_0Csj2r3Yn2CUPB_8callisto
FNDA:0,_RNCINvXs0_NvXNvNtCskkwNnPUyuBS_8callisto8payloadsse_1__NtBd_14ComputePathMsgNtNtCs8pDKiTx8cJZ_5serde2de11Deserialize11deserializeNtB8_9___VisitorNtB1e_7Visitor9visit_seqINtNtCse3EK68OXEkC_10serde_json2de9SeqAccessNtNtB2M_4read9SliceReadEEs_0Csj2r3Yn2CUPB_8callisto
FNDA:0,_RNvMNtCskkwNnPUyuBS_8callisto8payloadsNtB2_14SetCrewActions3new
FNDA:3,_RNvMs_NtCskkwNnPUyuBS_8callisto8payloadsNtB4_9EffectMsg7message
FNDA:0,_RNvXNvXNvNtCskkwNnPUyuBS_8callisto8payloadss_1__NtB7_9SimpleMsgNtNtCs8pDKiTx8cJZ_5serde2de11Deserialize11deserializeNtB2_14___FieldVisitorNtB11_7Visitor9expecting
FNDA:0,_RNvXs0_NvXNvNtCskkwNnPUyuBS_8callisto8payloadss_1__NtBa_9SimpleMsgNtNtCs8pDKiTx8cJZ_5serde2de11Deserialize11deserializeNtB5_9___VisitorNtB14_7Visitor9expecting
FNDA:0,_RNvXNvXNvNtCskkwNnPUyuBS_8callisto8payloadss1_1__NtB7_8LoginMsgNtNtCs8pDKiTx8cJZ_5serde2de11Deserialize11deserializeNtB2_14___FieldVisitorNtB11_7Visitor9expecting
FNDA:0,_RNvXs0_NvXNvNtCskkwNnPUyuBS_8callisto8payloadss1_1__NtBa_8LoginMsgNtNtCs8pDKiTx8cJZ_5serde2de11Deserialize11deserializeNtB5_9___VisitorNtB14_7Visitor9expecting
FNDA:0,_RNvXNvXNvNtCskkwNnPUyuBS_8callisto8payloadss3_1__NtB7_12AuthResponseNtNtCs8pDKiTx8cJZ_5serde2de11Deserialize11deserializeNtB2_14___FieldVisitorNtB16_7Visitor9expecting
FNDA:0,_RNvXs0_NvXNvNtCskkwNnPUyuBS_8callisto8payloadss3_1__NtBa_12AuthResponseNtNtCs8pDKiTx8cJZ_5serde2de11Deserialize11deserializeNtB5_9___VisitorNtB19_7Visitor9expecting
FNDA:0,_RNvXNvXNvNtCskkwNnPUyuBS_8callisto8payloadss5_1__NtB7_10AddShipMsgNtNtCs8pDKiTx8cJZ_5serde2de11Deserialize11deserializeNtB2_14___FieldVisitorNtB14_7Visitor9expecting
FNDA:0,_RNvXs0_NvXNvNtCskkwNnPUyuBS_8callisto8payloadss5_1__NtBa_10AddShipMsgNtNtCs8pDKiTx8cJZ_5serde2de11Deserialize11deserializeNtB5_9___VisitorNtB17_7Visitor9expecting
FNDA:0,_RNvXNvXNvNtCskkwNnPUyuBS_8callisto8payloadss7_1__NtB7_14SetCrewActionsNtNtCs8pDKiTx8cJZ_5serde2de11Deserialize11deserializeNtB2_14___FieldVisitorNtB18_7Visitor9expecting
FNDA:0,_RNvXs0_NvXNvNtCskkwNnPUyuBS_8callisto8payloadss7_1__NtBa_14SetCrewActionsNtNtCs8pDKiTx8cJZ_5serde2de11Deserialize11deserializeNtB5_9___VisitorNtB1b_7Visitor9expecting
FNDA:0,_RNvXNvXNvNtCskkwNnPUyuBS_8callisto8payloadssa_1__NtB7_12AddPlanetMsgNtNtCs8pDKiTx8cJZ_5serde2de11Deserialize11deserializeNtB2_14___FieldVisitorNtB16_7Visitor9expecting
FNDA:0,_RNvXs0_NvXNvNtCskkwNnPUyuBS_8callisto8payloadssa_1__NtBa_12AddPlanetMsgNtNtCs8pDKiTx8cJZ_5serde2de11Deserialize11deserializeNtB5_9___VisitorNtB19_7Visitor9expecting
FNDA:0,_RNvXNvXNvNtCskkwNnPUyuBS_8callisto8payloadssc_1__NtB7_10SetPlanMsgNtNtCs8pDKiTx8cJZ_5serde2de11Deserialize11deserializeNtB2_14___FieldVisitorNtB14_7Visitor9expecting
FNDA:0,_RNvXs0_NvXNvNtCskkwNnPUyuBS_8callisto8payloadssc_1__NtBa_10SetPlanMsgNtNtCs8pDKiTx8cJZ_5serde2de11Deserialize11deserializeNtB5_9___VisitorNtB17_7Visitor9expecting
FNDA:0,_RNvXNvXNvNtCskkwNnPUyuBS_8callisto8payloadsse_1__NtB7_14ComputePathMsgNtNtCs8pDKiTx8cJZ_5serde2de11Deserialize11deserializeNtB2_14___FieldVisitorNtB18_7Visitor9expecting
FNDA:0,_RNvXs0_NvXNvNtCskkwNnPUyuBS_8callisto8payloadsse_1__NtBa_14ComputePathMsgNtNtCs8pDKiTx8cJZ_5serde2de11Deserialize11deserializeNtB5_9___VisitorNtB1b_7Visitor9expecting
FNDA:0,_RNvXNvXNvNtCskkwNnPUyuBS_8callisto8payloadssg_1__NtB7_10FireActionNtNtCs8pDKiTx8cJZ_5serde2de11Deserialize11deserializeNtB2_14___FieldVisitorNtB14_7Visitor9expecting
FNDA:0,_RNvXs0_NvXNvNtCskkwNnPUyuBS_8callisto8payloadssg_1__NtBa_10FireActionNtNtCs8pDKiTx8cJZ_5serde2de11Deserialize11deserializeNtB5_9___VisitorNtB17_7Visitor9expecting
FNDA:0,_RNvXNvXNvNtCskkwNnPUyuBS_8callisto8payloadssi_1__NtB7_9EffectMsgNtNtCs8pDKiTx8cJZ_5serde2de11Deserialize11deserializeNtB2_14___FieldVisitorNtB12_7Visitor9expecting
FNDA:0,_RNvXs0_NvXNvNtCskkwNnPUyuBS_8callisto8payloadssi_1__NtBa_9EffectMsgNtNtCs8pDKiTx8cJZ_5serde2de11Deserialize11deserializeNtB5_s_14___FieldVisitorNtB15_7Visitor9expecting
FNDA:0,_RNvXs2_NvXNvNtCskkwNnPUyuBS_8callisto8payloadssi_1__NtBa_9EffectMsgNtNtCs8pDKiTx8cJZ_5serde2de11Deserialize11deserializeNtB5_9___VisitorNtB15_7Visitor9expecting
FNDA:0,_RNvXs3_NvXNvNtCskkwNnPUyuBS_8callisto8payloadssi_1__NtBa_9EffectMsgNtNtCs8pDKiTx8cJZ_5serde2de11Deserialize11deserializeNtB5_s0_14___FieldVisitorNtB15_7Visitor9expecting
FNDA:0,_RNvXs5_NvXNvNtCskkwNnPUyuBS_8callisto8payloadssi_1__NtBa_9EffectMsgNtNtCs8pDKiTx8cJZ_5serde2de11Deserialize11deserializeNtB5_s_9___VisitorNtB15_7Visitor9expecting
FNDA:0,_RNvXs6_NvXNvNtCskkwNnPUyuBS_8callisto8payloadssi_1__NtBa_9EffectMsgNtNtCs8pDKiTx8cJZ_5serde2de11Deserialize11deserializeNtB5_s1_14___FieldVisitorNtB15_7Visitor9expecting
FNDA:0,_RNvXs8_NvXNvNtCskkwNnPUyuBS_8callisto8payloadssi_1__NtBa_9EffectMsgNtNtCs8pDKiTx8cJZ_5serde2de11Deserialize11deserializeNtB5_s0_9___VisitorNtB15_7Visitor9expecting
FNDA:0,_RNvXs9_NvXNvNtCskkwNnPUyuBS_8callisto8payloadssi_1__NtBa_9EffectMsgNtNtCs8pDKiTx8cJZ_5serde2de11Deserialize11deserializeNtB5_s2_14___FieldVisitorNtB15_7Visitor9expecting
FNDA:0,_RNvXsb_NvXNvNtCskkwNnPUyuBS_8callisto8payloadssi_1__NtBa_9EffectMsgNtNtCs8pDKiTx8cJZ_5serde2de11Deserialize11deserializeNtB5_s1_9___VisitorNtB15_7Visitor9expecting
FNDA:0,_RNvXsc_NvXNvNtCskkwNnPUyuBS_8callisto8payloadssi_1__NtBa_9EffectMsgNtNtCs8pDKiTx8cJZ_5serde2de11Deserialize11deserializeNtB5_s3_14___FieldVisitorNtB15_7Visitor9expecting
FNDA:0,_RNvXse_NvXNvNtCskkwNnPUyuBS_8callisto8payloadssi_1__NtBa_9EffectMsgNtNtCs8pDKiTx8cJZ_5serde2de11Deserialize11deserializeNtB5_s2_9___VisitorNtB15_7Visitor9expecting
FNDA:0,_RNvXNvXNvNtCskkwNnPUyuBS_8callisto8payloadssk_1__NtB7_15LoadScenarioMsgNtNtCs8pDKiTx8cJZ_5serde2de11Deserialize11deserializeNtB2_14___FieldVisitorNtB19_7Visitor9expecting
FNDA:0,_RNvXs0_NvXNvNtCskkwNnPUyuBS_8callisto8payloadssk_1__NtBa_15LoadScenarioMsgNtNtCs8pDKiTx8cJZ_5serde2de11Deserialize11deserializeNtB5_9___VisitorNtB1c_7Visitor9expecting
FNDA:0,_RINvXNvXNvNtCskkwNnPUyuBS_8callisto8payloadss_1__NtB8_9SimpleMsgNtNtCs8pDKiTx8cJZ_5serde2de11Deserialize11deserializeNtB3_14___FieldVisitorNtB12_7Visitor9visit_u64pEBa_
FNDA:0,_RINvXNvXNvNtCskkwNnPUyuBS_8callisto8payloadss_1__NtB8_9SimpleMsgNtNtCs8pDKiTx8cJZ_5serde2de11Deserialize11deserializeNtB3_14___FieldVisitorNtB12_7Visitor9visit_strpEBa_
FNDA:0,_RINvXNvXNvNtCskkwNnPUyuBS_8callisto8payloadss_1__NtB8_9SimpleMsgNtNtCs8pDKiTx8cJZ_5serde2de11Deserialize11deserializeNtB3_14___FieldVisitorNtB12_7Visitor11visit_bytespEBa_
FNDA:0,_RINvXs_NvXNvNtCskkwNnPUyuBS_8callisto8payloadss_1__NtBa_9SimpleMsgNtNtCs8pDKiTx8cJZ_5serde2de11Deserialize11deserializeNtB5_7___FieldB12_11deserializepEBc_
FNDA:0,_RINvXs0_NvXNvNtCskkwNnPUyuBS_8callisto8payloadss_1__NtBb_9SimpleMsgNtNtCs8pDKiTx8cJZ_5serde2de11Deserialize11deserializeNtB6_9___VisitorNtB15_7Visitor9visit_seqpEBd_
FNDA:0,_RINvXs0_NvXNvNtCskkwNnPUyuBS_8callisto8payloadss_1__NtBb_9SimpleMsgNtNtCs8pDKiTx8cJZ_5serde2de11Deserialize11deserializeNtB6_9___VisitorNtB15_7Visitor9visit_mappEBd_
FNDA:0,_RINvXNvXNvNtCskkwNnPUyuBS_8callisto8payloadss1_1__NtB8_8LoginMsgNtNtCs8pDKiTx8cJZ_5serde2de11Deserialize11deserializeNtB3_14___FieldVisitorNtB12_7Visitor9visit_u64pEBa_
FNDA:0,_RINvXNvXNvNtCskkwNnPUyuBS_8callisto8payloadss1_1__NtB8_8LoginMsgNtNtCs8pDKiTx8cJZ_5serde2de11Deserialize11deserializeNtB3_14___FieldVisitorNtB12_7Visitor9visit_strpEBa_
FNDA:0,_RINvXNvXNvNtCskkwNnPUyuBS_8callisto8payloadss1_1__NtB8_8LoginMsgNtNtCs8pDKiTx8cJZ_5serde2de11Deserialize11deserializeNtB3_14___FieldVisitorNtB12_7Visitor11visit_bytespEBa_
FNDA:0,_RINvXs_NvXNvNtCskkwNnPUyuBS_8callisto8payloadss1_1__NtBa_8LoginMsgNtNtCs8pDKiTx8cJZ_5serde2de11Deserialize11deserializeNtB5_7___FieldB12_11deserializepEBc_
FNDA:0,_RINvXs0_NvXNvNtCskkwNnPUyuBS_8callisto8payloadss1_1__NtBb_8LoginMsgNtNtCs8pDKiTx8cJZ_5serde2de11Deserialize11deserializeNtB6_9___VisitorNtB15_7Visitor9visit_seqpEBd_
FNDA:0,_RINvXs0_NvXNvNtCskkwNnPUyuBS_8callisto8payloadss1_1__NtBb_8LoginMsgNtNtCs8pDKiTx8cJZ_5serde2de11Deserialize11deserializeNtB6_9___VisitorNtB15_7Visitor9visit_mappEBd_
FNDA:0,_RINvXNvXNvNtCskkwNnPUyuBS_8callisto8payloadss3_1__NtB8_12AuthResponseNtNtCs8pDKiTx8cJZ_5serde2de11Deserialize11deserializeNtB3_14___FieldVisitorNtB17_7Visitor9visit_u64pEBa_
FNDA:0,_RINvXNvXNvNtCskkwNnPUyuBS_8callisto8payloadss3_1__NtB8_12AuthResponseNtNtCs8pDKiTx8cJZ_5serde2de11Deserialize11deserializeNtB3_14___FieldVisitorNtB17_7Visitor9visit_strpEBa_
FNDA:0,_RINvXNvXNvNtCskkwNnPUyuBS_8callisto8payloadss3_1__NtB8_12AuthResponseNtNtCs8pDKiTx8cJZ_5serde2de11Deserialize11deserializeNtB3_14___FieldVisitorNtB17_7Visitor11visit_bytespEBa_
FNDA:0,_RINvXs_NvXNvNtCskkwNnPUyuBS_8callisto8payloadss3_1__NtBa_12AuthResponseNtNtCs8pDKiTx8cJZ_5serde2de11Deserialize11deserializeNtB5_7___FieldB17_11deserializepEBc_
FNDA:0,_RINvXs0_NvXNvNtCskkwNnPUyuBS_8callisto8payloadss3_1__NtBb_12AuthResponseNtNtCs8pDKiTx8cJZ_5serde2de11Deserialize11deserializeNtB6_9___VisitorNtB1a_7Visitor9visit_seqpEBd_
FNDA:0,_RINvXs0_NvXNvNtCskkwNnPUyuBS_8callisto8payloadss3_1__NtBb_12AuthResponseNtNtCs8pDKiTx8cJZ_5serde2de11Deserialize11deserializeNtB6_9___VisitorNtB1a_7Visitor9visit_mappEBd_
FNDA:0,_RINvXNvXNvNtCskkwNnPUyuBS_8callisto8payloadss4_1__NtB8_10AddShipMsgNtNtCs8pDKiTx8cJZ_5serde3ser9Serialize9serializeNtB3_15___SerializeWithB13_9serializepEBa_
FNDA:0,_RINvXs_NvXNvNtCskkwNnPUyuBS_8callisto8payloadss4_1__NtBa_10AddShipMsgNtNtCs8pDKiTx8cJZ_5serde3ser9Serialize9serializeNtB5_s_15___SerializeWithB15_9serializepEBc_
FNDA:0,_RINvXs0_NvXNvNtCskkwNnPUyuBS_8callisto8payloadss4_1__NtBb_10AddShipMsgNtNtCs8pDKiTx8cJZ_5serde3ser9Serialize9serializeNtB6_s0_15___SerializeWithB16_9serializepEBd_
FNDA:0,_RINvXNvXNvNtCskkwNnPUyuBS_8callisto8payloadss5_1__NtB8_10AddShipMsgNtNtCs8pDKiTx8cJZ_5serde2de11Deserialize11deserializeNtB3_14___FieldVisitorNtB15_7Visitor9visit_u64pEBa_
FNDA:0,_RINvXNvXNvNtCskkwNnPUyuBS_8callisto8payloadss5_1__NtB8_10AddShipMsgNtNtCs8pDKiTx8cJZ_5serde2de11Deserialize11deserializeNtB3_14___FieldVisitorNtB15_7Visitor9visit_strpEBa_
FNDA:0,_RINvXNvXNvNtCskkwNnPUyuBS_8callisto8payloadss5_1__NtB8_10AddShipMsgNtNtCs8pDKiTx8cJZ_5serde2de11Deserialize11deserializeNtB3_14___FieldVisitorNtB15_7Visitor11visit_bytespEBa_
FNDA:0,_RINvXs_NvXNvNtCskkwNnPUyuBS_8callisto8payloadss5_1__NtBa_10AddShipMsgNtNtCs8pDKiTx8cJZ_5serde2de11Deserialize11deserializeNtB5_7___FieldB15_11deserializepEBc_
FNDA:0,_RINvXs0_NvXNvNtCskkwNnPUyuBS_8callisto8payloadss5_1__NtBb_10AddShipMsgNtNtCs8pDKiTx8cJZ_5serde2de11Deserialize11deserializeNtB6_9___VisitorNtB18_7Visitor9visit_seqpEBd_
FNDA:0,_RINvXNvXs0_NvXNvNtCskkwNnPUyuBS_8callisto8payloadss5_1__NtBe_10AddShipMsgNtNtCs8pDKiTx8cJZ_5serde2de11Deserialize11deserializeNtB9_9___VisitorNtB1b_7Visitor9visit_seqNtB3_17___DeserializeWithB19_11deserializepEBg_
FNDA:0,_RNCINvXs0_NvXNvNtCskkwNnPUyuBS_8callisto8payloadss5_1__NtBd_10AddShipMsgNtNtCs8pDKiTx8cJZ_5serde2de11Deserialize11deserializeNtB8_9___VisitorNtB1a_7Visitor9visit_seqpE0Bf_
FNDA:0,_RINvXs_NvXs0_NvXNvNtCskkwNnPUyuBS_8callisto8payloadss5_1__NtBg_10AddShipMsgNtNtCs8pDKiTx8cJZ_5serde2de11Deserialize11deserializeNtBb_9___VisitorNtB1d_7Visitor9visit_seqNtB5_s_17___DeserializeWithB1b_11deserializepEBi_
FNDA:0,_RNCINvXs0_NvXNvNtCskkwNnPUyuBS_8callisto8payloadss5_1__NtBd_10AddShipMsgNtNtCs8pDKiTx8cJZ_5serde2de11Deserialize11deserializeNtB8_9___VisitorNtB1a_7Visitor9visit_seqpEs_0Bf_
FNDA:0,_RINvXs0_NvXs0_NvXNvNtCskkwNnPUyuBS_8callisto8payloadss5_1__NtBh_10AddShipMsgNtNtCs8pDKiTx8cJZ_5serde2de11Deserialize11deserializeNtBc_9___VisitorNtB1e_7Visitor9visit_seqNtB6_s0_17___DeserializeWithB1c_11deserializepEBj_
FNDA:0,_RNCINvXs0_NvXNvNtCskkwNnPUyuBS_8callisto8payloadss5_1__NtBd_10AddShipMsgNtNtCs8pDKiTx8cJZ_5serde2de11Deserialize11deserializeNtB8_9___VisitorNtB1a_7Visitor9visit_seqpEs0_0Bf_
FNDA:0,_RINvXs0_NvXNvNtCskkwNnPUyuBS_8callisto8payloadss5_1__NtBb_10AddShipMsgNtNtCs8pDKiTx8cJZ_5serde2de11Deserialize11deserializeNtB6_9___VisitorNtB18_7Visitor9visit_mappEBd_
FNDA:0,_RINvXNvXs0_NvXNvNtCskkwNnPUyuBS_8callisto8payloadss5_1__NtBe_10AddShipMsgNtNtCs8pDKiTx8cJZ_5serde2de11Deserialize11deserializeNtB9_9___VisitorNtB1b_7Visitor9visit_mapNtB3_17___DeserializeWithB19_11deserializepEBg_
FNDA:0,_RINvXs_NvXs0_NvXNvNtCskkwNnPUyuBS_8callisto8payloadss5_1__NtBg_10AddShipMsgNtNtCs8pDKiTx8cJZ_5serde2de11Deserialize11deserializeNtBb_9___VisitorNtB1d_7Visitor9visit_mapNtB5_s_17___DeserializeWithB1b_11deserializepEBi_
FNDA:0,_RINvXs0_NvXs0_NvXNvNtCskkwNnPUyuBS_8callisto8payloadss5_1__NtBh_10AddShipMsgNtNtCs8pDKiTx8cJZ_5serde2de11Deserialize11deserializeNtBc_9___VisitorNtB1e_7Visitor9visit_mapNtB6_s0_17___DeserializeWithB1c_11deserializepEBj_
FNDA:0,_RINvXNvXNvNtCskkwNnPUyuBS_8callisto8payloadss7_1__NtB8_14SetCrewActionsNtNtCs8pDKiTx8cJZ_5serde2de11Deserialize11deserializeNtB3_14___FieldVisitorNtB19_7Visitor9visit_u64pEBa_
FNDA:0,_RINvXNvXNvNtCskkwNnPUyuBS_8callisto8payloadss7_1__NtB8_14SetCrewActionsNtNtCs8pDKiTx8cJZ_5serde2de11Deserialize11deserializeNtB3_14___FieldVisitorNtB19_7Visitor9visit_strpEBa_
FNDA:0,_RINvXNvXNvNtCskkwNnPUyuBS_8callisto8payloadss7_1__NtB8_14SetCrewActionsNtNtCs8pDKiTx8cJZ_5serde2de11Deserialize11deserializeNtB3_14___FieldVisitorNtB19_7Visitor11visit_bytespEBa_
FNDA:0,_RINvXs_NvXNvNtCskkwNnPUyuBS_8callisto8payloadss7_1__NtBa_14SetCrewActionsNtNtCs8pDKiTx8cJZ_5serde2de11Deserialize11deserializeNtB5_7___FieldB19_11deserializepEBc_
FNDA:0,_RINvXs0_NvXNvNtCskkwNnPUyuBS_8callisto8payloadss7_1__NtBb_14SetCrewActionsNtNtCs8pDKiTx8cJZ_5serde2de11Deserialize11deserializeNtB6_9___VisitorNtB1c_7Visitor9visit_seqpEBd_
FNDA:0,_RINvXs0_NvXNvNtCskkwNnPUyuBS_8callisto8payloadss7_1__NtBb_14SetCrewActionsNtNtCs8pDKiTx8cJZ_5serde2de11Deserialize11deserializeNtB6_9___VisitorNtB1c_7Visitor9visit_mappEBd_
FNDA:0,_RINvXNvXNvNtCskkwNnPUyuBS_8callisto8payloadss9_1__NtB8_12AddPlanetMsgNtNtCs8pDKiTx8cJZ_5serde3ser9Serialize9serializeNtB3_15___SerializeWithB15_9serializepEBa_
FNDA:0,_RINvXNvXNvNtCskkwNnPUyuBS_8callisto8payloadssa_1__NtB8_12AddPlanetMsgNtNtCs8pDKiTx8cJZ_5serde2de11Deserialize11deserializeNtB3_14___FieldVisitorNtB17_7Visitor9visit_u64pEBa_
FNDA:0,_RINvXNvXNvNtCskkwNnPUyuBS_8callisto8payloadssa_1__NtB8_12AddPlanetMsgNtNtCs8pDKiTx8cJZ_5serde2de11Deserialize11deserializeNtB3_14___FieldVisitorNtB17_7Visitor9visit_strpEBa_
FNDA:0,_RINvXNvXNvNtCskkwNnPUyuBS_8callisto8payloadssa_1__NtB8_12AddPlanetMsgNtNtCs8pDKiTx8cJZ_5serde2de11Deserialize11deserializeNtB3_14___FieldVisitorNtB17_7Visitor11visit_bytespEBa_
FNDA:0,_RINvXs_NvXNvNtCskkwNnPUyuBS_8callisto8payloadssa_1__NtBa_12AddPlanetMsgNtNtCs8pDKiTx8cJZ_5serde2de11Deserialize11deserializeNtB5_7___FieldB17_11deserializepEBc_
FNDA:0,_RINvXs0_NvXNvNtCskkwNnPUyuBS_8callisto8payloadssa_1__NtBb_12AddPlanetMsgNtNtCs8pDKiTx8cJZ_5serde2de11Deserialize11deserializeNtB6_9___VisitorNtB1a_7Visitor9visit_seqpEBd_
FNDA:0,_RINvXNvXs0_NvXNvNtCskkwNnPUyuBS_8callisto8payloadssa_1__NtBe_12AddPlanetMsgNtNtCs8pDKiTx8cJZ_5serde2de11Deserialize11deserializeNtB9_9___VisitorNtB1d_7Visitor9visit_seqNtB3_17___DeserializeWithB1b_11deserializepEBg_
FNDA:0,_RNCINvXs0_NvXNvNtCskkwNnPUyuBS_8callisto8payloadssa_1__NtBd_12AddPlanetMsgNtNtCs8pDKiTx8cJZ_5serde2de11Deserialize11deserializeNtB8_9___VisitorNtB1c_7Visitor9visit_seqpE0Bf_
FNDA:0,_RINvXs0_NvXNvNtCskkwNnPUyuBS_8callisto8payloadssa_1__NtBb_12AddPlanetMsgNtNtCs8pDKiTx8cJZ_5serde2de11Deserialize11deserializeNtB6_9___VisitorNtB1a_7Visitor9visit_mappEBd_
FNDA:0,_RINvXNvXs0_NvXNvNtCskkwNnPUyuBS_8callisto8payloadssa_1__NtBe_12AddPlanetMsgNtNtCs8pDKiTx8cJZ_5serde2de11Deserialize11deserializeNtB9_9___VisitorNtB1d_7Visitor9visit_mapNtB3_17___DeserializeWithB1b_11deserializepEBg_
FNDA:0,_RINvXNvXNvNtCskkwNnPUyuBS_8callisto8payloadssc_1__NtB8_10SetPlanMsgNtNtCs8pDKiTx8cJZ_5serde2de11Deserialize11deserializeNtB3_14___FieldVisitorNtB15_7Visitor9visit_u64pEBa_
FNDA:0,_RINvXNvXNvNtCskkwNnPUyuBS_8callisto8payloadssc_1__NtB8_10SetPlanMsgNtNtCs8pDKiTx8cJZ_5serde2de11Deserialize11deserializeNtB3_14___FieldVisitorNtB15_7Visitor9visit_strpEBa_
FNDA:0,_RINvXNvXNvNtCskkwNnPUyuBS_8callisto8payloadssc_1__NtB8_10SetPlanMsgNtNtCs8pDKiTx8cJZ_5serde2de11Deserialize11deserializeNtB3_14___FieldVisitorNtB15_7Visitor11visit_bytespEBa_
FNDA:0,_RINvXs_NvXNvNtCskkwNnPUyuBS_8callisto8payloadssc_1__NtBa_10SetPlanMsgNtNtCs8pDKiTx8cJZ_5serde2de11Deserialize11deserializeNtB5_7___FieldB15_11deserializepEBc_
FNDA:0,_RINvXs0_NvXNvNtCskkwNnPUyuBS_8callisto8payloadssc_1__NtBb_10SetPlanMsgNtNtCs8pDKiTx8cJZ_5serde2de11Deserialize11deserializeNtB6_9___VisitorNtB18_7Visitor9visit_seqpEBd_
FNDA:0,_RINvXs0_NvXNvNtCskkwNnPUyuBS_8callisto8payloadssc_1__NtBb_10SetPlanMsgNtNtCs8pDKiTx8cJZ_5serde2de11Deserialize11deserializeNtB6_9___VisitorNtB18_7Visitor9visit_mappEBd_
FNDA:0,_RINvXNvXNvNtCskkwNnPUyuBS_8callisto8payloadssd_1__NtB8_14ComputePathMsgNtNtCs8pDKiTx8cJZ_5serde3ser9Serialize9serializeNtB3_15___SerializeWithB17_9serializepEBa_
FNDA:0,_RINvXs_NvXNvNtCskkwNnPUyuBS_8callisto8payloadssd_1__NtBa_14ComputePathMsgNtNtCs8pDKiTx8cJZ_5serde3ser9Serialize9serializeNtB5_s_15___SerializeWithB19_9serializepEBc_
FNDA:0,_RINvXs0_NvXNvNtCskkwNnPUyuBS_8callisto8payloadssd_1__NtBb_14ComputePathMsgNtNtCs8pDKiTx8cJZ_5serde3ser9Serialize9serializeNtB6_s0_15___SerializeWithB1a_9serializepEBd_
FNDA:0,_RINvXNvXNvNtCskkwNnPUyuBS_8callisto8payloadsse_1__NtB8_14ComputePathMsgNtNtCs8pDKiTx8cJZ_5serde2de11Deserialize11deserializeNtB3_14___FieldVisitorNtB19_7Visitor9visit_u64pEBa_
FNDA:0,_RINvXNvXNvNtCskkwNnPUyuBS_8callisto8payloadsse_1__NtB8_14ComputePathMsgNtNtCs8pDKiTx8cJZ_5serde2de11Deserialize11deserializeNtB3_14___FieldVisitorNtB19_7Visitor9visit_strpEBa_
FNDA:0,_RINvXNvXNvNtCskkwNnPUyuBS_8callisto8payloadsse_1__NtB8_14ComputePathMsgNtNtCs8pDKiTx8cJZ_5serde2de11Deserialize11deserializeNtB3_14___FieldVisitorNtB19_7Visitor11visit_bytespEBa_
FNDA:0,_RINvXs_NvXNvNtCskkwNnPUyuBS_8callisto8payloadsse_1__NtBa_14ComputePathMsgNtNtCs8pDKiTx8cJZ_5serde2de11Deserialize11deserializeNtB5_7___FieldB19_11deserializepEBc_
FNDA:0,_RINvXs0_NvXNvNtCskkwNnPUyuBS_8callisto8payloadsse_1__NtBb_14ComputePathMsgNtNtCs8pDKiTx8cJZ_5serde2de11Deserialize11deserializeNtB6_9___VisitorNtB1c_7Visitor9visit_seqpEBd_
FNDA:0,_RINvXNvXs0_NvXNvNtCskkwNnPUyuBS_8callisto8payloadsse_1__NtBe_14ComputePathMsgNtNtCs8pDKiTx8cJZ_5serde2de11Deserialize11deserializeNtB9_9___VisitorNtB1f_7Visitor9visit_seqNtB3_17___DeserializeWithB1d_11deserializepEBg_
FNDA:0,_RNCINvXs0_NvXNvNtCskkwNnPUyuBS_8callisto8payloadsse_1__NtBd_14ComputePathMsgNtNtCs8pDKiTx8cJZ_5serde2de11Deserialize11deserializeNtB8_9___VisitorNtB1e_7Visitor9visit_seqpE0Bf_
FNDA:0,_RINvXs_NvXs0_NvXNvNtCskkwNnPUyuBS_8callisto8payloadsse_1__NtBg_14ComputePathMsgNtNtCs8pDKiTx8cJZ_5serde2de11Deserialize11deserializeNtBb_9___VisitorNtB1h_7Visitor9visit_seqNtB5_s_17___DeserializeWithB1f_11deserializepEBi_
FNDA:0,_RNCINvXs0_NvXNvNtCskkwNnPUyuBS_8callisto8payloadsse_1__NtBd_14ComputePathMsgNtNtCs8pDKiTx8cJZ_5serde2de11Deserialize11deserializeNtB8_9___VisitorNtB1e_7Visitor9visit_seqpEs_0Bf_
FNDA:0,_RINvXs0_NvXs0_NvXNvNtCskkwNnPUyuBS_8callisto8payloadsse_1__NtBh_14ComputePathMsgNtNtCs8pDKiTx8cJZ_5serde2de11Deserialize11deserializeNtBc_9___VisitorNtB1i_7Visitor9visit_seqNtB6_s0_17___DeserializeWithB1g_11deserializepEBj_
FNDA:0,_RNCINvXs0_NvXNvNtCskkwNnPUyuBS_8callisto8payloadsse_1__NtBd_14ComputePathMsgNtNtCs8pDKiTx8cJZ_5serde2de11Deserialize11deserializeNtB8_9___VisitorNtB1e_7Visitor9visit_seqpEs0_0Bf_
FNDA:0,_RINvXs0_NvXNvNtCskkwNnPUyuBS_8callisto8payloadsse_1__NtBb_14ComputePathMsgNtNtCs8pDKiTx8cJZ_5serde2de11Deserialize11deserializeNtB6_9___VisitorNtB1c_7Visitor9visit_mappEBd_
FNDA:0,_RINvXNvXs0_NvXNvNtCskkwNnPUyuBS_8callisto8payloadsse_1__NtBe_14ComputePathMsgNtNtCs8pDKiTx8cJZ_5serde2de11Deserialize11deserializeNtB9_9___VisitorNtB1f_7Visitor9visit_mapNtB3_17___DeserializeWithB1d_11deserializepEBg_
FNDA:0,_RINvXs_NvXs0_NvXNvNtCskkwNnPUyuBS_8callisto8payloadsse_1__NtBg_14ComputePathMsgNtNtCs8pDKiTx8cJZ_5serde2de11Deserialize11deserializeNtBb_9___VisitorNtB1h_7Visitor9visit_mapNtB5_s_17___DeserializeWithB1f_11deserializepEBi_
FNDA:0,_RINvXs0_NvXs0_NvXNvNtCskkwNnPUyuBS_8callisto8payloadsse_1__NtBh_14ComputePathMsgNtNtCs8pDKiTx8cJZ_5serde2de11Deserialize11deserializeNtBc_9___VisitorNtB1i_7Visitor9visit_mapNtB6_s0_17___DeserializeWithB1g_11deserializepEBj_
FNDA:0,_RINvXNvXNvNtCskkwNnPUyuBS_8callisto8payloadssg_1__NtB8_10FireActionNtNtCs8pDKiTx8cJZ_5serde2de11Deserialize11deserializeNtB3_14___FieldVisitorNtB15_7Visitor9visit_u64pEBa_
FNDA:0,_RINvXNvXNvNtCskkwNnPUyuBS_8callisto8payloadssg_1__NtB8_10FireActionNtNtCs8pDKiTx8cJZ_5serde2de11Deserialize11deserializeNtB3_14___FieldVisitorNtB15_7Visitor9visit_strpEBa_
FNDA:0,_RINvXNvXNvNtCskkwNnPUyuBS_8callisto8payloadssg_1__NtB8_10FireActionNtNtCs8pDKiTx8cJZ_5serde2de11Deserialize11deserializeNtB3_14___FieldVisitorNtB15_7Visitor11visit_bytespEBa_
FNDA:0,_RINvXs_NvXNvNtCskkwNnPUyuBS_8callisto8payloadssg_1__NtBa_10FireActionNtNtCs8pDKiTx8cJZ_5serde2de11Deserialize11deserializeNtB5_7___FieldB15_11deserializepEBc_
FNDA:0,_RINvXs0_NvXNvNtCskkwNnPUyuBS_8callisto8payloadssg_1__NtBb_10FireActionNtNtCs8pDKiTx8cJZ_5serde2de11Deserialize11deserializeNtB6_9___VisitorNtB18_7Visitor9visit_seqpEBd_
FNDA:0,_RINvXs0_NvXNvNtCskkwNnPUyuBS_8callisto8payloadssg_1__NtBb_10FireActionNtNtCs8pDKiTx8cJZ_5serde2de11Deserialize11deserializeNtB6_9___VisitorNtB18_7Visitor9visit_mappEBd_
FNDA:0,_RINvXNvXNvNtCskkwNnPUyuBS_8callisto8payloadssi_1__NtB8_9EffectMsgNtNtCs8pDKiTx8cJZ_5serde2de11Deserialize11deserializeNtB3_14___FieldVisitorNtB13_7Visitor9visit_u64pEBa_
FNDA:0,_RINvXNvXNvNtCskkwNnPUyuBS_8callisto8payloadssi_1__NtB8_9EffectMsgNtNtCs8pDKiTx8cJZ_5serde2de11Deserialize11deserializeNtB3_14___FieldVisitorNtB13_7Visitor9visit_strpEBa_
FNDA:0,_RINvXNvXNvNtCskkwNnPUyuBS_8callisto8payloadssi_1__NtB8_9EffectMsgNtNtCs8pDKiTx8cJZ_5serde2de11Deserialize11deserializeNtB3_14___FieldVisitorNtB13_7Visitor11visit_bytespEBa_
FNDA:0,_RINvXs_NvXNvNtCskkwNnPUyuBS_8callisto8payloadssi_1__NtBa_9EffectMsgNtNtCs8pDKiTx8cJZ_5serde2de11Deserialize11deserializeNtB5_7___FieldB13_11deserializepEBc_
FNDA:0,_RINvXs0_NvXNvNtCskkwNnPUyuBS_8callisto8payloadssi_1__NtBb_9EffectMsgNtNtCs8pDKiTx8cJZ_5serde2de11Deserialize11deserializeNtB6_s_14___FieldVisitorNtB16_7Visitor9visit_u64pEBd_
FNDA:0,_RINvXs0_NvXNvNtCskkwNnPUyuBS_8callisto8payloadssi_1__NtBb_9EffectMsgNtNtCs8pDKiTx8cJZ_5serde2de11Deserialize11deserializeNtB6_s_14___FieldVisitorNtB16_7Visitor9visit_strpEBd_
FNDA:0,_RINvXs0_NvXNvNtCskkwNnPUyuBS_8callisto8payloadssi_1__NtBb_9EffectMsgNtNtCs8pDKiTx8cJZ_5serde2de11Deserialize11deserializeNtB6_s_14___FieldVisitorNtB16_7Visitor11visit_bytespEBd_
FNDA:0,_RINvXs1_NvXNvNtCskkwNnPUyuBS_8callisto8payloadssi_1__NtBb_9EffectMsgNtNtCs8pDKiTx8cJZ_5serde2de11Deserialize11deserializeNtB6_s_7___FieldB14_11deserializepEBd_
FNDA:0,_RINvXs2_NvXNvNtCskkwNnPUyuBS_8callisto8payloadssi_1__NtBb_9EffectMsgNtNtCs8pDKiTx8cJZ_5serde2de11Deserialize11deserializeNtB6_9___VisitorNtB16_7Visitor9visit_seqpEBd_
FNDA:0,_RINvXNvXs2_NvXNvNtCskkwNnPUyuBS_8callisto8payloadssi_1__NtBe_9EffectMsgNtNtCs8pDKiTx8cJZ_5serde2de11Deserialize11deserializeNtB9_9___VisitorNtB19_7Visitor9visit_seqNtB3_17___DeserializeWithB17_11deserializepEBg_
FNDA:0,_RNCINvXs2_NvXNvNtCskkwNnPUyuBS_8callisto8payloadssi_1__NtBd_9EffectMsgNtNtCs8pDKiTx8cJZ_5serde2de11Deserialize11deserializeNtB8_9___VisitorNtB18_7Visitor9visit_seqpE0Bf_
FNDA:0,_RINvXs2_NvXNvNtCskkwNnPUyuBS_8callisto8payloadssi_1__NtBb_9EffectMsgNtNtCs8pDKiTx8cJZ_5serde2de11Deserialize11deserializeNtB6_9___VisitorNtB16_7Visitor9visit_mappEBd_
FNDA:0,_RINvXNvXs2_NvXNvNtCskkwNnPUyuBS_8callisto8payloadssi_1__NtBe_9EffectMsgNtNtCs8pDKiTx8cJZ_5serde2de11Deserialize11deserializeNtB9_9___VisitorNtB19_7Visitor9visit_mapNtB3_17___DeserializeWithB17_11deserializepEBg_
FNDA:0,_RINvXs3_NvXNvNtCskkwNnPUyuBS_8callisto8payloadssi_1__NtBb_9EffectMsgNtNtCs8pDKiTx8cJZ_5serde2de11Deserialize11deserializeNtB6_s0_14___FieldVisitorNtB16_7Visitor9visit_u64pEBd_
FNDA:0,_RINvXs3_NvXNvNtCskkwNnPUyuBS_8callisto8payloadssi_1__NtBb_9EffectMsgNtNtCs8pDKiTx8cJZ_5serde2de11Deserialize11deserializeNtB6_s0_14___FieldVisitorNtB16_7Visitor9visit_strpEBd_
FNDA:0,_RINvXs3_NvXNvNtCskkwNnPUyuBS_8callisto8payloadssi_1__NtBb_9EffectMsgNtNtCs8pDKiTx8cJZ_5serde2de11Deserialize11deserializeNtB6_s0_14___FieldVisitorNtB16_7Visitor11visit_bytespEBd_
FNDA:0,_RINvXs4_NvXNvNtCskkwNnPUyuBS_8callisto8payloadssi_1__NtBb_9EffectMsgNtNtCs8pDKiTx8cJZ_5serde2de11Deserialize11deserializeNtB6_s0_7___FieldB14_11deserializepEBd_
FNDA:0,_RINvXs5_NvXNvNtCskkwNnPUyuBS_8callisto8payloadssi_1__NtBb_9EffectMsgNtNtCs8pDKiTx8cJZ_5serde2de11Deserialize11deserializeNtB6_s_9___VisitorNtB16_7Visitor9visit_seqpEBd_
FNDA:0,_RINvXNvXs5_NvXNvNtCskkwNnPUyuBS_8callisto8payloadssi_1__NtBe_9EffectMsgNtNtCs8pDKiTx8cJZ_5serde2de11Deserialize11deserializeNtB9_s_9___VisitorNtB19_7Visitor9visit_seqNtB3_17___DeserializeWithB17_11deserializepEBg_
FNDA:0,_RNCINvXs5_NvXNvNtCskkwNnPUyuBS_8callisto8payloadssi_1__NtBd_9EffectMsgNtNtCs8pDKiTx8cJZ_5serde2de11Deserialize11deserializeNtB8_s_9___VisitorNtB18_7Visitor9visit_seqpE0Bf_
FNDA:0,_RINvXs5_NvXNvNtCskkwNnPUyuBS_8callisto8payloadssi_1__NtBb_9EffectMsgNtNtCs8pDKiTx8cJZ_5serde2de11Deserialize11deserializeNtB6_s_9___VisitorNtB16_7Visitor9visit_mappEBd_
FNDA:0,_RINvXNvXs5_NvXNvNtCskkwNnPUyuBS_8callisto8payloadssi_1__NtBe_9EffectMsgNtNtCs8pDKiTx8cJZ_5serde2de11Deserialize11deserializeNtB9_s_9___VisitorNtB19_7Visitor9visit_mapNtB3_17___DeserializeWithB17_11deserializepEBg_
FNDA:0,_RINvXs6_NvXNvNtCskkwNnPUyuBS_8callisto8payloadssi_1__NtBb_9EffectMsgNtNtCs8pDKiTx8cJZ_5serde2de11Deserialize11deserializeNtB6_s1_14___FieldVisitorNtB16_7Visitor9visit_u64pEBd_
FNDA:0,_RINvXs6_NvXNvNtCskkwNnPUyuBS_8callisto8payloadssi_1__NtBb_9EffectMsgNtNtCs8pDKiTx8cJZ_5serde2de11Deserialize11deserializeNtB6_s1_14___FieldVisitorNtB16_7Visitor9visit_strpEBd_
FNDA:0,_RINvXs6_NvXNvNtCskkwNnPUyuBS_8callisto8payloadssi_1__NtBb_9EffectMsgNtNtCs8pDKiTx8cJZ_5serde2de11Deserialize11deserializeNtB6_s1_14___FieldVisitorNtB16_7Visitor11visit_bytespEBd_
FNDA:0,_RINvXs7_NvXNvNtCskkwNnPUyuBS_8callisto8payloadssi_1__NtBb_9EffectMsgNtNtCs8pDKiTx8cJZ_5serde2de11Deserialize11deserializeNtB6_s1_7___FieldB14_11deserializepEBd_
FNDA:0,_RINvXs8_NvXNvNtCskkwNnPUyuBS_8callisto8payloadssi_1__NtBb_9EffectMsgNtNtCs8pDKiTx8cJZ_5serde2de11Deserialize11deserializeNtB6_s0_9___VisitorNtB16_7Visitor9visit_seqpEBd_
FNDA:0,_RINvXNvXs8_NvXNvNtCskkwNnPUyuBS_8callisto8payloadssi_1__NtBe_9EffectMsgNtNtCs8pDKiTx8cJZ_5serde2de11Deserialize11deserializeNtB9_s0_9___VisitorNtB19_7Visitor9visit_seqNtB3_17___DeserializeWithB17_11deserializepEBg_
FNDA:0,_RNCINvXs8_NvXNvNtCskkwNnPUyuBS_8callisto8payloadssi_1__NtBd_9EffectMsgNtNtCs8pDKiTx8cJZ_5serde2de11Deserialize11deserializeNtB8_s0_9___VisitorNtB18_7Visitor9visit_seqpE0Bf_
FNDA:0,_RINvXs8_NvXNvNtCskkwNnPUyuBS_8callisto8payloadssi_1__NtBb_9EffectMsgNtNtCs8pDKiTx8cJZ_5serde2de11Deserialize11deserializeNtB6_s0_9___VisitorNtB16_7Visitor9visit_mappEBd_
FNDA:0,_RINvXNvXs8_NvXNvNtCskkwNnPUyuBS_8callisto8payloadssi_1__NtBe_9EffectMsgNtNtCs8pDKiTx8cJZ_5serde2de11Deserialize11deserializeNtB9_s0_9___VisitorNtB19_7Visitor9visit_mapNtB3_17___DeserializeWithB17_11deserializepEBg_
FNDA:0,_RINvXs9_NvXNvNtCskkwNnPUyuBS_8callisto8payloadssi_1__NtBb_9EffectMsgNtNtCs8pDKiTx8cJZ_5serde2de11Deserialize11deserializeNtB6_s2_14___FieldVisitorNtB16_7Visitor9visit_u64pEBd_
FNDA:0,_RINvXs9_NvXNvNtCskkwNnPUyuBS_8callisto8payloadssi_1__NtBb_9EffectMsgNtNtCs8pDKiTx8cJZ_5serde2de11Deserialize11deserializeNtB6_s2_14___FieldVisitorNtB16_7Visitor9visit_strpEBd_
FNDA:0,_RINvXs9_NvXNvNtCskkwNnPUyuBS_8callisto8payloadssi_1__NtBb_9EffectMsgNtNtCs8pDKiTx8cJZ_5serde2de11Deserialize11deserializeNtB6_s2_14___FieldVisitorNtB16_7Visitor11visit_bytespEBd_
FNDA:0,_RINvXsa_NvXNvNtCskkwNnPUyuBS_8callisto8payloadssi_1__NtBb_9EffectMsgNtNtCs8pDKiTx8cJZ_5serde2de11Deserialize11deserializeNtB6_s2_7___FieldB14_11deserializepEBd_
FNDA:0,_RINvXsb_NvXNvNtCskkwNnPUyuBS_8callisto8payloadssi_1__NtBb_9EffectMsgNtNtCs8pDKiTx8cJZ_5serde2de11Deserialize11deserializeNtB6_s1_9___VisitorNtB16_7Visitor9visit_seqpEBd_
FNDA:0,_RINvXNvXsb_NvXNvNtCskkwNnPUyuBS_8callisto8payloadssi_1__NtBe_9EffectMsgNtNtCs8pDKiTx8cJZ_5serde2de11Deserialize11deserializeNtB9_s1_9___VisitorNtB19_7Visitor9visit_seqNtB3_17___DeserializeWithB17_11deserializepEBg_
FNDA:0,_RNCINvXsb_NvXNvNtCskkwNnPUyuBS_8callisto8payloadssi_1__NtBd_9EffectMsgNtNtCs8pDKiTx8cJZ_5serde2de11Deserialize11deserializeNtB8_s1_9___VisitorNtB18_7Visitor9visit_seqpE0Bf_
FNDA:0,_RINvXs_NvXsb_NvXNvNtCskkwNnPUyuBS_8callisto8payloadssi_1__NtBg_9EffectMsgNtNtCs8pDKiTx8cJZ_5serde2de11Deserialize11deserializeNtBb_s1_9___VisitorNtB1b_7Visitor9visit_seqNtB5_s_17___DeserializeWithB19_11deserializepEBi_
FNDA:0,_RNCINvXsb_NvXNvNtCskkwNnPUyuBS_8callisto8payloadssi_1__NtBd_9EffectMsgNtNtCs8pDKiTx8cJZ_5serde2de11Deserialize11deserializeNtB8_s1_9___VisitorNtB18_7Visitor9visit_seqpEs_0Bf_
FNDA:0,_RINvXsb_NvXNvNtCskkwNnPUyuBS_8callisto8payloadssi_1__NtBb_9EffectMsgNtNtCs8pDKiTx8cJZ_5serde2de11Deserialize11deserializeNtB6_s1_9___VisitorNtB16_7Visitor9visit_mappEBd_
FNDA:0,_RINvXNvXsb_NvXNvNtCskkwNnPUyuBS_8callisto8payloadssi_1__NtBe_9EffectMsgNtNtCs8pDKiTx8cJZ_5serde2de11Deserialize11deserializeNtB9_s1_9___VisitorNtB19_7Visitor9visit_mapNtB3_17___DeserializeWithB17_11deserializepEBg_
FNDA:0,_RINvXs_NvXsb_NvXNvNtCskkwNnPUyuBS_8callisto8payloadssi_1__NtBg_9EffectMsgNtNtCs8pDKiTx8cJZ_5serde2de11Deserialize11deserializeNtBb_s1_9___VisitorNtB1b_7Visitor9visit_mapNtB5_s_17___DeserializeWithB19_11deserializepEBi_
FNDA:0,_RINvXsc_NvXNvNtCskkwNnPUyuBS_8callisto8payloadssi_1__NtBb_9EffectMsgNtNtCs8pDKiTx8cJZ_5serde2de11Deserialize11deserializeNtB6_s3_14___FieldVisitorNtB16_7Visitor9visit_u64pEBd_
FNDA:0,_RINvXsc_NvXNvNtCskkwNnPUyuBS_8callisto8payloadssi_1__NtBb_9EffectMsgNtNtCs8pDKiTx8cJZ_5serde2de11Deserialize11deserializeNtB6_s3_14___FieldVisitorNtB16_7Visitor9visit_strpEBd_
FNDA:0,_RINvXsc_NvXNvNtCskkwNnPUyuBS_8callisto8payloadssi_1__NtBb_9EffectMsgNtNtCs8pDKiTx8cJZ_5serde2de11Deserialize11deserializeNtB6_s3_14___FieldVisitorNtB16_7Visitor11visit_bytespEBd_
FNDA:0,_RINvXsd_NvXNvNtCskkwNnPUyuBS_8callisto8payloadssi_1__NtBb_9EffectMsgNtNtCs8pDKiTx8cJZ_5serde2de11Deserialize11deserializeNtB6_s3_7___FieldB14_11deserializepEBd_
FNDA:0,_RINvXse_NvXNvNtCskkwNnPUyuBS_8callisto8payloadssi_1__NtBb_9EffectMsgNtNtCs8pDKiTx8cJZ_5serde2de11Deserialize11deserializeNtB6_s2_9___VisitorNtB16_7Visitor9visit_seqpEBd_
FNDA:0,_RINvXse_NvXNvNtCskkwNnPUyuBS_8callisto8payloadssi_1__NtBb_9EffectMsgNtNtCs8pDKiTx8cJZ_5serde2de11Deserialize11deserializeNtB6_s2_9___VisitorNtB16_7Visitor9visit_mappEBd_
FNDA:0,_RINvXNvXNvNtCskkwNnPUyuBS_8callisto8payloadssk_1__NtB8_15LoadScenarioMsgNtNtCs8pDKiTx8cJZ_5serde2de11Deserialize11deserializeNtB3_14___FieldVisitorNtB1a_7Visitor9visit_u64pEBa_
FNDA:0,_RINvXNvXNvNtCskkwNnPUyuBS_8callisto8payloadssk_1__NtB8_15LoadScenarioMsgNtNtCs8pDKiTx8cJZ_5serde2de11Deserialize11deserializeNtB3_14___FieldVisitorNtB1a_7Visitor9visit_strpEBa_
FNDA:0,_RINvXNvXNvNtCskkwNnPUyuBS_8callisto8payloadssk_1__NtB8_15LoadScenarioMsgNtNtCs8pDKiTx8cJZ_5serde2de11Deserialize11deserializeNtB3_14___FieldVisitorNtB1a_7Visitor11visit_bytespEBa_
FNDA:0,_RINvXs_NvXNvNtCskkwNnPUyuBS_8callisto8payloadssk_1__NtBa_15LoadScenarioMsgNtNtCs8pDKiTx8cJZ_5serde2de11Deserialize11deserializeNtB5_7___FieldB1a_11deserializepEBc_
FNDA:0,_RINvXs0_NvXNvNtCskkwNnPUyuBS_8callisto8payloadssk_1__NtBb_15LoadScenarioMsgNtNtCs8pDKiTx8cJZ_5serde2de11Deserialize11deserializeNtB6_9___VisitorNtB1d_7Visitor9visit_seqpEBd_
FNDA:0,_RINvXs0_NvXNvNtCskkwNnPUyuBS_8callisto8payloadssk_1__NtBb_15LoadScenarioMsgNtNtCs8pDKiTx8cJZ_5serde2de11Deserialize11deserializeNtB6_9___VisitorNtB1d_7Visitor9visit_mappEBd_
FNDA:1,_RINvXNvXNvNtCskkwNnPUyuBS_8callisto8payloadssh_1__NtB8_9EffectMsgNtNtCs8pDKiTx8cJZ_5serde3ser9Serialize9serializeNtB3_15___SerializeWithB11_9serializeQINtNtCse3EK68OXEkC_10serde_json3ser10SerializerQINtNtCsdze8u8oDPro_5alloc3vec3VechEEEBa_
FNDA:0,_RINvXs_NvXNvNtCskkwNnPUyuBS_8callisto8payloadssh_1__NtBa_9EffectMsgNtNtCs8pDKiTx8cJZ_5serde3ser9Serialize9serializeNtB5_s_15___SerializeWithB13_9serializeQINtNtCse3EK68OXEkC_10serde_json3ser10SerializerQINtNtCsdze8u8oDPro_5alloc3vec3VechEEEBc_
FNDA:0,_RINvXs0_NvXNvNtCskkwNnPUyuBS_8callisto8payloadssh_1__NtBb_9EffectMsgNtNtCs8pDKiTx8cJZ_5serde3ser9Serialize9serializeNtB6_s0_15___SerializeWithB14_9serializeQINtNtCse3EK68OXEkC_10serde_json3ser10SerializerQINtNtCsdze8u8oDPro_5alloc3vec3VechEEEBd_
FNDA:0,_RINvXs1_NvXNvNtCskkwNnPUyuBS_8callisto8payloadssh_1__NtBb_9EffectMsgNtNtCs8pDKiTx8cJZ_5serde3ser9Serialize9serializeNtB6_s1_15___SerializeWithB14_9serializeQINtNtCse3EK68OXEkC_10serde_json3ser10SerializerQINtNtCsdze8u8oDPro_5alloc3vec3VechEEEBd_
FNDA:0,_RINvXs2_NvXNvNtCskkwNnPUyuBS_8callisto8payloadssh_1__NtBb_9EffectMsgNtNtCs8pDKiTx8cJZ_5serde3ser9Serialize9serializeNtB6_s2_15___SerializeWithB14_9serializeQINtNtCse3EK68OXEkC_10serde_json3ser10SerializerQINtNtCsdze8u8oDPro_5alloc3vec3VechEEEBd_
FNDA:76,_RNCINvMNvNtCskkwNnPUyuBS_8callisto8payloadssl_1__NtB7_9Vec3asVec9serializeQINtNtCse3EK68OXEkC_10serde_json3ser10SerializerQINtNtCsdze8u8oDPro_5alloc3vec3VechEEE0B9_
FNDA:75,_RNCINvMNvNtCskkwNnPUyuBS_8callisto8payloadssl_1__NtB7_9Vec3asVec11deserializeQINtNtCse3EK68OXEkC_10serde_json2de12DeserializerNtNtB1j_4read7StrReadEE0B9_
FNDA:7,_RNvMNtCscBGMVToPeRm_8callisto8payloadsNtB2_14SetCrewActions3new
FNDA:323,_RNvMs_NtCscBGMVToPeRm_8callisto8payloadsNtB4_9EffectMsg7message
FNDA:0,_RNvXs0_NvXNvNtCscBGMVToPeRm_8callisto8payloadss1_1__NtBa_8LoginMsgNtNtCs8pDKiTx8cJZ_5serde2de11Deserialize11deserializeNtB5_9___VisitorNtB14_7Visitor9expecting
FNDA:0,_RNvXs0_NvXNvNtCscBGMVToPeRm_8callisto8payloadss3_1__NtBa_12AuthResponseNtNtCs8pDKiTx8cJZ_5serde2de11Deserialize11deserializeNtB5_9___VisitorNtB19_7Visitor9expecting
FNDA:0,_RNvXs0_NvXNvNtCscBGMVToPeRm_8callisto8payloadss5_1__NtBa_10AddShipMsgNtNtCs8pDKiTx8cJZ_5serde2de11Deserialize11deserializeNtB5_9___VisitorNtB17_7Visitor9expecting
FNDA:0,_RNvXs0_NvXNvNtCscBGMVToPeRm_8callisto8payloadss7_1__NtBa_14SetCrewActionsNtNtCs8pDKiTx8cJZ_5serde2de11Deserialize11deserializeNtB5_9___VisitorNtB1b_7Visitor9expecting
FNDA:0,_RNvXs0_NvXNvNtCscBGMVToPeRm_8callisto8payloadssa_1__NtBa_12AddPlanetMsgNtNtCs8pDKiTx8cJZ_5serde2de11Deserialize11deserializeNtB5_9___VisitorNtB19_7Visitor9expecting
FNDA:0,_RNvXs0_NvXNvNtCscBGMVToPeRm_8callisto8payloadssc_1__NtBa_10SetPlanMsgNtNtCs8pDKiTx8cJZ_5serde2de11Deserialize11deserializeNtB5_9___VisitorNtB17_7Visitor9expecting
FNDA:0,_RNvXs0_NvXNvNtCscBGMVToPeRm_8callisto8payloadsse_1__NtBa_14ComputePathMsgNtNtCs8pDKiTx8cJZ_5serde2de11Deserialize11deserializeNtB5_9___VisitorNtB1b_7Visitor9expecting
FNDA:0,_RNvXs0_NvXNvNtCscBGMVToPeRm_8callisto8payloadssg_1__NtBa_10FireActionNtNtCs8pDKiTx8cJZ_5serde2de11Deserialize11deserializeNtB5_9___VisitorNtB17_7Visitor9expecting
FNDA:0,_RNvXNvXNvNtCscBGMVToPeRm_8callisto8payloadssi_1__NtB7_9EffectMsgNtNtCs8pDKiTx8cJZ_5serde2de11Deserialize11deserializeNtB2_14___FieldVisitorNtB12_7Visitor9expecting
FNDA:0,_RNvXs0_NvXNvNtCscBGMVToPeRm_8callisto8payloadssi_1__NtBa_9EffectMsgNtNtCs8pDKiTx8cJZ_5serde2de11Deserialize11deserializeNtB5_s_14___FieldVisitorNtB15_7Visitor9expecting
FNDA:0,_RNvXs2_NvXNvNtCscBGMVToPeRm_8callisto8payloadssi_1__NtBa_9EffectMsgNtNtCs8pDKiTx8cJZ_5serde2de11Deserialize11deserializeNtB5_9___VisitorNtB15_7Visitor9expecting
FNDA:0,_RNvXs3_NvXNvNtCscBGMVToPeRm_8callisto8payloadssi_1__NtBa_9EffectMsgNtNtCs8pDKiTx8cJZ_5serde2de11Deserialize11deserializeNtB5_s0_14___FieldVisitorNtB15_7Visitor9expecting
FNDA:0,_RNvXs5_NvXNvNtCscBGMVToPeRm_8callisto8payloadssi_1__NtBa_9EffectMsgNtNtCs8pDKiTx8cJZ_5serde2de11Deserialize11deserializeNtB5_s_9___VisitorNtB15_7Visitor9expecting
FNDA:0,_RNvXs6_NvXNvNtCscBGMVToPeRm_8callisto8payloadssi_1__NtBa_9EffectMsgNtNtCs8pDKiTx8cJZ_5serde2de11Deserialize11deserializeNtB5_s1_14___FieldVisitorNtB15_7Visitor9expecting
FNDA:0,_RNvXs8_NvXNvNtCscBGMVToPeRm_8callisto8payloadssi_1__NtBa_9EffectMsgNtNtCs8pDKiTx8cJZ_5serde2de11Deserialize11deserializeNtB5_s0_9___VisitorNtB15_7Visitor9expecting
FNDA:0,_RNvXs9_NvXNvNtCscBGMVToPeRm_8callisto8payloadssi_1__NtBa_9EffectMsgNtNtCs8pDKiTx8cJZ_5serde2de11Deserialize11deserializeNtB5_s2_14___FieldVisitorNtB15_7Visitor9expecting
FNDA:0,_RNvXsb_NvXNvNtCscBGMVToPeRm_8callisto8payloadssi_1__NtBa_9EffectMsgNtNtCs8pDKiTx8cJZ_5serde2de11Deserialize11deserializeNtB5_s1_9___VisitorNtB15_7Visitor9expecting
FNDA:0,_RNvXsc_NvXNvNtCscBGMVToPeRm_8callisto8payloadssi_1__NtBa_9EffectMsgNtNtCs8pDKiTx8cJZ_5serde2de11Deserialize11deserializeNtB5_s3_14___FieldVisitorNtB15_7Visitor9expecting
FNDA:0,_RNvXse_NvXNvNtCscBGMVToPeRm_8callisto8payloadssi_1__NtBa_9EffectMsgNtNtCs8pDKiTx8cJZ_5serde2de11Deserialize11deserializeNtB5_s2_9___VisitorNtB15_7Visitor9expecting
FNDA:0,_RNvXs0_NvXNvNtCscBGMVToPeRm_8callisto8payloadssk_1__NtBa_15LoadScenarioMsgNtNtCs8pDKiTx8cJZ_5serde2de11Deserialize11deserializeNtB5_9___VisitorNtB1c_7Visitor9expecting
FNDA:0,_RNvXNvXNvNtCscBGMVToPeRm_8callisto8payloadss_1__NtB7_9SimpleMsgNtNtCs8pDKiTx8cJZ_5serde2de11Deserialize11deserializeNtB2_14___FieldVisitorNtB11_7Visitor9expecting
FNDA:0,_RINvXNvXNvNtCscBGMVToPeRm_8callisto8payloadss_1__NtB8_9SimpleMsgNtNtCs8pDKiTx8cJZ_5serde2de11Deserialize11deserializeNtB3_14___FieldVisitorNtB12_7Visitor9visit_u64pEBa_
FNDA:0,_RINvXNvXNvNtCscBGMVToPeRm_8callisto8payloadss_1__NtB8_9SimpleMsgNtNtCs8pDKiTx8cJZ_5serde2de11Deserialize11deserializeNtB3_14___FieldVisitorNtB12_7Visitor9visit_strpEBa_
FNDA:0,_RINvXNvXNvNtCscBGMVToPeRm_8callisto8payloadss_1__NtB8_9SimpleMsgNtNtCs8pDKiTx8cJZ_5serde2de11Deserialize11deserializeNtB3_14___FieldVisitorNtB12_7Visitor11visit_bytespEBa_
FNDA:0,_RINvXs_NvXNvNtCscBGMVToPeRm_8callisto8payloadss_1__NtBa_9SimpleMsgNtNtCs8pDKiTx8cJZ_5serde2de11Deserialize11deserializeNtB5_7___FieldB12_11deserializepEBc_
FNDA:0,_RNvXs0_NvXNvNtCscBGMVToPeRm_8callisto8payloadss_1__NtBa_9SimpleMsgNtNtCs8pDKiTx8cJZ_5serde2de11Deserialize11deserializeNtB5_9___VisitorNtB14_7Visitor9expecting
FNDA:0,_RINvXs0_NvXNvNtCscBGMVToPeRm_8callisto8payloadss_1__NtBb_9SimpleMsgNtNtCs8pDKiTx8cJZ_5serde2de11Deserialize11deserializeNtB6_9___VisitorNtB15_7Visitor9visit_seqpEBd_
FNDA:0,_RINvXs0_NvXNvNtCscBGMVToPeRm_8callisto8payloadss_1__NtBb_9SimpleMsgNtNtCs8pDKiTx8cJZ_5serde2de11Deserialize11deserializeNtB6_9___VisitorNtB15_7Visitor9visit_mappEBd_
FNDA:0,_RNvXNvXNvNtCscBGMVToPeRm_8callisto8payloadss1_1__NtB7_8LoginMsgNtNtCs8pDKiTx8cJZ_5serde2de11Deserialize11deserializeNtB2_14___FieldVisitorNtB11_7Visitor9expecting
FNDA:0,_RINvXNvXNvNtCscBGMVToPeRm_8callisto8payloadss1_1__NtB8_8LoginMsgNtNtCs8pDKiTx8cJZ_5serde2de11Deserialize11deserializeNtB3_14___FieldVisitorNtB12_7Visitor9visit_u64pEBa_
FNDA:0,_RINvXNvXNvNtCscBGMVToPeRm_8callisto8payloadss1_1__NtB8_8LoginMsgNtNtCs8pDKiTx8cJZ_5serde2de11Deserialize11deserializeNtB3_14___FieldVisitorNtB12_7Visitor11visit_bytespEBa_
FNDA:0,_RNvXNvXNvNtCscBGMVToPeRm_8callisto8payloadss3_1__NtB7_12AuthResponseNtNtCs8pDKiTx8cJZ_5serde2de11Deserialize11deserializeNtB2_14___FieldVisitorNtB16_7Visitor9expecting
FNDA:0,_RINvXNvXNvNtCscBGMVToPeRm_8callisto8payloadss3_1__NtB8_12AuthResponseNtNtCs8pDKiTx8cJZ_5serde2de11Deserialize11deserializeNtB3_14___FieldVisitorNtB17_7Visitor9visit_u64pEBa_
FNDA:0,_RINvXNvXNvNtCscBGMVToPeRm_8callisto8payloadss3_1__NtB8_12AuthResponseNtNtCs8pDKiTx8cJZ_5serde2de11Deserialize11deserializeNtB3_14___FieldVisitorNtB17_7Visitor11visit_bytespEBa_
FNDA:0,_RNvXNvXNvNtCscBGMVToPeRm_8callisto8payloadss5_1__NtB7_10AddShipMsgNtNtCs8pDKiTx8cJZ_5serde2de11Deserialize11deserializeNtB2_14___FieldVisitorNtB14_7Visitor9expecting
FNDA:0,_RINvXNvXNvNtCscBGMVToPeRm_8callisto8payloadss5_1__NtB8_10AddShipMsgNtNtCs8pDKiTx8cJZ_5serde2de11Deserialize11deserializeNtB3_14___FieldVisitorNtB15_7Visitor9visit_u64pEBa_
FNDA:0,_RINvXNvXNvNtCscBGMVToPeRm_8callisto8payloadss5_1__NtB8_10AddShipMsgNtNtCs8pDKiTx8cJZ_5serde2de11Deserialize11deserializeNtB3_14___FieldVisitorNtB15_7Visitor11visit_bytespEBa_
FNDA:0,_RNvXNvXNvNtCscBGMVToPeRm_8callisto8payloadss7_1__NtB7_14SetCrewActionsNtNtCs8pDKiTx8cJZ_5serde2de11Deserialize11deserializeNtB2_14___FieldVisitorNtB18_7Visitor9expecting
FNDA:0,_RINvXNvXNvNtCscBGMVToPeRm_8callisto8payloadss7_1__NtB8_14SetCrewActionsNtNtCs8pDKiTx8cJZ_5serde2de11Deserialize11deserializeNtB3_14___FieldVisitorNtB19_7Visitor9visit_u64pEBa_
FNDA:0,_RINvXNvXNvNtCscBGMVToPeRm_8callisto8payloadss7_1__NtB8_14SetCrewActionsNtNtCs8pDKiTx8cJZ_5serde2de11Deserialize11deserializeNtB3_14___FieldVisitorNtB19_7Visitor11visit_bytespEBa_
FNDA:0,_RINvXNvXNvNtCscBGMVToPeRm_8callisto8payloadss9_1__NtB8_12AddPlanetMsgNtNtCs8pDKiTx8cJZ_5serde3ser9Serialize9serializeNtB3_15___SerializeWithB15_9serializepEBa_
FNDA:0,_RNvXNvXNvNtCscBGMVToPeRm_8callisto8payloadssa_1__NtB7_12AddPlanetMsgNtNtCs8pDKiTx8cJZ_5serde2de11Deserialize11deserializeNtB2_14___FieldVisitorNtB16_7Visitor9expecting
FNDA:0,_RINvXNvXNvNtCscBGMVToPeRm_8callisto8payloadssa_1__NtB8_12AddPlanetMsgNtNtCs8pDKiTx8cJZ_5serde2de11Deserialize11deserializeNtB3_14___FieldVisitorNtB17_7Visitor9visit_u64pEBa_
FNDA:0,_RINvXNvXNvNtCscBGMVToPeRm_8callisto8payloadssa_1__NtB8_12AddPlanetMsgNtNtCs8pDKiTx8cJZ_5serde2de11Deserialize11deserializeNtB3_14___FieldVisitorNtB17_7Visitor11visit_bytespEBa_
FNDA:0,_RNvXNvXNvNtCscBGMVToPeRm_8callisto8payloadssc_1__NtB7_10SetPlanMsgNtNtCs8pDKiTx8cJZ_5serde2de11Deserialize11deserializeNtB2_14___FieldVisitorNtB14_7Visitor9expecting
FNDA:0,_RINvXNvXNvNtCscBGMVToPeRm_8callisto8payloadssc_1__NtB8_10SetPlanMsgNtNtCs8pDKiTx8cJZ_5serde2de11Deserialize11deserializeNtB3_14___FieldVisitorNtB15_7Visitor9visit_u64pEBa_
FNDA:0,_RINvXNvXNvNtCscBGMVToPeRm_8callisto8payloadssc_1__NtB8_10SetPlanMsgNtNtCs8pDKiTx8cJZ_5serde2de11Deserialize11deserializeNtB3_14___FieldVisitorNtB15_7Visitor11visit_bytespEBa_
FNDA:0,_RNvXNvXNvNtCscBGMVToPeRm_8callisto8payloadsse_1__NtB7_14ComputePathMsgNtNtCs8pDKiTx8cJZ_5serde2de11Deserialize11deserializeNtB2_14___FieldVisitorNtB18_7Visitor9expecting
FNDA:0,_RINvXNvXNvNtCscBGMVToPeRm_8callisto8payloadsse_1__NtB8_14ComputePathMsgNtNtCs8pDKiTx8cJZ_5serde2de11Deserialize11deserializeNtB3_14___FieldVisitorNtB19_7Visitor9visit_u64pEBa_
FNDA:0,_RINvXNvXNvNtCscBGMVToPeRm_8callisto8payloadsse_1__NtB8_14ComputePathMsgNtNtCs8pDKiTx8cJZ_5serde2de11Deserialize11deserializeNtB3_14___FieldVisitorNtB19_7Visitor11visit_bytespEBa_
FNDA:0,_RNvXNvXNvNtCscBGMVToPeRm_8callisto8payloadssg_1__NtB7_10FireActionNtNtCs8pDKiTx8cJZ_5serde2de11Deserialize11deserializeNtB2_14___FieldVisitorNtB14_7Visitor9expecting
FNDA:0,_RINvXNvXNvNtCscBGMVToPeRm_8callisto8payloadssg_1__NtB8_10FireActionNtNtCs8pDKiTx8cJZ_5serde2de11Deserialize11deserializeNtB3_14___FieldVisitorNtB15_7Visitor9visit_u64pEBa_
FNDA:0,_RINvXNvXNvNtCscBGMVToPeRm_8callisto8payloadssg_1__NtB8_10FireActionNtNtCs8pDKiTx8cJZ_5serde2de11Deserialize11deserializeNtB3_14___FieldVisitorNtB15_7Visitor11visit_bytespEBa_
FNDA:0,_RINvXNvXNvNtCscBGMVToPeRm_8callisto8payloadssi_1__NtB8_9EffectMsgNtNtCs8pDKiTx8cJZ_5serde2de11Deserialize11deserializeNtB3_14___FieldVisitorNtB13_7Visitor9visit_u64pEBa_
FNDA:0,_RINvXNvXNvNtCscBGMVToPeRm_8callisto8payloadssi_1__NtB8_9EffectMsgNtNtCs8pDKiTx8cJZ_5serde2de11Deserialize11deserializeNtB3_14___FieldVisitorNtB13_7Visitor11visit_bytespEBa_
FNDA:0,_RNvXNvXNvNtCscBGMVToPeRm_8callisto8payloadssk_1__NtB7_15LoadScenarioMsgNtNtCs8pDKiTx8cJZ_5serde2de11Deserialize11deserializeNtB2_14___FieldVisitorNtB19_7Visitor9expecting
FNDA:0,_RINvXNvXNvNtCscBGMVToPeRm_8callisto8payloadssk_1__NtB8_15LoadScenarioMsgNtNtCs8pDKiTx8cJZ_5serde2de11Deserialize11deserializeNtB3_14___FieldVisitorNtB1a_7Visitor9visit_u64pEBa_
FNDA:0,_RINvXNvXNvNtCscBGMVToPeRm_8callisto8payloadssk_1__NtB8_15LoadScenarioMsgNtNtCs8pDKiTx8cJZ_5serde2de11Deserialize11deserializeNtB3_14___FieldVisitorNtB1a_7Visitor11visit_bytespEBa_
FNDA:2,_RINvXNvXNvNtCscBGMVToPeRm_8callisto8payloadss1_1__NtB8_8LoginMsgNtNtCs8pDKiTx8cJZ_5serde2de11Deserialize11deserializeNtB3_14___FieldVisitorNtB12_7Visitor9visit_strNtNtCse3EK68OXEkC_10serde_json5error5ErrorEBa_
FNDA:2,_RINvXs_NvXNvNtCscBGMVToPeRm_8callisto8payloadss1_1__NtBa_8LoginMsgNtNtCs8pDKiTx8cJZ_5serde2de11Deserialize11deserializeNtB5_7___FieldB12_11deserializeINtNtCse3EK68OXEkC_10serde_json2de6MapKeyNtNtB2t_4read7StrReadEEBc_
FNDA:0,_RINvXs0_NvXNvNtCscBGMVToPeRm_8callisto8payloadss1_1__NtBb_8LoginMsgNtNtCs8pDKiTx8cJZ_5serde2de11Deserialize11deserializeNtB6_9___VisitorNtB15_7Visitor9visit_seqINtNtCse3EK68OXEkC_10serde_json2de9SeqAccessNtNtB2D_4read7StrReadEEBd_
FNDA:3,_RINvXs0_NvXNvNtCscBGMVToPeRm_8callisto8payloadss1_1__NtBb_8LoginMsgNtNtCs8pDKiTx8cJZ_5serde2de11Deserialize11deserializeNtB6_9___VisitorNtB15_7Visitor9visit_mapINtNtCse3EK68OXEkC_10serde_json2de9MapAccessNtNtB2D_4read7StrReadEEBd_
FNDA:2,_RINvXNvXNvNtCscBGMVToPeRm_8callisto8payloadss3_1__NtB8_12AuthResponseNtNtCs8pDKiTx8cJZ_5serde2de11Deserialize11deserializeNtB3_14___FieldVisitorNtB17_7Visitor9visit_strNtNtCse3EK68OXEkC_10serde_json5error5ErrorEBa_
FNDA:2,_RINvXs_NvXNvNtCscBGMVToPeRm_8callisto8payloadss3_1__NtBa_12AuthResponseNtNtCs8pDKiTx8cJZ_5serde2de11Deserialize11deserializeNtB5_7___FieldB17_11deserializeINtNtCse3EK68OXEkC_10serde_json2de6MapKeyNtNtB2y_4read7StrReadEEBc_
FNDA:0,_RINvXs0_NvXNvNtCscBGMVToPeRm_8callisto8payloadss3_1__NtBb_12AuthResponseNtNtCs8pDKiTx8cJZ_5serde2de11Deserialize11deserializeNtB6_9___VisitorNtB1a_7Visitor9visit_seqINtNtCse3EK68OXEkC_10serde_json2de9SeqAccessNtNtB2I_4read7StrReadEEBd_
FNDA:2,_RINvXs0_NvXNvNtCscBGMVToPeRm_8callisto8payloadss3_1__NtBb_12AuthResponseNtNtCs8pDKiTx8cJZ_5serde2de11Deserialize11deserializeNtB6_9___VisitorNtB1a_7Visitor9visit_mapINtNtCse3EK68OXEkC_10serde_json2de9MapAccessNtNtB2I_4read7StrReadEEBd_
FNDA:2,_RINvXNvXNvNtCscBGMVToPeRm_8callisto8payloadss4_1__NtB8_10AddShipMsgNtNtCs8pDKiTx8cJZ_5serde3ser9Serialize9serializeNtB3_15___SerializeWithB13_9serializeQINtNtCse3EK68OXEkC_10serde_json3ser10SerializerQINtNtCsdze8u8oDPro_5alloc3vec3VechEEEBa_
FNDA:2,_RINvXs_NvXNvNtCscBGMVToPeRm_8callisto8payloadss4_1__NtBa_10AddShipMsgNtNtCs8pDKiTx8cJZ_5serde3ser9Serialize9serializeNtB5_s_15___SerializeWithB15_9serializeQINtNtCse3EK68OXEkC_10serde_json3ser10SerializerQINtNtCsdze8u8oDPro_5alloc3vec3VechEEEBc_
FNDA:2,_RINvXs0_NvXNvNtCscBGMVToPeRm_8callisto8payloadss4_1__NtBb_10AddShipMsgNtNtCs8pDKiTx8cJZ_5serde3ser9Serialize9serializeNtB6_s0_15___SerializeWithB16_9serializeQINtNtCse3EK68OXEkC_10serde_json3ser10SerializerQINtNtCsdze8u8oDPro_5alloc3vec3VechEEEBd_
FNDA:156,_RINvXNvXNvNtCscBGMVToPeRm_8callisto8payloadss5_1__NtB8_10AddShipMsgNtNtCs8pDKiTx8cJZ_5serde2de11Deserialize11deserializeNtB3_14___FieldVisitorNtB15_7Visitor9visit_strNtNtCse3EK68OXEkC_10serde_json5error5ErrorEBa_
FNDA:156,_RINvXs_NvXNvNtCscBGMVToPeRm_8callisto8payloadss5_1__NtBa_10AddShipMsgNtNtCs8pDKiTx8cJZ_5serde2de11Deserialize11deserializeNtB5_7___FieldB15_11deserializeINtNtCse3EK68OXEkC_10serde_json2de6MapKeyNtNtB2w_4read7StrReadEEBc_
FNDA:0,_RINvXs0_NvXNvNtCscBGMVToPeRm_8callisto8payloadss5_1__NtBb_10AddShipMsgNtNtCs8pDKiTx8cJZ_5serde2de11Deserialize11deserializeNtB6_9___VisitorNtB18_7Visitor9visit_seqINtNtCse3EK68OXEkC_10serde_json2de9SeqAccessNtNtB2G_4read7StrReadEEBd_
FNDA:0,_RINvXNvXs0_NvXNvNtCscBGMVToPeRm_8callisto8payloadss5_1__NtBe_10AddShipMsgNtNtCs8pDKiTx8cJZ_5serde2de11Deserialize11deserializeNtB9_9___VisitorNtB1b_7Visitor9visit_seqNtB3_17___DeserializeWithB19_11deserializeQINtNtCse3EK68OXEkC_10serde_json2de12DeserializerNtNtB3q_4read7StrReadEEBg_
FNDA:0,_RNCINvXs0_NvXNvNtCscBGMVToPeRm_8callisto8payloadss5_1__NtBd_10AddShipMsgNtNtCs8pDKiTx8cJZ_5serde2de11Deserialize11deserializeNtB8_9___VisitorNtB1a_7Visitor9visit_seqINtNtCse3EK68OXEkC_10serde_json2de9SeqAccessNtNtB2I_4read7StrReadEE0Bf_
FNDA:0,_RINvXs_NvXs0_NvXNvNtCscBGMVToPeRm_8callisto8payloadss5_1__NtBg_10AddShipMsgNtNtCs8pDKiTx8cJZ_5serde2de11Deserialize11deserializeNtBb_9___VisitorNtB1d_7Visitor9visit_seqNtB5_s_17___DeserializeWithB1b_11deserializeQINtNtCse3EK68OXEkC_10serde_json2de12DeserializerNtNtB3u_4read7StrReadEEBi_
FNDA:0,_RNCINvXs0_NvXNvNtCscBGMVToPeRm_8callisto8payloadss5_1__NtBd_10AddShipMsgNtNtCs8pDKiTx8cJZ_5serde2de11Deserialize11deserializeNtB8_9___VisitorNtB1a_7Visitor9visit_seqINtNtCse3EK68OXEkC_10serde_json2de9SeqAccessNtNtB2I_4read7StrReadEEs_0Bf_
FNDA:0,_RINvXs0_NvXs0_NvXNvNtCscBGMVToPeRm_8callisto8payloadss5_1__NtBh_10AddShipMsgNtNtCs8pDKiTx8cJZ_5serde2de11Deserialize11deserializeNtBc_9___VisitorNtB1e_7Visitor9visit_seqNtB6_s0_17___DeserializeWithB1c_11deserializeQINtNtCse3EK68OXEkC_10serde_json2de12DeserializerNtNtB3w_4read7StrReadEEBj_
FNDA:0,_RNCINvXs0_NvXNvNtCscBGMVToPeRm_8callisto8payloadss5_1__NtBd_10AddShipMsgNtNtCs8pDKiTx8cJZ_5serde2de11Deserialize11deserializeNtB8_9___VisitorNtB1a_7Visitor9visit_seqINtNtCse3EK68OXEkC_10serde_json2de9SeqAccessNtNtB2I_4read7StrReadEEs0_0Bf_
FNDA:29,_RINvXs0_NvXNvNtCscBGMVToPeRm_8callisto8payloadss5_1__NtBb_10AddShipMsgNtNtCs8pDKiTx8cJZ_5serde2de11Deserialize11deserializeNtB6_9___VisitorNtB18_7Visitor9visit_mapINtNtCse3EK68OXEkC_10serde_json2de9MapAccessNtNtB2G_4read7StrReadEEBd_
FNDA:29,_RINvXNvXs0_NvXNvNtCscBGMVToPeRm_8callisto8payloadss5_1__NtBe_10AddShipMsgNtNtCs8pDKiTx8cJZ_5serde2de11Deserialize11deserializeNtB9_9___VisitorNtB1b_7Visitor9visit_mapNtB3_17___DeserializeWithB19_11deserializeQINtNtCse3EK68OXEkC_10serde_json2de12DeserializerNtNtB3q_4read7StrReadEEBg_
FNDA:29,_RINvXs_NvXs0_NvXNvNtCscBGMVToPeRm_8callisto8payloadss5_1__NtBg_10AddShipMsgNtNtCs8pDKiTx8cJZ_5serde2de11Deserialize11deserializeNtBb_9___VisitorNtB1d_7Visitor9visit_mapNtB5_s_17___DeserializeWithB1b_11deserializeQINtNtCse3EK68OXEkC_10serde_json2de12DeserializerNtNtB3u_4read7StrReadEEBi_
FNDA:29,_RINvXs0_NvXs0_NvXNvNtCscBGMVToPeRm_8callisto8payloadss5_1__NtBh_10AddShipMsgNtNtCs8pDKiTx8cJZ_5serde2de11Deserialize11deserializeNtBc_9___VisitorNtB1e_7Visitor9visit_mapNtB6_s0_17___DeserializeWithB1c_11deserializeQINtNtCse3EK68OXEkC_10serde_json2de12DeserializerNtNtB3w_4read7StrReadEEBj_
FNDA:5,_RINvXNvXNvNtCscBGMVToPeRm_8callisto8payloadss7_1__NtB8_14SetCrewActionsNtNtCs8pDKiTx8cJZ_5serde2de11Deserialize11deserializeNtB3_14___FieldVisitorNtB19_7Visitor9visit_strNtNtCse3EK68OXEkC_10serde_json5error5ErrorEBa_
FNDA:5,_RINvXs_NvXNvNtCscBGMVToPeRm_8callisto8payloadss7_1__NtBa_14SetCrewActionsNtNtCs8pDKiTx8cJZ_5serde2de11Deserialize11deserializeNtB5_7___FieldB19_11deserializeINtNtCse3EK68OXEkC_10serde_json2de6MapKeyNtNtB2A_4read7StrReadEEBc_
FNDA:0,_RINvXs0_NvXNvNtCscBGMVToPeRm_8callisto8payloadss7_1__NtBb_14SetCrewActionsNtNtCs8pDKiTx8cJZ_5serde2de11Deserialize11deserializeNtB6_9___VisitorNtB1c_7Visitor9visit_seqINtNtCse3EK68OXEkC_10serde_json2de9SeqAccessNtNtB2K_4read7StrReadEEBd_
FNDA:2,_RINvXs0_NvXNvNtCscBGMVToPeRm_8callisto8payloadss7_1__NtBb_14SetCrewActionsNtNtCs8pDKiTx8cJZ_5serde2de11Deserialize11deserializeNtB6_9___VisitorNtB1c_7Visitor9visit_mapINtNtCse3EK68OXEkC_10serde_json2de9MapAccessNtNtB2K_4read7StrReadEEBd_
FNDA:16,_RINvXNvXNvNtCscBGMVToPeRm_8callisto8payloadssa_1__NtB8_12AddPlanetMsgNtNtCs8pDKiTx8cJZ_5serde2de11Deserialize11deserializeNtB3_14___FieldVisitorNtB17_7Visitor9visit_strNtNtCse3EK68OXEkC_10serde_json5error5ErrorEBa_
FNDA:16,_RINvXs_NvXNvNtCscBGMVToPeRm_8callisto8payloadssa_1__NtBa_12AddPlanetMsgNtNtCs8pDKiTx8cJZ_5serde2de11Deserialize11deserializeNtB5_7___FieldB17_11deserializeINtNtCse3EK68OXEkC_10serde_json2de6MapKeyNtNtB2y_4read7StrReadEEBc_
FNDA:0,_RINvXs0_NvXNvNtCscBGMVToPeRm_8callisto8payloadssa_1__NtBb_12AddPlanetMsgNtNtCs8pDKiTx8cJZ_5serde2de11Deserialize11deserializeNtB6_9___VisitorNtB1a_7Visitor9visit_seqINtNtCse3EK68OXEkC_10serde_json2de9SeqAccessNtNtB2I_4read7StrReadEEBd_
FNDA:0,_RINvXNvXs0_NvXNvNtCscBGMVToPeRm_8callisto8payloadssa_1__NtBe_12AddPlanetMsgNtNtCs8pDKiTx8cJZ_5serde2de11Deserialize11deserializeNtB9_9___VisitorNtB1d_7Visitor9visit_seqNtB3_17___DeserializeWithB1b_11deserializeQINtNtCse3EK68OXEkC_10serde_json2de12DeserializerNtNtB3s_4read7StrReadEEBg_
FNDA:0,_RNCINvXs0_NvXNvNtCscBGMVToPeRm_8callisto8payloadssa_1__NtBd_12AddPlanetMsgNtNtCs8pDKiTx8cJZ_5serde2de11Deserialize11deserializeNtB8_9___VisitorNtB1c_7Visitor9visit_seqINtNtCse3EK68OXEkC_10serde_json2de9SeqAccessNtNtB2K_4read7StrReadEE0Bf_
FNDA:3,_RINvXs0_NvXNvNtCscBGMVToPeRm_8callisto8payloadssa_1__NtBb_12AddPlanetMsgNtNtCs8pDKiTx8cJZ_5serde2de11Deserialize11deserializeNtB6_9___VisitorNtB1a_7Visitor9visit_mapINtNtCse3EK68OXEkC_10serde_json2de9MapAccessNtNtB2I_4read7StrReadEEBd_
FNDA:3,_RINvXNvXs0_NvXNvNtCscBGMVToPeRm_8callisto8payloadssa_1__NtBe_12AddPlanetMsgNtNtCs8pDKiTx8cJZ_5serde2de11Deserialize11deserializeNtB9_9___VisitorNtB1d_7Visitor9visit_mapNtB3_17___DeserializeWithB1b_11deserializeQINtNtCse3EK68OXEkC_10serde_json2de12DeserializerNtNtB3s_4read7StrReadEEBg_
FNDA:2,_RINvXNvXNvNtCscBGMVToPeRm_8callisto8payloadssc_1__NtB8_10SetPlanMsgNtNtCs8pDKiTx8cJZ_5serde2de11Deserialize11deserializeNtB3_14___FieldVisitorNtB15_7Visitor9visit_strNtNtCse3EK68OXEkC_10serde_json5error5ErrorEBa_
FNDA:2,_RINvXs_NvXNvNtCscBGMVToPeRm_8callisto8payloadssc_1__NtBa_10SetPlanMsgNtNtCs8pDKiTx8cJZ_5serde2de11Deserialize11deserializeNtB5_7___FieldB15_11deserializeINtNtCse3EK68OXEkC_10serde_json2de6MapKeyNtNtB2w_4read7StrReadEEBc_
FNDA:0,_RINvXs0_NvXNvNtCscBGMVToPeRm_8callisto8payloadssc_1__NtBb_10SetPlanMsgNtNtCs8pDKiTx8cJZ_5serde2de11Deserialize11deserializeNtB6_9___VisitorNtB18_7Visitor9visit_seqINtNtCse3EK68OXEkC_10serde_json2de9SeqAccessNtNtB2G_4read7StrReadEEBd_
FNDA:1,_RINvXs0_NvXNvNtCscBGMVToPeRm_8callisto8payloadssc_1__NtBb_10SetPlanMsgNtNtCs8pDKiTx8cJZ_5serde2de11Deserialize11deserializeNtB6_9___VisitorNtB18_7Visitor9visit_mapINtNtCse3EK68OXEkC_10serde_json2de9MapAccessNtNtB2G_4read7StrReadEEBd_
FNDA:2,_RINvXNvXNvNtCscBGMVToPeRm_8callisto8payloadssd_1__NtB8_14ComputePathMsgNtNtCs8pDKiTx8cJZ_5serde3ser9Serialize9serializeNtB3_15___SerializeWithB17_9serializeQINtNtCse3EK68OXEkC_10serde_json3ser10SerializerQINtNtCsdze8u8oDPro_5alloc3vec3VechEEEBa_
FNDA:2,_RINvXs_NvXNvNtCscBGMVToPeRm_8callisto8payloadssd_1__NtBa_14ComputePathMsgNtNtCs8pDKiTx8cJZ_5serde3ser9Serialize9serializeNtB5_s_15___SerializeWithB19_9serializeQINtNtCse3EK68OXEkC_10serde_json3ser10SerializerQINtNtCsdze8u8oDPro_5alloc3vec3VechEEEBc_
FNDA:1,_RINvXs0_NvXNvNtCscBGMVToPeRm_8callisto8payloadssd_1__NtBb_14ComputePathMsgNtNtCs8pDKiTx8cJZ_5serde3ser9Serialize9serializeNtB6_s0_15___SerializeWithB1a_9serializeQINtNtCse3EK68OXEkC_10serde_json3ser10SerializerQINtNtCsdze8u8oDPro_5alloc3vec3VechEEEBd_
FNDA:17,_RINvXNvXNvNtCscBGMVToPeRm_8callisto8payloadsse_1__NtB8_14ComputePathMsgNtNtCs8pDKiTx8cJZ_5serde2de11Deserialize11deserializeNtB3_14___FieldVisitorNtB19_7Visitor9visit_strNtNtCse3EK68OXEkC_10serde_json5error5ErrorEBa_
FNDA:17,_RINvXs_NvXNvNtCscBGMVToPeRm_8callisto8payloadsse_1__NtBa_14ComputePathMsgNtNtCs8pDKiTx8cJZ_5serde2de11Deserialize11deserializeNtB5_7___FieldB19_11deserializeINtNtCse3EK68OXEkC_10serde_json2de6MapKeyNtNtB2A_4read7StrReadEEBc_
FNDA:0,_RINvXs0_NvXNvNtCscBGMVToPeRm_8callisto8payloadsse_1__NtBb_14ComputePathMsgNtNtCs8pDKiTx8cJZ_5serde2de11Deserialize11deserializeNtB6_9___VisitorNtB1c_7Visitor9visit_seqINtNtCse3EK68OXEkC_10serde_json2de9SeqAccessNtNtB2K_4read7StrReadEEBd_
FNDA:0,_RINvXNvXs0_NvXNvNtCscBGMVToPeRm_8callisto8payloadsse_1__NtBe_14ComputePathMsgNtNtCs8pDKiTx8cJZ_5serde2de11Deserialize11deserializeNtB9_9___VisitorNtB1f_7Visitor9visit_seqNtB3_17___DeserializeWithB1d_11deserializeQINtNtCse3EK68OXEkC_10serde_json2de12DeserializerNtNtB3u_4read7StrReadEEBg_
FNDA:0,_RNCINvXs0_NvXNvNtCscBGMVToPeRm_8callisto8payloadsse_1__NtBd_14ComputePathMsgNtNtCs8pDKiTx8cJZ_5serde2de11Deserialize11deserializeNtB8_9___VisitorNtB1e_7Visitor9visit_seqINtNtCse3EK68OXEkC_10serde_json2de9SeqAccessNtNtB2M_4read7StrReadEE0Bf_
FNDA:0,_RINvXs_NvXs0_NvXNvNtCscBGMVToPeRm_8callisto8payloadsse_1__NtBg_14ComputePathMsgNtNtCs8pDKiTx8cJZ_5serde2de11Deserialize11deserializeNtBb_9___VisitorNtB1h_7Visitor9visit_seqNtB5_s_17___DeserializeWithB1f_11deserializeQINtNtCse3EK68OXEkC_10serde_json2de12DeserializerNtNtB3y_4read7StrReadEEBi_
FNDA:0,_RNCINvXs0_NvXNvNtCscBGMVToPeRm_8callisto8payloadsse_1__NtBd_14ComputePathMsgNtNtCs8pDKiTx8cJZ_5serde2de11Deserialize11deserializeNtB8_9___VisitorNtB1e_7Visitor9visit_seqINtNtCse3EK68OXEkC_10serde_json2de9SeqAccessNtNtB2M_4read7StrReadEEs_0Bf_
FNDA:0,_RINvXs0_NvXs0_NvXNvNtCscBGMVToPeRm_8callisto8payloadsse_1__NtBh_14ComputePathMsgNtNtCs8pDKiTx8cJZ_5serde2de11Deserialize11deserializeNtBc_9___VisitorNtB1i_7Visitor9visit_seqNtB6_s0_17___DeserializeWithB1g_11deserializeQINtNtCse3EK68OXEkC_10serde_json2de12DeserializerNtNtB3A_4read7StrReadEEBj_
FNDA:0,_RNCINvXs0_NvXNvNtCscBGMVToPeRm_8callisto8payloadsse_1__NtBd_14ComputePathMsgNtNtCs8pDKiTx8cJZ_5serde2de11Deserialize11deserializeNtB8_9___VisitorNtB1e_7Visitor9visit_seqINtNtCse3EK68OXEkC_10serde_json2de9SeqAccessNtNtB2M_4read7StrReadEEs0_0Bf_
FNDA:4,_RINvXs0_NvXNvNtCscBGMVToPeRm_8callisto8payloadsse_1__NtBb_14ComputePathMsgNtNtCs8pDKiTx8cJZ_5serde2de11Deserialize11deserializeNtB6_9___VisitorNtB1c_7Visitor9visit_mapINtNtCse3EK68OXEkC_10serde_json2de9MapAccessNtNtB2K_4read7StrReadEEBd_
FNDA:4,_RINvXNvXs0_NvXNvNtCscBGMVToPeRm_8callisto8payloadsse_1__NtBe_14ComputePathMsgNtNtCs8pDKiTx8cJZ_5serde2de11Deserialize11deserializeNtB9_9___VisitorNtB1f_7Visitor9visit_mapNtB3_17___DeserializeWithB1d_11deserializeQINtNtCse3EK68OXEkC_10serde_json2de12DeserializerNtNtB3u_4read7StrReadEEBg_
FNDA:4,_RINvXs_NvXs0_NvXNvNtCscBGMVToPeRm_8callisto8payloadsse_1__NtBg_14ComputePathMsgNtNtCs8pDKiTx8cJZ_5serde2de11Deserialize11deserializeNtBb_9___VisitorNtB1h_7Visitor9visit_mapNtB5_s_17___DeserializeWithB1f_11deserializeQINtNtCse3EK68OXEkC_10serde_json2de12DeserializerNtNtB3y_4read7StrReadEEBi_
FNDA:1,_RINvXs0_NvXs0_NvXNvNtCscBGMVToPeRm_8callisto8payloadsse_1__NtBh_14ComputePathMsgNtNtCs8pDKiTx8cJZ_5serde2de11Deserialize11deserializeNtBc_9___VisitorNtB1i_7Visitor9visit_mapNtB6_s0_17___DeserializeWithB1g_11deserializeQINtNtCse3EK68OXEkC_10serde_json2de12DeserializerNtNtB3A_4read7StrReadEEBj_
FNDA:98,_RINvXNvXNvNtCscBGMVToPeRm_8callisto8payloadssg_1__NtB8_10FireActionNtNtCs8pDKiTx8cJZ_5serde2de11Deserialize11deserializeNtB3_14___FieldVisitorNtB15_7Visitor9visit_strNtNtCse3EK68OXEkC_10serde_json5error5ErrorEBa_
FNDA:98,_RINvXs_NvXNvNtCscBGMVToPeRm_8callisto8payloadssg_1__NtBa_10FireActionNtNtCs8pDKiTx8cJZ_5serde2de11Deserialize11deserializeNtB5_7___FieldB15_11deserializeINtNtCse3EK68OXEkC_10serde_json2de6MapKeyNtNtB2w_4read7StrReadEEBc_
FNDA:0,_RINvXs0_NvXNvNtCscBGMVToPeRm_8callisto8payloadssg_1__NtBb_10FireActionNtNtCs8pDKiTx8cJZ_5serde2de11Deserialize11deserializeNtB6_9___VisitorNtB18_7Visitor9visit_seqINtNtCse3EK68OXEkC_10serde_json2de9SeqAccessNtNtB2G_4read7StrReadEEBd_
FNDA:49,_RINvXs0_NvXNvNtCscBGMVToPeRm_8callisto8payloadssg_1__NtBb_10FireActionNtNtCs8pDKiTx8cJZ_5serde2de11Deserialize11deserializeNtB6_9___VisitorNtB18_7Visitor9visit_mapINtNtCse3EK68OXEkC_10serde_json2de9MapAccessNtNtB2G_4read7StrReadEEBd_
FNDA:1,_RINvXNvXNvNtCscBGMVToPeRm_8callisto8payloadssh_1__NtB8_9EffectMsgNtNtCs8pDKiTx8cJZ_5serde3ser9Serialize9serializeNtB3_15___SerializeWithB11_9serializeNtNtNtCse3EK68OXEkC_10serde_json5value3ser10SerializerEBa_
FNDA:13,_RINvXNvXNvNtCscBGMVToPeRm_8callisto8payloadssh_1__NtB8_9EffectMsgNtNtCs8pDKiTx8cJZ_5serde3ser9Serialize9serializeNtB3_15___SerializeWithB11_9serializeQINtNtCse3EK68OXEkC_10serde_json3ser10SerializerQINtNtCsdze8u8oDPro_5alloc3vec3VechEEEBa_
FNDA:0,_RINvXs_NvXNvNtCscBGMVToPeRm_8callisto8payloadssh_1__NtBa_9EffectMsgNtNtCs8pDKiTx8cJZ_5serde3ser9Serialize9serializeNtB5_s_15___SerializeWithB13_9serializeNtNtNtCse3EK68OXEkC_10serde_json5value3ser10SerializerEBc_
FNDA:4,_RINvXs_NvXNvNtCscBGMVToPeRm_8callisto8payloadssh_1__NtBa_9EffectMsgNtNtCs8pDKiTx8cJZ_5serde3ser9Serialize9serializeNtB5_s_15___SerializeWithB13_9serializeQINtNtCse3EK68OXEkC_10serde_json3ser10SerializerQINtNtCsdze8u8oDPro_5alloc3vec3VechEEEBc_
FNDA:0,_RINvXs0_NvXNvNtCscBGMVToPeRm_8callisto8payloadssh_1__NtBb_9EffectMsgNtNtCs8pDKiTx8cJZ_5serde3ser9Serialize9serializeNtB6_s0_15___SerializeWithB14_9serializeNtNtNtCse3EK68OXEkC_10serde_json5value3ser10SerializerEBd_
FNDA:2,_RINvXs0_NvXNvNtCscBGMVToPeRm_8callisto8payloadssh_1__NtBb_9EffectMsgNtNtCs8pDKiTx8cJZ_5serde3ser9Serialize9serializeNtB6_s0_15___SerializeWithB14_9serializeQINtNtCse3EK68OXEkC_10serde_json3ser10SerializerQINtNtCsdze8u8oDPro_5alloc3vec3VechEEEBd_
FNDA:12,_RINvXs1_NvXNvNtCscBGMVToPeRm_8callisto8payloadssh_1__NtBb_9EffectMsgNtNtCs8pDKiTx8cJZ_5serde3ser9Serialize9serializeNtB6_s1_15___SerializeWithB14_9serializeNtNtNtCse3EK68OXEkC_10serde_json5value3ser10SerializerEBd_
FNDA:46,_RINvXs1_NvXNvNtCscBGMVToPeRm_8callisto8payloadssh_1__NtBb_9EffectMsgNtNtCs8pDKiTx8cJZ_5serde3ser9Serialize9serializeNtB6_s1_15___SerializeWithB14_9serializeQINtNtCse3EK68OXEkC_10serde_json3ser10SerializerQINtNtCsdze8u8oDPro_5alloc3vec3VechEEEBd_
FNDA:12,_RINvXs2_NvXNvNtCscBGMVToPeRm_8callisto8payloadssh_1__NtBb_9EffectMsgNtNtCs8pDKiTx8cJZ_5serde3ser9Serialize9serializeNtB6_s2_15___SerializeWithB14_9serializeNtNtNtCse3EK68OXEkC_10serde_json5value3ser10SerializerEBd_
FNDA:46,_RINvXs2_NvXNvNtCscBGMVToPeRm_8callisto8payloadssh_1__NtBb_9EffectMsgNtNtCs8pDKiTx8cJZ_5serde3ser9Serialize9serializeNtB6_s2_15___SerializeWithB14_9serializeQINtNtCse3EK68OXEkC_10serde_json3ser10SerializerQINtNtCsdze8u8oDPro_5alloc3vec3VechEEEBd_
FNDA:81,_RINvXNvXNvNtCscBGMVToPeRm_8callisto8payloadssi_1__NtB8_9EffectMsgNtNtCs8pDKiTx8cJZ_5serde2de11Deserialize11deserializeNtB3_14___FieldVisitorNtB13_7Visitor9visit_strNtNtCse3EK68OXEkC_10serde_json5error5ErrorEBa_
FNDA:81,_RINvXs_NvXNvNtCscBGMVToPeRm_8callisto8payloadssi_1__NtBa_9EffectMsgNtNtCs8pDKiTx8cJZ_5serde2de11Deserialize11deserializeNtB5_7___FieldB13_11deserializeQINtNtCse3EK68OXEkC_10serde_json2de12DeserializerNtNtB2v_4read7StrReadEEBc_
FNDA:0,_RINvXs0_NvXNvNtCscBGMVToPeRm_8callisto8payloadssi_1__NtBb_9EffectMsgNtNtCs8pDKiTx8cJZ_5serde2de11Deserialize11deserializeNtB6_s_14___FieldVisitorNtB16_7Visitor9visit_u64NtNtCse3EK68OXEkC_10serde_json5error5ErrorEBd_
FNDA:3,_RINvXs0_NvXNvNtCscBGMVToPeRm_8callisto8payloadssi_1__NtBb_9EffectMsgNtNtCs8pDKiTx8cJZ_5serde2de11Deserialize11deserializeNtB6_s_14___FieldVisitorNtB16_7Visitor9visit_strNtNtCse3EK68OXEkC_10serde_json5error5ErrorEBd_
FNDA:0,_RINvXs0_NvXNvNtCscBGMVToPeRm_8callisto8payloadssi_1__NtBb_9EffectMsgNtNtCs8pDKiTx8cJZ_5serde2de11Deserialize11deserializeNtB6_s_14___FieldVisitorNtB16_7Visitor11visit_bytesNtNtCse3EK68OXEkC_10serde_json5error5ErrorEBd_
FNDA:3,_RINvXs1_NvXNvNtCscBGMVToPeRm_8callisto8payloadssi_1__NtBb_9EffectMsgNtNtCs8pDKiTx8cJZ_5serde2de11Deserialize11deserializeNtB6_s_7___FieldB14_11deserializeINtNtNtNtB18_9___private2de7content19ContentDeserializerNtNtCse3EK68OXEkC_10serde_json5error5ErrorEEBd_
FNDA:0,_RINvXs2_NvXNvNtCscBGMVToPeRm_8callisto8payloadssi_1__NtBb_9EffectMsgNtNtCs8pDKiTx8cJZ_5serde2de11Deserialize11deserializeNtB6_9___VisitorNtB16_7Visitor9visit_seqQINtNtB16_5value15SeqDeserializerINtNtNtNtCs9f3LFPSIp77_4core4iter8adapters3map3MapINtNtNtCsdze8u8oDPro_5alloc3vec9into_iter8IntoIterNtNtNtNtB18_9___private2de7content7ContentENvMse_B4K_INtB4K_19ContentDeserializerNtNtCse3EK68OXEkC_10serde_json5error5ErrorE3newEB61_EEBd_
FNDA:0,_RINvXNvXs2_NvXNvNtCscBGMVToPeRm_8callisto8payloadssi_1__NtBe_9EffectMsgNtNtCs8pDKiTx8cJZ_5serde2de11Deserialize11deserializeNtB9_9___VisitorNtB19_7Visitor9visit_seqNtB3_17___DeserializeWithB17_11deserializeINtNtNtNtB1b_9___private2de7content19ContentDeserializerNtNtCse3EK68OXEkC_10serde_json5error5ErrorEEBg_
FNDA:0,_RNCINvXs2_NvXNvNtCscBGMVToPeRm_8callisto8payloadssi_1__NtBd_9EffectMsgNtNtCs8pDKiTx8cJZ_5serde2de11Deserialize11deserializeNtB8_9___VisitorNtB18_7Visitor9visit_seqQINtNtB18_5value15SeqDeserializerINtNtNtNtCs9f3LFPSIp77_4core4iter8adapters3map3MapINtNtNtCsdze8u8oDPro_5alloc3vec9into_iter8IntoIterNtNtNtNtB1a_9___private2de7content7ContentENvMse_B4M_INtB4M_19ContentDeserializerNtNtCse3EK68OXEkC_10serde_json5error5ErrorE3newEB63_EE0Bf_
FNDA:3,_RINvXs2_NvXNvNtCscBGMVToPeRm_8callisto8payloadssi_1__NtBb_9EffectMsgNtNtCs8pDKiTx8cJZ_5serde2de11Deserialize11deserializeNtB6_9___VisitorNtB16_7Visitor9visit_mapQINtNtB16_5value15MapDeserializerINtNtNtNtCs9f3LFPSIp77_4core4iter8adapters3map3MapINtNtNtCsdze8u8oDPro_5alloc3vec9into_iter8IntoIterTNtNtNtNtB18_9___private2de7content7ContentB4J_EENCINvB4L_17visit_content_mapB1V_NtNtCse3EK68OXEkC_10serde_json5error5ErrorE0EB61_EEBd_
FNDA:3,_RINvXNvXs2_NvXNvNtCscBGMVToPeRm_8callisto8payloadssi_1__NtBe_9EffectMsgNtNtCs8pDKiTx8cJZ_5serde2de11Deserialize11deserializeNtB9_9___VisitorNtB19_7Visitor9visit_mapNtB3_17___DeserializeWithB17_11deserializeINtNtNtNtB1b_9___private2de7content19ContentDeserializerNtNtCse3EK68OXEkC_10serde_json5error5ErrorEEBg_
FNDA:0,_RINvXs3_NvXNvNtCscBGMVToPeRm_8callisto8payloadssi_1__NtBb_9EffectMsgNtNtCs8pDKiTx8cJZ_5serde2de11Deserialize11deserializeNtB6_s0_14___FieldVisitorNtB16_7Visitor9visit_u64NtNtCse3EK68OXEkC_10serde_json5error5ErrorEBd_
FNDA:3,_RINvXs3_NvXNvNtCscBGMVToPeRm_8callisto8payloadssi_1__NtBb_9EffectMsgNtNtCs8pDKiTx8cJZ_5serde2de11Deserialize11deserializeNtB6_s0_14___FieldVisitorNtB16_7Visitor9visit_strNtNtCse3EK68OXEkC_10serde_json5error5ErrorEBd_
FNDA:0,_RINvXs3_NvXNvNtCscBGMVToPeRm_8callisto8payloadssi_1__NtBb_9EffectMsgNtNtCs8pDKiTx8cJZ_5serde2de11Deserialize11deserializeNtB6_s0_14___FieldVisitorNtB16_7Visitor11visit_bytesNtNtCse3EK68OXEkC_10serde_json5error5ErrorEBd_
FNDA:3,_RINvXs4_NvXNvNtCscBGMVToPeRm_8callisto8payloadssi_1__NtBb_9EffectMsgNtNtCs8pDKiTx8cJZ_5serde2de11Deserialize11deserializeNtB6_s0_7___FieldB14_11deserializeINtNtNtNtB18_9___private2de7content19ContentDeserializerNtNtCse3EK68OXEkC_10serde_json5error5ErrorEEBd_
FNDA:0,_RINvXs5_NvXNvNtCscBGMVToPeRm_8callisto8payloadssi_1__NtBb_9EffectMsgNtNtCs8pDKiTx8cJZ_5serde2de11Deserialize11deserializeNtB6_s_9___VisitorNtB16_7Visitor9visit_seqQINtNtB16_5value15SeqDeserializerINtNtNtNtCs9f3LFPSIp77_4core4iter8adapters3map3MapINtNtNtCsdze8u8oDPro_5alloc3vec9into_iter8IntoIterNtNtNtNtB18_9___private2de7content7ContentENvMse_B4M_INtB4M_19ContentDeserializerNtNtCse3EK68OXEkC_10serde_json5error5ErrorE3newEB63_EEBd_
FNDA:0,_RINvXNvXs5_NvXNvNtCscBGMVToPeRm_8callisto8payloadssi_1__NtBe_9EffectMsgNtNtCs8pDKiTx8cJZ_5serde2de11Deserialize11deserializeNtB9_s_9___VisitorNtB19_7Visitor9visit_seqNtB3_17___DeserializeWithB17_11deserializeINtNtNtNtB1b_9___private2de7content19ContentDeserializerNtNtCse3EK68OXEkC_10serde_json5error5ErrorEEBg_
FNDA:0,_RNCINvXs5_NvXNvNtCscBGMVToPeRm_8callisto8payloadssi_1__NtBd_9EffectMsgNtNtCs8pDKiTx8cJZ_5serde2de11Deserialize11deserializeNtB8_s_9___VisitorNtB18_7Visitor9visit_seqQINtNtB18_5value15SeqDeserializerINtNtNtNtCs9f3LFPSIp77_4core4iter8adapters3map3MapINtNtNtCsdze8u8oDPro_5alloc3vec9into_iter8IntoIterNtNtNtNtB1a_9___private2de7content7ContentENvMse_B4O_INtB4O_19ContentDeserializerNtNtCse3EK68OXEkC_10serde_json5error5ErrorE3newEB65_EE0Bf_
FNDA:3,_RINvXs5_NvXNvNtCscBGMVToPeRm_8callisto8payloadssi_1__NtBb_9EffectMsgNtNtCs8pDKiTx8cJZ_5serde2de11Deserialize11deserializeNtB6_s_9___VisitorNtB16_7Visitor9visit_mapQINtNtB16_5value15MapDeserializerINtNtNtNtCs9f3LFPSIp77_4core4iter8adapters3map3MapINtNtNtCsdze8u8oDPro_5alloc3vec9into_iter8IntoIterTNtNtNtNtB18_9___private2de7content7ContentB4L_EENCINvB4N_17visit_content_mapB1V_NtNtCse3EK68OXEkC_10serde_json5error5ErrorE0EB63_EEBd_
FNDA:3,_RINvXNvXs5_NvXNvNtCscBGMVToPeRm_8callisto8payloadssi_1__NtBe_9EffectMsgNtNtCs8pDKiTx8cJZ_5serde2de11Deserialize11deserializeNtB9_s_9___VisitorNtB19_7Visitor9visit_mapNtB3_17___DeserializeWithB17_11deserializeINtNtNtNtB1b_9___private2de7content19ContentDeserializerNtNtCse3EK68OXEkC_10serde_json5error5ErrorEEBg_
FNDA:0,_RINvXs6_NvXNvNtCscBGMVToPeRm_8callisto8payloadssi_1__NtBb_9EffectMsgNtNtCs8pDKiTx8cJZ_5serde2de11Deserialize11deserializeNtB6_s1_14___FieldVisitorNtB16_7Visitor9visit_u64NtNtCse3EK68OXEkC_10serde_json5error5ErrorEBd_
FNDA:1,_RINvXs6_NvXNvNtCscBGMVToPeRm_8callisto8payloadssi_1__NtBb_9EffectMsgNtNtCs8pDKiTx8cJZ_5serde2de11Deserialize11deserializeNtB6_s1_14___FieldVisitorNtB16_7Visitor9visit_strNtNtCse3EK68OXEkC_10serde_json5error5ErrorEBd_
FNDA:0,_RINvXs6_NvXNvNtCscBGMVToPeRm_8callisto8payloadssi_1__NtBb_9EffectMsgNtNtCs8pDKiTx8cJZ_5serde2de11Deserialize11deserializeNtB6_s1_14___FieldVisitorNtB16_7Visitor11visit_bytesNtNtCse3EK68OXEkC_10serde_json5error5ErrorEBd_
FNDA:1,_RINvXs7_NvXNvNtCscBGMVToPeRm_8callisto8payloadssi_1__NtBb_9EffectMsgNtNtCs8pDKiTx8cJZ_5serde2de11Deserialize11deserializeNtB6_s1_7___FieldB14_11deserializeINtNtNtNtB18_9___private2de7content19ContentDeserializerNtNtCse3EK68OXEkC_10serde_json5error5ErrorEEBd_
FNDA:0,_RINvXs8_NvXNvNtCscBGMVToPeRm_8callisto8payloadssi_1__NtBb_9EffectMsgNtNtCs8pDKiTx8cJZ_5serde2de11Deserialize11deserializeNtB6_s0_9___VisitorNtB16_7Visitor9visit_seqQINtNtB16_5value15SeqDeserializerINtNtNtNtCs9f3LFPSIp77_4core4iter8adapters3map3MapINtNtNtCsdze8u8oDPro_5alloc3vec9into_iter8IntoIterNtNtNtNtB18_9___private2de7content7ContentENvMse_B4N_INtB4N_19ContentDeserializerNtNtCse3EK68OXEkC_10serde_json5error5ErrorE3newEB64_EEBd_
FNDA:0,_RINvXNvXs8_NvXNvNtCscBGMVToPeRm_8callisto8payloadssi_1__NtBe_9EffectMsgNtNtCs8pDKiTx8cJZ_5serde2de11Deserialize11deserializeNtB9_s0_9___VisitorNtB19_7Visitor9visit_seqNtB3_17___DeserializeWithB17_11deserializeINtNtNtNtB1b_9___private2de7content19ContentDeserializerNtNtCse3EK68OXEkC_10serde_json5error5ErrorEEBg_
FNDA:0,_RNCINvXs8_NvXNvNtCscBGMVToPeRm_8callisto8payloadssi_1__NtBd_9EffectMsgNtNtCs8pDKiTx8cJZ_5serde2de11Deserialize11deserializeNtB8_s0_9___VisitorNtB18_7Visitor9visit_seqQINtNtB18_5value15SeqDeserializerINtNtNtNtCs9f3LFPSIp77_4core4iter8adapters3map3MapINtNtNtCsdze8u8oDPro_5alloc3vec9into_iter8IntoIterNtNtNtNtB1a_9___private2de7content7ContentENvMse_B4P_INtB4P_19ContentDeserializerNtNtCse3EK68OXEkC_10serde_json5error5ErrorE3newEB66_EE0Bf_
FNDA:1,_RINvXs8_NvXNvNtCscBGMVToPeRm_8callisto8payloadssi_1__NtBb_9EffectMsgNtNtCs8pDKiTx8cJZ_5serde2de11Deserialize11deserializeNtB6_s0_9___VisitorNtB16_7Visitor9visit_mapQINtNtB16_5value15MapDeserializerINtNtNtNtCs9f3LFPSIp77_4core4iter8adapters3map3MapINtNtNtCsdze8u8oDPro_5alloc3vec9into_iter8IntoIterTNtNtNtNtB18_9___private2de7content7ContentB4M_EENCINvB4O_17visit_content_mapB1V_NtNtCse3EK68OXEkC_10serde_json5error5ErrorE0EB64_EEBd_
FNDA:1,_RINvXNvXs8_NvXNvNtCscBGMVToPeRm_8callisto8payloadssi_1__NtBe_9EffectMsgNtNtCs8pDKiTx8cJZ_5serde2de11Deserialize11deserializeNtB9_s0_9___VisitorNtB19_7Visitor9visit_mapNtB3_17___DeserializeWithB17_11deserializeINtNtNtNtB1b_9___private2de7content19ContentDeserializerNtNtCse3EK68OXEkC_10serde_json5error5ErrorEEBg_
FNDA:0,_RINvXs9_NvXNvNtCscBGMVToPeRm_8callisto8payloadssi_1__NtBb_9EffectMsgNtNtCs8pDKiTx8cJZ_5serde2de11Deserialize11deserializeNtB6_s2_14___FieldVisitorNtB16_7Visitor9visit_u64NtNtCse3EK68OXEkC_10serde_json5error5ErrorEBd_
FNDA:30,_RINvXs9_NvXNvNtCscBGMVToPeRm_8callisto8payloadssi_1__NtBb_9EffectMsgNtNtCs8pDKiTx8cJZ_5serde2de11Deserialize11deserializeNtB6_s2_14___FieldVisitorNtB16_7Visitor9visit_strNtNtCse3EK68OXEkC_10serde_json5error5ErrorEBd_
FNDA:0,_RINvXs9_NvXNvNtCscBGMVToPeRm_8callisto8payloadssi_1__NtBb_9EffectMsgNtNtCs8pDKiTx8cJZ_5serde2de11Deserialize11deserializeNtB6_s2_14___FieldVisitorNtB16_7Visitor11visit_bytesNtNtCse3EK68OXEkC_10serde_json5error5ErrorEBd_
FNDA:30,_RINvXsa_NvXNvNtCscBGMVToPeRm_8callisto8payloadssi_1__NtBb_9EffectMsgNtNtCs8pDKiTx8cJZ_5serde2de11Deserialize11deserializeNtB6_s2_7___FieldB14_11deserializeINtNtNtNtB18_9___private2de7content19ContentDeserializerNtNtCse3EK68OXEkC_10serde_json5error5ErrorEEBd_
FNDA:0,_RINvXsb_NvXNvNtCscBGMVToPeRm_8callisto8payloadssi_1__NtBb_9EffectMsgNtNtCs8pDKiTx8cJZ_5serde2de11Deserialize11deserializeNtB6_s1_9___VisitorNtB16_7Visitor9visit_seqQINtNtB16_5value15SeqDeserializerINtNtNtNtCs9f3LFPSIp77_4core4iter8adapters3map3MapINtNtNtCsdze8u8oDPro_5alloc3vec9into_iter8IntoIterNtNtNtNtB18_9___private2de7content7ContentENvMse_B4N_INtB4N_19ContentDeserializerNtNtCse3EK68OXEkC_10serde_json5error5ErrorE3newEB64_EEBd_
FNDA:0,_RINvXNvXsb_NvXNvNtCscBGMVToPeRm_8callisto8payloadssi_1__NtBe_9EffectMsgNtNtCs8pDKiTx8cJZ_5serde2de11Deserialize11deserializeNtB9_s1_9___VisitorNtB19_7Visitor9visit_seqNtB3_17___DeserializeWithB17_11deserializeINtNtNtNtB1b_9___private2de7content19ContentDeserializerNtNtCse3EK68OXEkC_10serde_json5error5ErrorEEBg_
FNDA:0,_RNCINvXsb_NvXNvNtCscBGMVToPeRm_8callisto8payloadssi_1__NtBd_9EffectMsgNtNtCs8pDKiTx8cJZ_5serde2de11Deserialize11deserializeNtB8_s1_9___VisitorNtB18_7Visitor9visit_seqQINtNtB18_5value15SeqDeserializerINtNtNtNtCs9f3LFPSIp77_4core4iter8adapters3map3MapINtNtNtCsdze8u8oDPro_5alloc3vec9into_iter8IntoIterNtNtNtNtB1a_9___private2de7content7ContentENvMse_B4P_INtB4P_19ContentDeserializerNtNtCse3EK68OXEkC_10serde_json5error5ErrorE3newEB66_EE0Bf_
FNDA:0,_RINvXs_NvXsb_NvXNvNtCscBGMVToPeRm_8callisto8payloadssi_1__NtBg_9EffectMsgNtNtCs8pDKiTx8cJZ_5serde2de11Deserialize11deserializeNtBb_s1_9___VisitorNtB1b_7Visitor9visit_seqNtB5_s_17___DeserializeWithB19_11deserializeINtNtNtNtB1d_9___private2de7content19ContentDeserializerNtNtCse3EK68OXEkC_10serde_json5error5ErrorEEBi_
FNDA:0,_RNCINvXsb_NvXNvNtCscBGMVToPeRm_8callisto8payloadssi_1__NtBd_9EffectMsgNtNtCs8pDKiTx8cJZ_5serde2de11Deserialize11deserializeNtB8_s1_9___VisitorNtB18_7Visitor9visit_seqQINtNtB18_5value15SeqDeserializerINtNtNtNtCs9f3LFPSIp77_4core4iter8adapters3map3MapINtNtNtCsdze8u8oDPro_5alloc3vec9into_iter8IntoIterNtNtNtNtB1a_9___private2de7content7ContentENvMse_B4P_INtB4P_19ContentDeserializerNtNtCse3EK68OXEkC_10serde_json5error5ErrorE3newEB66_EEs_0Bf_
FNDA:15,_RINvXsb_NvXNvNtCscBGMVToPeRm_8callisto8payloadssi_1__NtBb_9EffectMsgNtNtCs8pDKiTx8cJZ_5serde2de11Deserialize11deserializeNtB6_s1_9___VisitorNtB16_7Visitor9visit_mapQINtNtB16_5value15MapDeserializerINtNtNtNtCs9f3LFPSIp77_4core4iter8adapters3map3MapINtNtNtCsdze8u8oDPro_5alloc3vec9into_iter8IntoIterTNtNtNtNtB18_9___private2de7content7ContentB4M_EENCINvB4O_17visit_content_mapB1V_NtNtCse3EK68OXEkC_10serde_json5error5ErrorE0EB64_EEBd_
FNDA:15,_RINvXNvXsb_NvXNvNtCscBGMVToPeRm_8callisto8payloadssi_1__NtBe_9EffectMsgNtNtCs8pDKiTx8cJZ_5serde2de11Deserialize11deserializeNtB9_s1_9___VisitorNtB19_7Visitor9visit_mapNtB3_17___DeserializeWithB17_11deserializeINtNtNtNtB1b_9___private2de7content19ContentDeserializerNtNtCse3EK68OXEkC_10serde_json5error5ErrorEEBg_
FNDA:15,_RINvXs_NvXsb_NvXNvNtCscBGMVToPeRm_8callisto8payloadssi_1__NtBg_9EffectMsgNtNtCs8pDKiTx8cJZ_5serde2de11Deserialize11deserializeNtBb_s1_9___VisitorNtB1b_7Visitor9visit_mapNtB5_s_17___DeserializeWithB19_11deserializeINtNtNtNtB1d_9___private2de7content19ContentDeserializerNtNtCse3EK68OXEkC_10serde_json5error5ErrorEEBi_
FNDA:0,_RINvXsc_NvXNvNtCscBGMVToPeRm_8callisto8payloadssi_1__NtBb_9EffectMsgNtNtCs8pDKiTx8cJZ_5serde2de11Deserialize11deserializeNtB6_s3_14___FieldVisitorNtB16_7Visitor9visit_u64NtNtCse3EK68OXEkC_10serde_json5error5ErrorEBd_
FNDA:59,_RINvXsc_NvXNvNtCscBGMVToPeRm_8callisto8payloadssi_1__NtBb_9EffectMsgNtNtCs8pDKiTx8cJZ_5serde2de11Deserialize11deserializeNtB6_s3_14___FieldVisitorNtB16_7Visitor9visit_strNtNtCse3EK68OXEkC_10serde_json5error5ErrorEBd_
FNDA:0,_RINvXsc_NvXNvNtCscBGMVToPeRm_8callisto8payloadssi_1__NtBb_9EffectMsgNtNtCs8pDKiTx8cJZ_5serde2de11Deserialize11deserializeNtB6_s3_14___FieldVisitorNtB16_7Visitor11visit_bytesNtNtCse3EK68OXEkC_10serde_json5error5ErrorEBd_
FNDA:59,_RINvXsd_NvXNvNtCscBGMVToPeRm_8callisto8payloadssi_1__NtBb_9EffectMsgNtNtCs8pDKiTx8cJZ_5serde2de11Deserialize11deserializeNtB6_s3_7___FieldB14_11deserializeINtNtNtNtB18_9___private2de7content19ContentDeserializerNtNtCse3EK68OXEkC_10serde_json5error5ErrorEEBd_
FNDA:0,_RINvXse_NvXNvNtCscBGMVToPeRm_8callisto8payloadssi_1__NtBb_9EffectMsgNtNtCs8pDKiTx8cJZ_5serde2de11Deserialize11deserializeNtB6_s2_9___VisitorNtB16_7Visitor9visit_seqQINtNtB16_5value15SeqDeserializerINtNtNtNtCs9f3LFPSIp77_4core4iter8adapters3map3MapINtNtNtCsdze8u8oDPro_5alloc3vec9into_iter8IntoIterNtNtNtNtB18_9___private2de7content7ContentENvMse_B4N_INtB4N_19ContentDeserializerNtNtCse3EK68OXEkC_10serde_json5error5ErrorE3newEB64_EEBd_
FNDA:59,_RINvXse_NvXNvNtCscBGMVToPeRm_8callisto8payloadssi_1__NtBb_9EffectMsgNtNtCs8pDKiTx8cJZ_5serde2de11Deserialize11deserializeNtB6_s2_9___VisitorNtB16_7Visitor9visit_mapQINtNtB16_5value15MapDeserializerINtNtNtNtCs9f3LFPSIp77_4core4iter8adapters3map3MapINtNtNtCsdze8u8oDPro_5alloc3vec9into_iter8IntoIterTNtNtNtNtB18_9___private2de7content7ContentB4M_EENCINvB4O_17visit_content_mapB1V_NtNtCse3EK68OXEkC_10serde_json5error5ErrorE0EB64_EEBd_
FNDA:2,_RINvXNvXNvNtCscBGMVToPeRm_8callisto8payloadssk_1__NtB8_15LoadScenarioMsgNtNtCs8pDKiTx8cJZ_5serde2de11Deserialize11deserializeNtB3_14___FieldVisitorNtB1a_7Visitor9visit_strNtNtCse3EK68OXEkC_10serde_json5error5ErrorEBa_
FNDA:2,_RINvXs_NvXNvNtCscBGMVToPeRm_8callisto8payloadssk_1__NtBa_15LoadScenarioMsgNtNtCs8pDKiTx8cJZ_5serde2de11Deserialize11deserializeNtB5_7___FieldB1a_11deserializeINtNtCse3EK68OXEkC_10serde_json2de6MapKeyNtNtB2B_4read7StrReadEEBc_
FNDA:0,_RINvXs0_NvXNvNtCscBGMVToPeRm_8callisto8payloadssk_1__NtBb_15LoadScenarioMsgNtNtCs8pDKiTx8cJZ_5serde2de11Deserialize11deserializeNtB6_9___VisitorNtB1d_7Visitor9visit_seqINtNtCse3EK68OXEkC_10serde_json2de9SeqAccessNtNtB2L_4read7StrReadEEBd_
FNDA:2,_RINvXs0_NvXNvNtCscBGMVToPeRm_8callisto8payloadssk_1__NtBb_15LoadScenarioMsgNtNtCs8pDKiTx8cJZ_5serde2de11Deserialize11deserializeNtB6_9___VisitorNtB1d_7Visitor9visit_mapINtNtCse3EK68OXEkC_10serde_json2de9MapAccessNtNtB2L_4read7StrReadEEBd_
FNDA:85,_RNCINvMNvNtCscBGMVToPeRm_8callisto8payloadssl_1__NtB7_9Vec3asVec9serializeNtNtNtCse3EK68OXEkC_10serde_json5value3ser10SerializerE0B9_
FNDA:282,_RNCINvMNvNtCscBGMVToPeRm_8callisto8payloadssl_1__NtB7_9Vec3asVec9serializeQINtNtCse3EK68OXEkC_10serde_json3ser10SerializerQINtNtCsdze8u8oDPro_5alloc3vec3VechEEE0B9_
FNDA:37,_RNCINvMNvNtCscBGMVToPeRm_8callisto8payloadssl_1__NtB7_9Vec3asVec11deserializeINtNtNtNtCs8pDKiTx8cJZ_5serde9___private2de7content19ContentDeserializerNtNtCse3EK68OXEkC_10serde_json5error5ErrorEE0B9_
FNDA:42,_RNCINvMNvNtCscBGMVToPeRm_8callisto8payloadssl_1__NtB7_9Vec3asVec11deserializeNtNtCse3EK68OXEkC_10serde_json5value5ValueE0B9_
FNDA:258,_RNCINvMNvNtCscBGMVToPeRm_8callisto8payloadssl_1__NtB7_9Vec3asVec11deserializeQINtNtCse3EK68OXEkC_10serde_json2de12DeserializerNtNtB1j_4read7StrReadEE0B9_
FNDA:18,_RNCINvMNvNtCscBGMVToPeRm_8callisto8payloadssl_1__NtB7_9Vec3asVec11deserializeQINtNtCse3EK68OXEkC_10serde_json2de12DeserializerNtNtB1j_4read9SliceReadEE0B9_
FNDA:1,_RNvNtNtCscBGMVToPeRm_8callisto8payloads5testss_17test_add_ship_msg
FNDA:1,_RNvNtNCNvNtNtCscBGMVToPeRm_8callisto8payloads5testss_17test_add_ship_msg04init4init
FNDA:1,_RNvNtNtCscBGMVToPeRm_8callisto8payloads5testss_27test_add_ship_with_crew_msg
FNDA:1,_RNvNtNCNvNtNtCscBGMVToPeRm_8callisto8payloads5testss_27test_add_ship_with_crew_msg04init4init
FNDA:1,_RNvNtNtCscBGMVToPeRm_8callisto8payloads5testss_21test_compute_path_msg
FNDA:1,_RNvNtNvNtNtCscBGMVToPeRm_8callisto8payloads5testss_21test_compute_path_msg4init4init
FNDA:1,_RNvNtNtCscBGMVToPeRm_8callisto8payloads5testss_25test_serialize_effect_msg
FNDA:1,_RNvNtNvNtNtCscBGMVToPeRm_8callisto8payloads5testss_25test_serialize_effect_msg4init4init
FNDA:1,_RNvNtNtCscBGMVToPeRm_8callisto8payloads5testss_31test_serialize_fire_actions_msg
FNDA:1,_RNvNtNvNtNtCscBGMVToPeRm_8callisto8payloads5testss_31test_serialize_fire_actions_msg4init4init
FNDA:1,_RNvNtNtCscBGMVToPeRm_8callisto8payloads5testss_22test_load_scenario_msg
FNDA:1,_RNvNtNvNtNtCscBGMVToPeRm_8callisto8payloads5testss_22test_load_scenario_msg4init4init
FNDA:1,_RNvNtNtCscBGMVToPeRm_8callisto8payloads5testss_14test_login_msg
FNDA:1,_RNvNtNvNtNtCscBGMVToPeRm_8callisto8payloads5testss_14test_login_msg4init4init
FNDA:15,_RINvXNvXNvNtCskkwNnPUyuBS_8callisto8payloadss_1__NtB8_9SimpleMsgNtNtCs8pDKiTx8cJZ_5serde2de11Deserialize11deserializeNtB3_14___FieldVisitorNtB12_7Visitor9visit_strNtNtCse3EK68OXEkC_10serde_json5error5ErrorECseGnTZYlWoAf_9webserver
FNDA:1,_RINvXNvXNvNtCskkwNnPUyuBS_8callisto8payloadssh_1__NtB8_9EffectMsgNtNtCs8pDKiTx8cJZ_5serde3ser9Serialize9serializeNtB3_15___SerializeWithB11_9serializeNtNtNtCse3EK68OXEkC_10serde_json5value3ser10SerializerECseGnTZYlWoAf_9webserver
FNDA:5,_RINvXNvXNvNtCskkwNnPUyuBS_8callisto8payloadssi_1__NtB8_9EffectMsgNtNtCs8pDKiTx8cJZ_5serde2de11Deserialize11deserializeNtB3_14___FieldVisitorNtB13_7Visitor9visit_strNtNtCse3EK68OXEkC_10serde_json5error5ErrorECseGnTZYlWoAf_9webserver
FNDA:1,_RINvXNvXs2_NvXNvNtCskkwNnPUyuBS_8callisto8payloadssi_1__NtBe_9EffectMsgNtNtCs8pDKiTx8cJZ_5serde2de11Deserialize11deserializeNtB9_9___VisitorNtB19_7Visitor9visit_mapNtB3_17___DeserializeWithB17_11deserializeINtNtNtNtB1b_9___private2de7content19ContentDeserializerNtNtCse3EK68OXEkC_10serde_json5error5ErrorEECseGnTZYlWoAf_9webserver
FNDA:0,_RINvXNvXs2_NvXNvNtCskkwNnPUyuBS_8callisto8payloadssi_1__NtBe_9EffectMsgNtNtCs8pDKiTx8cJZ_5serde2de11Deserialize11deserializeNtB9_9___VisitorNtB19_7Visitor9visit_seqNtB3_17___DeserializeWithB17_11deserializeINtNtNtNtB1b_9___private2de7content19ContentDeserializerNtNtCse3EK68OXEkC_10serde_json5error5ErrorEECseGnTZYlWoAf_9webserver
FNDA:0,_RINvXNvXs5_NvXNvNtCskkwNnPUyuBS_8callisto8payloadssi_1__NtBe_9EffectMsgNtNtCs8pDKiTx8cJZ_5serde2de11Deserialize11deserializeNtB9_s_9___VisitorNtB19_7Visitor9visit_mapNtB3_17___DeserializeWithB17_11deserializeINtNtNtNtB1b_9___private2de7content19ContentDeserializerNtNtCse3EK68OXEkC_10serde_json5error5ErrorEECseGnTZYlWoAf_9webserver
FNDA:0,_RINvXNvXs5_NvXNvNtCskkwNnPUyuBS_8callisto8payloadssi_1__NtBe_9EffectMsgNtNtCs8pDKiTx8cJZ_5serde2de11Deserialize11deserializeNtB9_s_9___VisitorNtB19_7Visitor9visit_seqNtB3_17___DeserializeWithB17_11deserializeINtNtNtNtB1b_9___private2de7content19ContentDeserializerNtNtCse3EK68OXEkC_10serde_json5error5ErrorEECseGnTZYlWoAf_9webserver
FNDA:0,_RINvXNvXs8_NvXNvNtCskkwNnPUyuBS_8callisto8payloadssi_1__NtBe_9EffectMsgNtNtCs8pDKiTx8cJZ_5serde2de11Deserialize11deserializeNtB9_s0_9___VisitorNtB19_7Visitor9visit_mapNtB3_17___DeserializeWithB17_11deserializeINtNtNtNtB1b_9___private2de7content19ContentDeserializerNtNtCse3EK68OXEkC_10serde_json5error5ErrorEECseGnTZYlWoAf_9webserver
FNDA:0,_RINvXNvXs8_NvXNvNtCskkwNnPUyuBS_8callisto8payloadssi_1__NtBe_9EffectMsgNtNtCs8pDKiTx8cJZ_5serde2de11Deserialize11deserializeNtB9_s0_9___VisitorNtB19_7Visitor9visit_seqNtB3_17___DeserializeWithB17_11deserializeINtNtNtNtB1b_9___private2de7content19ContentDeserializerNtNtCse3EK68OXEkC_10serde_json5error5ErrorEECseGnTZYlWoAf_9webserver
FNDA:0,_RINvXNvXsb_NvXNvNtCskkwNnPUyuBS_8callisto8payloadssi_1__NtBe_9EffectMsgNtNtCs8pDKiTx8cJZ_5serde2de11Deserialize11deserializeNtB9_s1_9___VisitorNtB19_7Visitor9visit_mapNtB3_17___DeserializeWithB17_11deserializeINtNtNtNtB1b_9___private2de7content19ContentDeserializerNtNtCse3EK68OXEkC_10serde_json5error5ErrorEECseGnTZYlWoAf_9webserver
FNDA:0,_RINvXNvXsb_NvXNvNtCskkwNnPUyuBS_8callisto8payloadssi_1__NtBe_9EffectMsgNtNtCs8pDKiTx8cJZ_5serde2de11Deserialize11deserializeNtB9_s1_9___VisitorNtB19_7Visitor9visit_seqNtB3_17___DeserializeWithB17_11deserializeINtNtNtNtB1b_9___private2de7content19ContentDeserializerNtNtCse3EK68OXEkC_10serde_json5error5ErrorEECseGnTZYlWoAf_9webserver
FNDA:15,_RINvXs0_NvXNvNtCskkwNnPUyuBS_8callisto8payloadss_1__NtBb_9SimpleMsgNtNtCs8pDKiTx8cJZ_5serde2de11Deserialize11deserializeNtB6_9___VisitorNtB15_7Visitor9visit_mapINtNtCse3EK68OXEkC_10serde_json2de9MapAccessNtNtB2D_4read9SliceReadEECseGnTZYlWoAf_9webserver
FNDA:0,_RINvXs0_NvXNvNtCskkwNnPUyuBS_8callisto8payloadss_1__NtBb_9SimpleMsgNtNtCs8pDKiTx8cJZ_5serde2de11Deserialize11deserializeNtB6_9___VisitorNtB15_7Visitor9visit_seqINtNtCse3EK68OXEkC_10serde_json2de9SeqAccessNtNtB2D_4read9SliceReadEECseGnTZYlWoAf_9webserver
FNDA:0,_RINvXs0_NvXNvNtCskkwNnPUyuBS_8callisto8payloadssh_1__NtBb_9EffectMsgNtNtCs8pDKiTx8cJZ_5serde3ser9Serialize9serializeNtB6_s0_15___SerializeWithB14_9serializeNtNtNtCse3EK68OXEkC_10serde_json5value3ser10SerializerECseGnTZYlWoAf_9webserver
FNDA:0,_RINvXs0_NvXNvNtCskkwNnPUyuBS_8callisto8payloadssi_1__NtBb_9EffectMsgNtNtCs8pDKiTx8cJZ_5serde2de11Deserialize11deserializeNtB6_s_14___FieldVisitorNtB16_7Visitor11visit_bytesNtNtCse3EK68OXEkC_10serde_json5error5ErrorECseGnTZYlWoAf_9webserver
FNDA:1,_RINvXs0_NvXNvNtCskkwNnPUyuBS_8callisto8payloadssi_1__NtBb_9EffectMsgNtNtCs8pDKiTx8cJZ_5serde2de11Deserialize11deserializeNtB6_s_14___FieldVisitorNtB16_7Visitor9visit_strNtNtCse3EK68OXEkC_10serde_json5error5ErrorECseGnTZYlWoAf_9webserver
FNDA:0,_RINvXs0_NvXNvNtCskkwNnPUyuBS_8callisto8payloadssi_1__NtBb_9EffectMsgNtNtCs8pDKiTx8cJZ_5serde2de11Deserialize11deserializeNtB6_s_14___FieldVisitorNtB16_7Visitor9visit_u64NtNtCse3EK68OXEkC_10serde_json5error5ErrorECseGnTZYlWoAf_9webserver
FNDA:0,_RINvXs1_NvXNvNtCskkwNnPUyuBS_8callisto8payloadssh_1__NtBb_9EffectMsgNtNtCs8pDKiTx8cJZ_5serde3ser9Serialize9serializeNtB6_s1_15___SerializeWithB14_9serializeNtNtNtCse3EK68OXEkC_10serde_json5value3ser10SerializerECseGnTZYlWoAf_9webserver
FNDA:1,_RINvXs1_NvXNvNtCskkwNnPUyuBS_8callisto8payloadssi_1__NtBb_9EffectMsgNtNtCs8pDKiTx8cJZ_5serde2de11Deserialize11deserializeNtB6_s_7___FieldB14_11deserializeINtNtNtNtB18_9___private2de7content19ContentDeserializerNtNtCse3EK68OXEkC_10serde_json5error5ErrorEECseGnTZYlWoAf_9webserver
FNDA:0,_RINvXs2_NvXNvNtCskkwNnPUyuBS_8callisto8payloadssh_1__NtBb_9EffectMsgNtNtCs8pDKiTx8cJZ_5serde3ser9Serialize9serializeNtB6_s2_15___SerializeWithB14_9serializeNtNtNtCse3EK68OXEkC_10serde_json5value3ser10SerializerECseGnTZYlWoAf_9webserver
FNDA:1,_RINvXs2_NvXNvNtCskkwNnPUyuBS_8callisto8payloadssi_1__NtBb_9EffectMsgNtNtCs8pDKiTx8cJZ_5serde2de11Deserialize11deserializeNtB6_9___VisitorNtB16_7Visitor9visit_mapQINtNtB16_5value15MapDeserializerINtNtNtNtCs9f3LFPSIp77_4core4iter8adapters3map3MapINtNtNtCsdze8u8oDPro_5alloc3vec9into_iter8IntoIterTNtNtNtNtB18_9___private2de7content7ContentB4J_EENCINvB4L_17visit_content_mapB1V_NtNtCse3EK68OXEkC_10serde_json5error5ErrorE0EB61_EECseGnTZYlWoAf_9webserver
FNDA:0,_RINvXs2_NvXNvNtCskkwNnPUyuBS_8callisto8payloadssi_1__NtBb_9EffectMsgNtNtCs8pDKiTx8cJZ_5serde2de11Deserialize11deserializeNtB6_9___VisitorNtB16_7Visitor9visit_seqQINtNtB16_5value15SeqDeserializerINtNtNtNtCs9f3LFPSIp77_4core4iter8adapters3map3MapINtNtNtCsdze8u8oDPro_5alloc3vec9into_iter8IntoIterNtNtNtNtB18_9___private2de7content7ContentENvMse_B4K_INtB4K_19ContentDeserializerNtNtCse3EK68OXEkC_10serde_json5error5ErrorE3newEB61_EECseGnTZYlWoAf_9webserver
FNDA:0,_RINvXs3_NvXNvNtCskkwNnPUyuBS_8callisto8payloadssi_1__NtBb_9EffectMsgNtNtCs8pDKiTx8cJZ_5serde2de11Deserialize11deserializeNtB6_s0_14___FieldVisitorNtB16_7Visitor11visit_bytesNtNtCse3EK68OXEkC_10serde_json5error5ErrorECseGnTZYlWoAf_9webserver
FNDA:0,_RINvXs3_NvXNvNtCskkwNnPUyuBS_8callisto8payloadssi_1__NtBb_9EffectMsgNtNtCs8pDKiTx8cJZ_5serde2de11Deserialize11deserializeNtB6_s0_14___FieldVisitorNtB16_7Visitor9visit_strNtNtCse3EK68OXEkC_10serde_json5error5ErrorECseGnTZYlWoAf_9webserver
FNDA:0,_RINvXs3_NvXNvNtCskkwNnPUyuBS_8callisto8payloadssi_1__NtBb_9EffectMsgNtNtCs8pDKiTx8cJZ_5serde2de11Deserialize11deserializeNtB6_s0_14___FieldVisitorNtB16_7Visitor9visit_u64NtNtCse3EK68OXEkC_10serde_json5error5ErrorECseGnTZYlWoAf_9webserver
FNDA:0,_RINvXs4_NvXNvNtCskkwNnPUyuBS_8callisto8payloadssi_1__NtBb_9EffectMsgNtNtCs8pDKiTx8cJZ_5serde2de11Deserialize11deserializeNtB6_s0_7___FieldB14_11deserializeINtNtNtNtB18_9___private2de7content19ContentDeserializerNtNtCse3EK68OXEkC_10serde_json5error5ErrorEECseGnTZYlWoAf_9webserver
FNDA:0,_RINvXs5_NvXNvNtCskkwNnPUyuBS_8callisto8payloadssi_1__NtBb_9EffectMsgNtNtCs8pDKiTx8cJZ_5serde2de11Deserialize11deserializeNtB6_s_9___VisitorNtB16_7Visitor9visit_mapQINtNtB16_5value15MapDeserializerINtNtNtNtCs9f3LFPSIp77_4core4iter8adapters3map3MapINtNtNtCsdze8u8oDPro_5alloc3vec9into_iter8IntoIterTNtNtNtNtB18_9___private2de7content7ContentB4L_EENCINvB4N_17visit_content_mapB1V_NtNtCse3EK68OXEkC_10serde_json5error5ErrorE0EB63_EECseGnTZYlWoAf_9webserver
FNDA:0,_RINvXs5_NvXNvNtCskkwNnPUyuBS_8callisto8payloadssi_1__NtBb_9EffectMsgNtNtCs8pDKiTx8cJZ_5serde2de11Deserialize11deserializeNtB6_s_9___VisitorNtB16_7Visitor9visit_seqQINtNtB16_5value15SeqDeserializerINtNtNtNtCs9f3LFPSIp77_4core4iter8adapters3map3MapINtNtNtCsdze8u8oDPro_5alloc3vec9into_iter8IntoIterNtNtNtNtB18_9___private2de7content7ContentENvMse_B4M_INtB4M_19ContentDeserializerNtNtCse3EK68OXEkC_10serde_json5error5ErrorE3newEB63_EECseGnTZYlWoAf_9webserver
FNDA:0,_RINvXs6_NvXNvNtCskkwNnPUyuBS_8callisto8payloadssi_1__NtBb_9EffectMsgNtNtCs8pDKiTx8cJZ_5serde2de11Deserialize11deserializeNtB6_s1_14___FieldVisitorNtB16_7Visitor11visit_bytesNtNtCse3EK68OXEkC_10serde_json5error5ErrorECseGnTZYlWoAf_9webserver
FNDA:0,_RINvXs6_NvXNvNtCskkwNnPUyuBS_8callisto8payloadssi_1__NtBb_9EffectMsgNtNtCs8pDKiTx8cJZ_5serde2de11Deserialize11deserializeNtB6_s1_14___FieldVisitorNtB16_7Visitor9visit_strNtNtCse3EK68OXEkC_10serde_json5error5ErrorECseGnTZYlWoAf_9webserver
FNDA:0,_RINvXs6_NvXNvNtCskkwNnPUyuBS_8callisto8payloadssi_1__NtBb_9EffectMsgNtNtCs8pDKiTx8cJZ_5serde2de11Deserialize11deserializeNtB6_s1_14___FieldVisitorNtB16_7Visitor9visit_u64NtNtCse3EK68OXEkC_10serde_json5error5ErrorECseGnTZYlWoAf_9webserver
FNDA:0,_RINvXs7_NvXNvNtCskkwNnPUyuBS_8callisto8payloadssi_1__NtBb_9EffectMsgNtNtCs8pDKiTx8cJZ_5serde2de11Deserialize11deserializeNtB6_s1_7___FieldB14_11deserializeINtNtNtNtB18_9___private2de7content19ContentDeserializerNtNtCse3EK68OXEkC_10serde_json5error5ErrorEECseGnTZYlWoAf_9webserver
FNDA:0,_RINvXs8_NvXNvNtCskkwNnPUyuBS_8callisto8payloadssi_1__NtBb_9EffectMsgNtNtCs8pDKiTx8cJZ_5serde2de11Deserialize11deserializeNtB6_s0_9___VisitorNtB16_7Visitor9visit_mapQINtNtB16_5value15MapDeserializerINtNtNtNtCs9f3LFPSIp77_4core4iter8adapters3map3MapINtNtNtCsdze8u8oDPro_5alloc3vec9into_iter8IntoIterTNtNtNtNtB18_9___private2de7content7ContentB4M_EENCINvB4O_17visit_content_mapB1V_NtNtCse3EK68OXEkC_10serde_json5error5ErrorE0EB64_EECseGnTZYlWoAf_9webserver
FNDA:0,_RINvXs8_NvXNvNtCskkwNnPUyuBS_8callisto8payloadssi_1__NtBb_9EffectMsgNtNtCs8pDKiTx8cJZ_5serde2de11Deserialize11deserializeNtB6_s0_9___VisitorNtB16_7Visitor9visit_seqQINtNtB16_5value15SeqDeserializerINtNtNtNtCs9f3LFPSIp77_4core4iter8adapters3map3MapINtNtNtCsdze8u8oDPro_5alloc3vec9into_iter8IntoIterNtNtNtNtB18_9___private2de7content7ContentENvMse_B4N_INtB4N_19ContentDeserializerNtNtCse3EK68OXEkC_10serde_json5error5ErrorE3newEB64_EECseGnTZYlWoAf_9webserver
FNDA:0,_RINvXs9_NvXNvNtCskkwNnPUyuBS_8callisto8payloadssi_1__NtBb_9EffectMsgNtNtCs8pDKiTx8cJZ_5serde2de11Deserialize11deserializeNtB6_s2_14___FieldVisitorNtB16_7Visitor11visit_bytesNtNtCse3EK68OXEkC_10serde_json5error5ErrorECseGnTZYlWoAf_9webserver
FNDA:0,_RINvXs9_NvXNvNtCskkwNnPUyuBS_8callisto8payloadssi_1__NtBb_9EffectMsgNtNtCs8pDKiTx8cJZ_5serde2de11Deserialize11deserializeNtB6_s2_14___FieldVisitorNtB16_7Visitor9visit_strNtNtCse3EK68OXEkC_10serde_json5error5ErrorECseGnTZYlWoAf_9webserver
FNDA:0,_RINvXs9_NvXNvNtCskkwNnPUyuBS_8callisto8payloadssi_1__NtBb_9EffectMsgNtNtCs8pDKiTx8cJZ_5serde2de11Deserialize11deserializeNtB6_s2_14___FieldVisitorNtB16_7Visitor9visit_u64NtNtCse3EK68OXEkC_10serde_json5error5ErrorECseGnTZYlWoAf_9webserver
FNDA:15,_RINvXs_NvXNvNtCskkwNnPUyuBS_8callisto8payloadss_1__NtBa_9SimpleMsgNtNtCs8pDKiTx8cJZ_5serde2de11Deserialize11deserializeNtB5_7___FieldB12_11deserializeINtNtCse3EK68OXEkC_10serde_json2de6MapKeyNtNtB2t_4read9SliceReadEECseGnTZYlWoAf_9webserver
FNDA:0,_RINvXs_NvXNvNtCskkwNnPUyuBS_8callisto8payloadssh_1__NtBa_9EffectMsgNtNtCs8pDKiTx8cJZ_5serde3ser9Serialize9serializeNtB5_s_15___SerializeWithB13_9serializeNtNtNtCse3EK68OXEkC_10serde_json5value3ser10SerializerECseGnTZYlWoAf_9webserver
FNDA:5,_RINvXs_NvXNvNtCskkwNnPUyuBS_8callisto8payloadssi_1__NtBa_9EffectMsgNtNtCs8pDKiTx8cJZ_5serde2de11Deserialize11deserializeNtB5_7___FieldB13_11deserializeQINtNtCse3EK68OXEkC_10serde_json2de12DeserializerNtNtB2v_4read7StrReadEECseGnTZYlWoAf_9webserver
FNDA:0,_RINvXs_NvXsb_NvXNvNtCskkwNnPUyuBS_8callisto8payloadssi_1__NtBg_9EffectMsgNtNtCs8pDKiTx8cJZ_5serde2de11Deserialize11deserializeNtBb_s1_9___VisitorNtB1b_7Visitor9visit_mapNtB5_s_17___DeserializeWithB19_11deserializeINtNtNtNtB1d_9___private2de7content19ContentDeserializerNtNtCse3EK68OXEkC_10serde_json5error5ErrorEECseGnTZYlWoAf_9webserver
FNDA:0,_RINvXs_NvXsb_NvXNvNtCskkwNnPUyuBS_8callisto8payloadssi_1__NtBg_9EffectMsgNtNtCs8pDKiTx8cJZ_5serde2de11Deserialize11deserializeNtBb_s1_9___VisitorNtB1b_7Visitor9visit_seqNtB5_s_17___DeserializeWithB19_11deserializeINtNtNtNtB1d_9___private2de7content19ContentDeserializerNtNtCse3EK68OXEkC_10serde_json5error5ErrorEECseGnTZYlWoAf_9webserver
FNDA:0,_RINvXsa_NvXNvNtCskkwNnPUyuBS_8callisto8payloadssi_1__NtBb_9EffectMsgNtNtCs8pDKiTx8cJZ_5serde2de11Deserialize11deserializeNtB6_s2_7___FieldB14_11deserializeINtNtNtNtB18_9___private2de7content19ContentDeserializerNtNtCse3EK68OXEkC_10serde_json5error5ErrorEECseGnTZYlWoAf_9webserver
FNDA:0,_RINvXsb_NvXNvNtCskkwNnPUyuBS_8callisto8payloadssi_1__NtBb_9EffectMsgNtNtCs8pDKiTx8cJZ_5serde2de11Deserialize11deserializeNtB6_s1_9___VisitorNtB16_7Visitor9visit_mapQINtNtB16_5value15MapDeserializerINtNtNtNtCs9f3LFPSIp77_4core4iter8adapters3map3MapINtNtNtCsdze8u8oDPro_5alloc3vec9into_iter8IntoIterTNtNtNtNtB18_9___private2de7content7ContentB4M_EENCINvB4O_17visit_content_mapB1V_NtNtCse3EK68OXEkC_10serde_json5error5ErrorE0EB64_EECseGnTZYlWoAf_9webserver
